
MIDIGenerator.elf:     file format elf32-littlenios2
MIDIGenerator.elf
architecture: nios2, flags 0x00000112:
EXEC_P, HAS_SYMS, D_PAGED
start address 0x0080019c

Program Header:
    LOAD off    0x00001020 vaddr 0x01104020 paddr 0x00800000 align 2**12
         filesz 0x0000019c memsz 0x0000019c flags r-x
    LOAD off    0x0000219c vaddr 0x0080019c paddr 0x0080019c align 2**12
         filesz 0x0000f588 memsz 0x0000f588 flags r-x
    LOAD off    0x00011724 vaddr 0x0080f724 paddr 0x00811220 align 2**12
         filesz 0x00001afc memsz 0x00001afc flags rw-
    LOAD off    0x00013d1c vaddr 0x00812d1c paddr 0x00812d1c align 2**12
         filesz 0x00000000 memsz 0x00005578 flags rw-
    LOAD off    0x00014000 vaddr 0x01104000 paddr 0x01104000 align 2**12
         filesz 0x00000020 memsz 0x00000020 flags r-x

Sections:
Idx Name          Size      VMA       LMA       File off  Algn
  0 .entry        00000020  01104000  01104000  00014000  2**5
                  CONTENTS, ALLOC, LOAD, READONLY, CODE
  1 .exceptions   0000019c  01104020  00800000  00001020  2**2
                  CONTENTS, ALLOC, LOAD, READONLY, CODE
  2 .text         0000f26c  0080019c  0080019c  0000219c  2**2
                  CONTENTS, ALLOC, LOAD, READONLY, CODE
  3 .rodata       0000031c  0080f408  0080f408  00011408  2**2
                  CONTENTS, ALLOC, LOAD, READONLY, DATA
  4 .rwdata       00001afc  0080f724  00811220  00011724  2**2
                  CONTENTS, ALLOC, LOAD, DATA, SMALL_DATA
  5 .bss          00005578  00812d1c  00812d1c  00013d1c  2**2
                  ALLOC, SMALL_DATA
  6 .comment      00000026  00000000  00000000  00014020  2**0
                  CONTENTS, READONLY
  7 .debug_aranges 00000b78  00000000  00000000  00014048  2**3
                  CONTENTS, READONLY, DEBUGGING
  8 .debug_pubnames 00001dd9  00000000  00000000  00014bc0  2**0
                  CONTENTS, READONLY, DEBUGGING
  9 .debug_info   00028544  00000000  00000000  00016999  2**0
                  CONTENTS, READONLY, DEBUGGING
 10 .debug_abbrev 000073fc  00000000  00000000  0003eedd  2**0
                  CONTENTS, READONLY, DEBUGGING
 11 .debug_line   00014e99  00000000  00000000  000462d9  2**0
                  CONTENTS, READONLY, DEBUGGING
 12 .debug_frame  0000200c  00000000  00000000  0005b174  2**2
                  CONTENTS, READONLY, DEBUGGING
 13 .debug_str    00001b86  00000000  00000000  0005d180  2**0
                  CONTENTS, READONLY, DEBUGGING
 14 .debug_loc    00005161  00000000  00000000  0005ed06  2**0
                  CONTENTS, READONLY, DEBUGGING
 15 .debug_alt_sim_info 00000010  00000000  00000000  00063e68  2**2
                  CONTENTS, READONLY, DEBUGGING
 16 .debug_ranges 00000258  00000000  00000000  00063e78  2**3
                  CONTENTS, READONLY, DEBUGGING
 17 .thread_model 00000006  00000000  00000000  0006840c  2**0
                  CONTENTS, READONLY
 18 .cpu          0000000c  00000000  00000000  00068412  2**0
                  CONTENTS, READONLY
 19 .qsys         00000001  00000000  00000000  0006841e  2**0
                  CONTENTS, READONLY
 20 .simulation_enabled 00000001  00000000  00000000  0006841f  2**0
                  CONTENTS, READONLY
 21 .sysid_hash   00000004  00000000  00000000  00068420  2**0
                  CONTENTS, READONLY
 22 .sysid_base   00000004  00000000  00000000  00068424  2**0
                  CONTENTS, READONLY
 23 .sysid_time   00000004  00000000  00000000  00068428  2**0
                  CONTENTS, READONLY
 24 .stderr_dev   0000000b  00000000  00000000  0006842c  2**0
                  CONTENTS, READONLY
 25 .stdin_dev    0000000b  00000000  00000000  00068437  2**0
                  CONTENTS, READONLY
 26 .stdout_dev   0000000b  00000000  00000000  00068442  2**0
                  CONTENTS, READONLY
 27 .sopc_system_name 0000000d  00000000  00000000  0006844d  2**0
                  CONTENTS, READONLY
 28 .quartus_project_dir 00000038  00000000  00000000  0006845a  2**0
                  CONTENTS, READONLY
 29 .jdi          00005269  00000000  00000000  00068492  2**0
                  CONTENTS, READONLY
 30 .sopcinfo     0005b2d6  00000000  00000000  0006d6fb  2**0
                  CONTENTS, READONLY
SYMBOL TABLE:
01104000 l    d  .entry	00000000 .entry
01104020 l    d  .exceptions	00000000 .exceptions
0080019c l    d  .text	00000000 .text
0080f408 l    d  .rodata	00000000 .rodata
0080f724 l    d  .rwdata	00000000 .rwdata
00812d1c l    d  .bss	00000000 .bss
00000000 l    d  .comment	00000000 .comment
00000000 l    d  .debug_aranges	00000000 .debug_aranges
00000000 l    d  .debug_pubnames	00000000 .debug_pubnames
00000000 l    d  .debug_info	00000000 .debug_info
00000000 l    d  .debug_abbrev	00000000 .debug_abbrev
00000000 l    d  .debug_line	00000000 .debug_line
00000000 l    d  .debug_frame	00000000 .debug_frame
00000000 l    d  .debug_str	00000000 .debug_str
00000000 l    d  .debug_loc	00000000 .debug_loc
00000000 l    d  .debug_alt_sim_info	00000000 .debug_alt_sim_info
00000000 l    d  .debug_ranges	00000000 .debug_ranges
008001d4 l       .text	00000000 alt_after_alt_main
00000000 l    df *ABS*	00000000 alt_irq_handler.c
00000000 l    df *ABS*	00000000 midi_generator.c
00812dac l     O .bss	00000009 message.3111
0080058c l     F .text	00000040 key_ISR
00000000 l    df *ABS*	00000000 dp-bit.c
00800670 l     F .text	00000410 _fpadd_parts
00000000 l    df *ABS*	00000000 dp-bit.c
00000000 l    df *ABS*	00000000 dp-bit.c
00000000 l    df *ABS*	00000000 dp-bit.c
00000000 l    df *ABS*	00000000 libgcc2.c
00000000 l    df *ABS*	00000000 dp-bit.c
00000000 l    df *ABS*	00000000 dp-bit.c
00000000 l    df *ABS*	00000000 libgcc2.c
00000000 l    df *ABS*	00000000 strcat.c
00000000 l    df *ABS*	00000000 strcpy.c
00000000 l    df *ABS*	00000000 alt_iic.c
00000000 l    df *ABS*	00000000 alt_iic_isr_register.c
00000000 l    df *ABS*	00000000 alt_irq_vars.c
00000000 l    df *ABS*	00000000 alt_load.c
00801678 l     F .text	0000006c alt_load_section
00000000 l    df *ABS*	00000000 alt_main.c
00000000 l    df *ABS*	00000000 alt_printf.c
00000000 l    df *ABS*	00000000 alt_putchar.c
00000000 l    df *ABS*	00000000 alt_env_lock.c
00811170 l     O .rwdata	00000004 lockid
00812d30 l     O .bss	00000004 locks
00000000 l    df *ABS*	00000000 alt_malloc_lock.c
00811174 l     O .rwdata	00000004 lockid
00812d38 l     O .bss	00000004 locks
00000000 l    df *ABS*	00000000 os_core.c
0080341c l     F .text	00000044 OS_InitMisc
00803460 l     F .text	0000006c OS_InitRdyList
008035c4 l     F .text	000000e0 OS_InitTCBList
00803340 l     F .text	000000dc OS_InitEventList
008034cc l     F .text	0000007c OS_InitTaskIdle
00803548 l     F .text	0000007c OS_InitTaskStat
00803838 l     F .text	00000070 OS_SchedNew
00000000 l    df *ABS*	00000000 os_dbg.c
00000000 l    df *ABS*	00000000 os_flag.c
00805758 l     F .text	00000110 OS_FlagTaskRdy
008054b0 l     F .text	000001c4 OS_FlagBlock
00000000 l    df *ABS*	00000000 os_mem.c
00000000 l    df *ABS*	00000000 os_q.c
00000000 l    df *ABS*	00000000 os_sem.c
00000000 l    df *ABS*	00000000 os_task.c
00000000 l    df *ABS*	00000000 os_time.c
00000000 l    df *ABS*	00000000 alt_sys_init.c
0080f724 l     O .rwdata	0000106c jtag_uart_0
00810790 l     O .rwdata	0000002c character_lcd_0
0080a0b8 l     F .text	00000038 alt_dev_reg
00000000 l    df *ABS*	00000000 altera_avalon_jtag_uart_fd.c
00000000 l    df *ABS*	00000000 altera_avalon_jtag_uart_init.c
0080a370 l     F .text	000002c4 altera_avalon_jtag_uart_irq
0080a634 l     F .text	00000114 altera_avalon_jtag_uart_timeout
00000000 l    df *ABS*	00000000 altera_avalon_jtag_uart_ioctl.c
00000000 l    df *ABS*	00000000 altera_avalon_jtag_uart_read.c
00000000 l    df *ABS*	00000000 altera_avalon_jtag_uart_write.c
00000000 l    df *ABS*	00000000 altera_avalon_timer_sc.c
0080ae4c l     F .text	00000070 alt_avalon_timer_sc_irq
00000000 l    df *ABS*	00000000 altera_up_avalon_character_lcd.c
00000000 l    df *ABS*	00000000 alt_alarm_start.c
00000000 l    df *ABS*	00000000 alt_close.c
0080b6d0 l     F .text	00000060 alt_get_errno
00000000 l    df *ABS*	00000000 alt_dcache_flush_all.c
00000000 l    df *ABS*	00000000 alt_dev.c
0080b74c l     F .text	0000002c alt_dev_null_write
00000000 l    df *ABS*	00000000 alt_dev_llist_insert.c
0080b82c l     F .text	00000060 alt_get_errno
00000000 l    df *ABS*	00000000 alt_do_ctors.c
00000000 l    df *ABS*	00000000 alt_do_dtors.c
00000000 l    df *ABS*	00000000 alt_errno.c
00000000 l    df *ABS*	00000000 alt_find_dev.c
00000000 l    df *ABS*	00000000 alt_icache_flush_all.c
00000000 l    df *ABS*	00000000 alt_io_redirect.c
0080ba04 l     F .text	000000d8 alt_open_fd
00000000 l    df *ABS*	00000000 alt_open.c
0080bb54 l     F .text	000000f8 alt_file_locked
0080bdd8 l     F .text	00000060 alt_get_errno
00000000 l    df *ABS*	00000000 alt_release_fd.c
00000000 l    df *ABS*	00000000 alt_tick.c
00000000 l    df *ABS*	00000000 altera_nios2_qsys_irq.c
00000040 l       *ABS*	00000000 OSCtxSw_SWITCH_PC
00000000 l    df *ABS*	00000000 os_cpu_c.c
00000014 l       *ABS*	00000000 OSTCBNext_OFFSET
00000032 l       *ABS*	00000000 OSTCBPrio_OFFSET
00000000 l       *ABS*	00000000 OSTCBStkPtr_OFFSET
00000000 l    df *ABS*	00000000 alt_find_file.c
00000000 l    df *ABS*	00000000 alt_get_fd.c
00000000 l    df *ABS*	00000000 atexit.c
00000000 l    df *ABS*	00000000 exit.c
00000000 l    df *ABS*	00000000 impure.c
00810964 l     O .rwdata	00000400 impure_data
00000000 l    df *ABS*	00000000 int_errno.c
00000000 l    df *ABS*	00000000 memcmp.c
00000000 l    df *ABS*	00000000 memcpy.c
00000000 l    df *ABS*	00000000 memset.c
00000000 l    df *ABS*	00000000 putc.c
00000000 l    df *ABS*	00000000 strlen.c
00000000 l    df *ABS*	00000000 wbuf.c
00000000 l    df *ABS*	00000000 wsetup.c
00000000 l    df *ABS*	00000000 __atexit.c
00000000 l    df *ABS*	00000000 __call_atexit.c
0080cf98 l     F .text	00000004 register_fini
00000000 l    df *ABS*	00000000 fflush.c
00000000 l    df *ABS*	00000000 findfp.c
0080d37c l     F .text	00000058 std
0080d488 l     F .text	00000008 __fp_lock
0080d490 l     F .text	00000008 __fp_unlock
00000000 l    df *ABS*	00000000 mallocr.c
00000000 l    df *ABS*	00000000 fwalk.c
00000000 l    df *ABS*	00000000 makebuf.c
00000000 l    df *ABS*	00000000 mallocr.c
00000000 l    df *ABS*	00000000 sbrkr.c
00000000 l    df *ABS*	00000000 stdio.c
00000000 l    df *ABS*	00000000 writer.c
00000000 l    df *ABS*	00000000 closer.c
00000000 l    df *ABS*	00000000 fclose.c
00000000 l    df *ABS*	00000000 fstatr.c
00000000 l    df *ABS*	00000000 isattyr.c
00000000 l    df *ABS*	00000000 lseekr.c
00000000 l    df *ABS*	00000000 readr.c
00000000 l    df *ABS*	00000000 lib2-divmod.c
0080eaa0 l     F .text	0000007c udivmodsi4
00000000 l    df *ABS*	00000000 lib2-mul.c
00000000 l    df *ABS*	00000000 alt_exit.c
0080ec24 l     F .text	00000040 alt_sim_halt
00000000 l    df *ABS*	00000000 alt_fstat.c
0080ed68 l     F .text	00000060 alt_get_errno
00000000 l    df *ABS*	00000000 alt_isatty.c
0080ee8c l     F .text	00000060 alt_get_errno
00000000 l    df *ABS*	00000000 alt_lseek.c
0080efe0 l     F .text	00000060 alt_get_errno
00000000 l    df *ABS*	00000000 alt_read.c
0080f164 l     F .text	00000060 alt_get_errno
00000000 l    df *ABS*	00000000 alt_sbrk.c
0081121c l     O .rwdata	00000004 heap_end
00000000 l    df *ABS*	00000000 alt_write.c
0080f3a4 l     F .text	00000060 alt_get_errno
008111c2 g     O .rwdata	00000002 OSTaskNameSize
0080e940 g     F .text	00000070 _isatty_r
008016e4 g     F .text	000000c8 alt_main
008012a0 g     F .text	0000008c strcpy
00814de0 g     O .bss	00000100 alt_irq
0080e9b0 g     F .text	00000078 _lseek_r
0080604c g     F .text	000000d4 OS_MemInit
00811220 g       *ABS*	00000000 __flash_rwdata_start
00809fac g     F .text	00000064 OSTimeSet
0080afc8 g     F .text	00000034 alt_up_character_lcd_send_cmd
00801f98 g     F .text	000006b4 OSEventPendMulti
00818294 g       *ABS*	00000000 __alt_heap_start
0080c458 g     F .text	00000020 OSTaskCreateHook
0081119a g     O .rwdata	00000002 OSMboxEn
008026a0 g     F .text	0000007c OSIntEnter
0080e57c g     F .text	00000068 __sseek
0080d3e4 g     F .text	000000a4 __sinit
0080cbdc g     F .text	00000130 __swbuf_r
008111aa g     O .rwdata	00000002 OSQEn
0080d4e4 g     F .text	0000009c __sfmoreglue
00801c54 g     F .text	000000d0 __malloc_unlock
0080c4b4 g     F .text	0000001c OSTaskStatHook
00812d40 g     O .bss	00000001 OSLockNesting
00800300 g     F .text	000000cc handleLaserStatusChange
008111e8 g     O .rwdata	00000002 OSDataSize
00812d41 g     O .bss	00000001 OSRunning
0080c4ec g     F .text	0000001c OSInitHookBegin
008111e0 g     O .rwdata	00000002 OSTmrSize
0080d4d4 g     F .text	00000010 _cleanup
00812d44 g     O .bss	00000004 OSIdleCtr
0080c124 g       .text	00000000 OSStartTsk
00000000  w      *UND*	00000000 __errno
0080af4c g     F .text	0000007c get_DDRAM_addr
00803b6c g     F .text	000002e0 OS_TCBInit
01104000 g     F .entry	0000000c __reset
008111e6 g     O .rwdata	00000002 OSTmrWheelTblSize
00800000 g       *ABS*	00000000 __flash_exceptions_start
00811186 g     O .rwdata	00000002 OSEventSize
0080e8cc g     F .text	00000074 _fstat_r
00812d48 g     O .bss	00000001 OSPrioHighRdy
0080c478 g     F .text	00000020 OSTaskDelHook
00812d9c g     O .bss	00000004 errno
0080c104 g       .text	00000000 OSStartHighRdy
00808764 g     F .text	00000200 OSTaskCreateExt
00804fcc g     F .text	00000068 OSFlagPendGetFlagsRdy
008111c6 g     O .rwdata	00000002 OSTaskStatStkSize
00803fd8 g     F .text	00000334 OSFlagAccept
00806788 g     F .text	000000c8 OSQFlush
00806120 g     F .text	00000154 OSQAccept
00812d28 g     O .bss	00000004 alt_argv
0081916c g       *ABS*	00000000 _gp
00808590 g     F .text	000001d4 OSTaskCreate
0080801c g     F .text	00000574 OSTaskChangePrio
00812d3c g     O .bss	00000004 alt_heapsem
00803e4c g     F .text	0000018c OSDebugInit
00808964 g     F .text	0000040c OSTaskDel
008107e4 g     O .rwdata	00000180 alt_fd_list
00814ee0 g     O .bss	00000370 OSFlagTbl
0080311c g     F .text	000000b8 OS_EventTaskRemove
0080b954 g     F .text	00000094 alt_find_dev
0080c844 g     F .text	000000a0 memcpy
008111b0 g     O .rwdata	00000002 OSRdyTblSize
0080b160 g     F .text	0000004c alt_up_character_lcd_write_fd
0080d4c8 g     F .text	0000000c _cleanup_r
008004a8 g     F .text	000000e4 printLaserStatusOnLCD
00800b74 g     F .text	000000f8 __floatsidf
0080badc g     F .text	00000078 alt_io_redirect
0080f408 g       *ABS*	00000000 __DTOR_END__
00801d24 g     F .text	00000130 OSEventNameGet
00811194 g     O .rwdata	00000002 OSFlagMax
0080271c g     F .text	00000100 OSIntExit
008111ce g     O .rwdata	00000002 OSTCBSize
00812d49 g     O .bss	00000001 OSPrioCur
0080a8b0 g     F .text	000002c0 altera_avalon_jtag_uart_read
00000000  w      *UND*	00000000 malloc
01104000 g       *ABS*	00000000 __alt_mem_onchip_memory2_0
0080ebdc g     F .text	00000008 __udivsi3
0080edc8 g     F .text	000000c4 isatty
008111b4 g     O .rwdata	00000002 OSStkWidth
008111a8 g     O .rwdata	00000002 OSPtrSize
00811188 g     O .rwdata	00000002 OSEventTblSize
0080c078 g       .text	00000000 OSCtxSw
00812da0 g     O .bss	00000004 __malloc_top_pad
00812d4c g     O .bss	00000004 OSTCBList
00812d90 g     O .bss	00000004 alt_fd_list_lock
00812d1c g     O .bss	00000004 laserStatusChanged
00815250 g     O .bss	00000c30 OSMemTbl
00812d50 g     O .bss	00000001 OSTickStepState
0080e504 g     F .text	00000070 _sbrk_r
008111ac g     O .rwdata	00000002 OSQMax
00815e80 g     O .bss	00000800 OSTaskStatStk
00805c34 g     F .text	0000010c OSMemNameGet
0081118c g     O .rwdata	00000002 OSFlagEn
0080ea28 g     F .text	00000078 _read_r
008111d2 g     O .rwdata	00000002 OSTimeTickHookEn
00806cec g     F .text	00000180 OSQPost
00805868 g     F .text	000000ac OS_FlagUnlink
008111fc g     O .rwdata	00000004 alt_max_fd
008036f8 g     F .text	0000006c OS_MemCopy
00803764 g     F .text	000000d4 OS_Sched
008010d8 g     F .text	00000138 __unpack_d
0080e7a8 g     F .text	00000110 _fclose_r
00805b30 g     F .text	00000104 OSMemGet
00809098 g     F .text	000001c4 OSTaskNameSet
0080d348 g     F .text	00000034 fflush
00812da4 g     O .bss	00000004 __malloc_max_sbrked_mem
00812d54 g     O .bss	00000004 OSCtxSwCtr
0080c4d0 g     F .text	0000001c OSTimeTickHook
00811196 g     O .rwdata	00000002 OSFlagNameSize
008031d4 g     F .text	00000104 OS_EventTaskRemoveMulti
00800b00 g     F .text	00000074 __adddf3
00802fc8 g     F .text	00000154 OS_EventTaskWaitMulti
008111ae g     O .rwdata	00000002 OSQSize
0080eeec g     F .text	000000f4 lseek
008078c8 g     F .text	0000027c OSSemPend
00811210 g     O .rwdata	00000004 _global_impure_ptr
00811198 g     O .rwdata	00000002 OSLowestPrio
00818294 g       *ABS*	00000000 __bss_end
00801500 g     F .text	000000f8 alt_iic_isr_register
0080c540 g     F .text	00000020 OSTCBInitHook
008111de g     O .rwdata	00000002 OSTmrCfgTicksPerSec
0080bf48 g     F .text	00000110 alt_tick
00811180 g     O .rwdata	00000002 OSEventEn
008111da g     O .rwdata	00000002 OSTmrCfgNameSize
0080d4b0 g     F .text	00000018 __fp_lock_all
008014b8 g     F .text	00000048 alt_ic_irq_enabled
00805674 g     F .text	000000e4 OS_FlagInit
0080beb0 g     F .text	00000098 alt_alarm_stop
008111bc g     O .rwdata	00000002 OSTaskIdleStkSize
00812d20 g     O .bss	00000004 alt_irq_active
00807454 g     F .text	000000c0 OSSemAccept
00805e60 g     F .text	000000f0 OSMemPut
00805914 g     F .text	0000021c OSMemCreate
00812d58 g     O .bss	00000004 OSIdleCtrMax
011040ec g     F .exceptions	000000d0 alt_irq_handler
008001d8 g     F .text	00000128 inputPollingTask
008107bc g     O .rwdata	00000028 alt_dev_null
008111d0 g     O .rwdata	00000002 OSTicksPerSec
0080b448 g     F .text	00000034 alt_up_character_lcd_cursor_blink_on
0080c078 g       .text	00000000 OSIntCtxSw
0080b730 g     F .text	0000001c alt_dcache_flush_all
00800c6c g     F .text	000000d8 __fixdfsi
00812d5c g     O .bss	00000004 OSTCBFreeList
00811220 g       *ABS*	00000000 __ram_rwdata_end
00807b44 g     F .text	0000017c OSSemPendAbort
008111f4 g     O .rwdata	00000008 alt_dev_list
0080f280 g     F .text	00000124 write
0080ca80 g     F .text	000000e8 _putc_r
008111d4 g     O .rwdata	00000002 OSVersionNbr
0080f724 g       *ABS*	00000000 __ram_rodata_end
0080ec90 g     F .text	000000d8 fstat
00801210 g     F .text	00000090 strcat
0081117c g     O .rwdata	00000004 OSEndiannessTest
0080ebe4 g     F .text	00000008 __umodsi3
0081118e g     O .rwdata	00000002 OSFlagGrpSize
00818294 g       *ABS*	00000000 end
0080a238 g     F .text	00000138 altera_avalon_jtag_uart_init
008039dc g     F .text	000000c8 OS_TaskStat
0080f404 g       *ABS*	00000000 __CTOR_LIST__
01000000 g       *ABS*	00000000 __alt_stack_pointer
0080aebc g     F .text	00000090 alt_avalon_timer_sc_init
00800d44 g     F .text	00000080 __clzsi2
0080ab70 g     F .text	000002dc altera_avalon_jtag_uart_write
008003cc g     F .text	000000dc getMidiData
0080d3d4 g     F .text	00000004 __sfp_lock_acquire
008036a4 g     F .text	00000054 OS_MemClr
0080b070 g     F .text	00000078 alt_up_character_lcd_write
0080c148 g     F .text	00000310 OSTaskStkInit
0080d79c g     F .text	00000314 _free_r
008017ac g     F .text	00000258 alt_printf
00802d24 g     F .text	00000194 OS_EventTaskRdy
0080cf9c g     F .text	000001b0 __call_exitprocs
00812d60 g     O .bss	00000001 OSCPUUsage
00811218 g     O .rwdata	00000004 __malloc_sbrk_base
0080019c g     F .text	0000003c _start
00812d94 g     O .bss	00000004 _alt_tick_rate
00806850 g     F .text	00000320 OSQPend
00809a5c g     F .text	0000014c OSTimeDly
00812d98 g     O .bss	00000004 _alt_nticks
0080f040 g     F .text	00000124 read
0080a044 g     F .text	00000074 alt_sys_init
0080b2d4 g     F .text	000000b0 alt_up_character_lcd_shift_display
0080ce64 g     F .text	00000134 __register_exitproc
00812d61 g     O .bss	00000001 OSTaskCtr
00809ba8 g     F .text	00000190 OSTimeDlyHMSM
0080b384 g     F .text	00000090 alt_up_character_lcd_erase_pos
0080a748 g     F .text	00000074 altera_avalon_jtag_uart_close
0080ebec g     F .text	00000038 __mulsi3
0080f724 g       *ABS*	00000000 __ram_rwdata_start
0080f408 g       *ABS*	00000000 __ram_rodata_start
00812db8 g     O .bss	00000028 __malloc_current_mallinfo
00811182 g     O .rwdata	00000002 OSEventMax
00807cc0 g     F .text	00000128 OSSemPost
008028a8 g     F .text	000000e4 OSSchedUnlock
0080a0f0 g     F .text	00000058 altera_avalon_jtag_uart_read_fd
0080c680 g     F .text	00000104 alt_get_fd
00812d64 g     O .bss	00000004 OSMemFreeList
008029fc g     F .text	000000ac OSStatInit
008053dc g     F .text	000000d4 OSFlagQuery
008111b8 g     O .rwdata	00000002 OSTaskCreateExtEn
0080e738 g     F .text	00000070 _close_r
0080c7d0 g     F .text	00000074 memcmp
00802d08 g     F .text	0000001c OS_Dummy
0080a1a0 g     F .text	00000048 altera_avalon_jtag_uart_close_fd
00818294 g       *ABS*	00000000 __alt_stack_base
0080a1e8 g     F .text	00000050 altera_avalon_jtag_uart_ioctl_fd
0080cd28 g     F .text	0000013c __swsetup_r
00816680 g     O .bss	000001e0 OSQTbl
0080d580 g     F .text	000000f0 __sfp
00810d64 g     O .rwdata	00000408 __malloc_av_
0080d3e0 g     F .text	00000004 __sinit_lock_release
00812d68 g     O .bss	00000004 OSTCBHighRdy
0080e660 g     F .text	00000060 __sread
00812d6c g     O .bss	00000004 OSQFreeList
0080c560 g     F .text	00000120 alt_find_file
0080b778 g     F .text	000000b4 alt_dev_llist_insert
00801b4c g     F .text	00000108 __malloc_lock
0080f1c4 g     F .text	000000bc sbrk
00801e54 g     F .text	00000144 OSEventNameSet
0080d14c g     F .text	000001fc _fflush_r
00812d70 g     O .bss	00000001 OSRdyGrp
00812d1c g       *ABS*	00000000 __bss_start
0080c8e4 g     F .text	00000098 memset
008005cc g     F .text	000000a4 main
00812d2c g     O .bss	00000004 alt_envp
00812da8 g     O .bss	00000004 __malloc_max_total_mem
0080a148 g     F .text	00000058 altera_avalon_jtag_uart_write_fd
0080cd0c g     F .text	0000001c __swbuf
0080f5c4 g     O .rodata	00000100 OSUnMapTbl
008111b2 g     O .rwdata	00000002 OSSemEn
0080b224 g     F .text	000000b0 alt_up_character_lcd_shift_cursor
00805034 g     F .text	000003a8 OSFlagPost
0080e574 g     F .text	00000008 __sclose
01000000 g       *ABS*	00000000 __alt_heap_limit
0080e8b8 g     F .text	00000014 fclose
00802eb8 g     F .text	00000110 OS_EventTaskWait
00803aa4 g     F .text	000000c8 OS_TaskStatStkChk
00818104 g     O .bss	00000190 _atexit0
00808d70 g     F .text	00000170 OSTaskDelReq
0080ddc4 g     F .text	00000740 _malloc_r
00811200 g     O .rwdata	00000004 alt_errno
0080298c g     F .text	00000070 OSStart
00801af0 g     F .text	0000005c __env_unlock
0080db78 g     F .text	000000b8 _fwalk
0080925c g     F .text	00000218 OSTaskResume
00805f50 g     F .text	000000fc OSMemQuery
008111c4 g     O .rwdata	00000002 OSTaskStatEn
0081119e g     O .rwdata	00000002 OSMemMax
00806e6c g     F .text	00000188 OSQPostFront
0080c97c g     F .text	00000104 putc
0080eb1c g     F .text	00000060 __divsi3
00812d71 g     O .bss	00000003 OSRdyTbl
00811178 g     O .rwdata	00000002 OSDebugEn
0080f49c g     O .rodata	00000014 __thenan_df
0080b030 g     F .text	00000040 alt_up_character_lcd_open_dev
0080d670 g     F .text	0000012c _malloc_trim_r
0080f408 g       *ABS*	00000000 __CTOR_END__
00811190 g     O .rwdata	00000002 OSFlagNodeSize
008111d8 g     O .rwdata	00000002 OSTmrCfgMax
0080affc g     F .text	00000034 alt_up_character_lcd_init
00806274 g     F .text	00000214 OSQCreate
00808ee0 g     F .text	000001b8 OSTaskNameGet
0080f408 g       *ABS*	00000000 __flash_rodata_start
00806ff4 g     F .text	00000234 OSQPostOpt
00802aa8 g     F .text	00000240 OSTimeTick
008111c0 g     O .rwdata	00000002 OSTaskMax
0080f408 g       *ABS*	00000000 __DTOR_LIST__
00807514 g     F .text	00000114 OSSemCreate
008111e4 g     O .rwdata	00000002 OSTmrWheelSize
008111ba g     O .rwdata	00000002 OSTaskDelEn
01080000 g       *ABS*	00000000 __alt_mem_sram_0
00807de8 g     F .text	00000130 OSSemQuery
00806488 g     F .text	00000300 OSQDel
00806b70 g     F .text	0000017c OSQPendAbort
0080a010 g     F .text	00000034 alt_irq_init
0080be38 g     F .text	00000078 alt_release_fd
0080b414 g     F .text	00000034 alt_up_character_lcd_cursor_off
0080f4b0 g     O .rodata	00000100 __clz_tab
0080c784 g     F .text	00000014 atexit
0080e6c0 g     F .text	00000078 _write_r
0080281c g     F .text	0000008c OSSchedLock
0080430c g     F .text	0000013c OSFlagCreate
0081120c g     O .rwdata	00000004 _impure_ptr
00812d24 g     O .bss	00000004 alt_argc
0080b8f0 g     F .text	00000064 _do_dtors
0081118a g     O .rwdata	00000002 OSEventMultiEn
00804448 g     F .text	000002a8 OSFlagDel
00800000 g       *ABS*	00000000 __alt_mem_sdram_0
00812d74 g     O .bss	00000004 OSEventFreeList
01104020 g       .exceptions	00000000 alt_irq_entry
00804988 g     F .text	00000644 OSFlagPend
008111d6 g     O .rwdata	00000002 OSTmrEn
0080d498 g     F .text	00000018 __fp_unlock_all
008111ec g     O .rwdata	00000008 alt_fs_list
008038a8 g     F .text	00000080 OS_StrCopy
008111a0 g     O .rwdata	00000002 OSMemNameSize
0080c508 g     F .text	0000001c OSInitHookEnd
01104020 g       *ABS*	00000000 __ram_exceptions_start
008111cc g     O .rwdata	00000002 OSTCBPrioTblMax
008111c8 g     O .rwdata	00000002 OSTaskStatStkChkEn
0080132c g     F .text	00000050 alt_ic_isr_register
0081119c g     O .rwdata	00000002 OSMemEn
008111a6 g     O .rwdata	00000002 OSMutexEn
00811220 g       *ABS*	00000000 _edata
00818294 g       *ABS*	00000000 _end
00812d78 g     O .bss	00000001 OSIntNesting
011041bc g       *ABS*	00000000 __ram_exceptions_end
0080a7bc g     F .text	000000f4 altera_avalon_jtag_uart_ioctl
00809d38 g     F .text	00000210 OSTimeDlyResume
00804834 g     F .text	00000154 OSFlagNameSet
00809474 g     F .text	000001fc OSTaskStkChk
00801418 g     F .text	000000a0 alt_ic_irq_disable
008111a2 g     O .rwdata	00000002 OSMemSize
0080e5e4 g     F .text	0000007c __swrite
00811214 g     O .rwdata	00000004 __malloc_trim_threshold
0080c058 g     F .text	00000020 altera_nios2_qsys_irq_init
00812d7c g     O .bss	00000004 OSTCBCur
0080c798 g     F .text	00000038 exit
0080dab0 g     F .text	000000c8 _fwalk_reent
008111a4 g     O .rwdata	00000002 OSMemTblSize
0080eb7c g     F .text	00000060 __modsi3
01000000 g       *ABS*	00000000 __alt_data_end
01104020 g     F .exceptions	00000000 alt_exception
0080d3d8 g     F .text	00000004 __sfp_lock_release
0080264c g     F .text	00000054 OSInit
0080989c g     F .text	00000144 OSTaskQuery
0080b0e8 g     F .text	00000078 alt_up_character_lcd_string
008073a8 g     F .text	000000ac OS_QInit
00803928 g     F .text	00000058 OS_StrLen
00805d40 g     F .text	00000120 OSMemNameSet
008111be g     O .rwdata	00000002 OSTaskProfileEn
00812d80 g     O .bss	00000004 OSTime
00816860 g     O .bss	00000800 OSTaskIdleStk
0080ec64 g     F .text	0000002c _exit
0080b47c g     F .text	00000154 alt_alarm_start
008046f0 g     F .text	00000144 OSFlagNameGet
00809f48 g     F .text	00000064 OSTimeGet
0080dc30 g     F .text	00000194 __smakebuf_r
00812de0 g     O .bss	00002000 inputPollingTaskStack
0080cb68 g     F .text	00000074 strlen
0080c498 g     F .text	0000001c OSTaskSwHook
0080bc4c g     F .text	0000018c open
00817060 g     O .bss	00000b40 OSEventTbl
00801a04 g     F .text	00000040 alt_putchar
00817ba0 g     O .bss	00000510 OSTCBTbl
00807f18 g     F .text	00000104 OSSemSet
0080b9e8 g     F .text	0000001c alt_icache_flush_all
0080b1ac g     F .text	00000078 alt_up_character_lcd_set_cursor_pos
0081116c g     O .rwdata	00000004 alt_priority_mask
00807628 g     F .text	000002a0 OSSemDel
00812d84 g     O .bss	00000004 OSFlagFreeList
0080137c g     F .text	0000009c alt_ic_irq_enable
00811184 g     O .rwdata	00000002 OSEventNameSize
00812d88 g     O .bss	00000001 OSStatRdy
008180b0 g     O .bss	00000054 OSTCBPrioTbl
00801a44 g     F .text	000000ac __env_lock
008111ca g     O .rwdata	00000002 OSTaskSwHookEn
00800a80 g     F .text	00000080 __subdf3
00811204 g     O .rwdata	00000008 alt_alarm_list
00811192 g     O .rwdata	00000002 OSFlagWidth
0080b88c g     F .text	00000064 _do_ctors
0080b5d0 g     F .text	00000100 close
00812d34 g     O .bss	00000004 alt_envsem
00812d8c g     O .bss	00000004 OSIdleCtrRun
00802ce8 g     F .text	00000020 OSVersion
008111dc g     O .rwdata	00000002 OSTmrCfgWheelSize
008015f8 g     F .text	00000080 alt_load
008099e0 g     F .text	0000007c OS_TaskStkClr
00800dc4 g     F .text	00000314 __pack_d
008111b6 g     O .rwdata	00000002 OSTaskCreateEn
008032d8 g     F .text	00000068 OS_EventWaitListInit
0080c524 g     F .text	0000001c OSTaskIdleHook
00000000  w      *UND*	00000000 free
0080d3dc g     F .text	00000004 __sinit_lock_acquire
00809670 g     F .text	0000022c OSTaskSuspend
00803980 g     F .text	0000005c OS_TaskIdle
008111e2 g     O .rwdata	00000002 OSTmrTblSize
00807228 g     F .text	00000180 OSQQuery



Disassembly of section .entry:

01104000 <__reset>:
 * Jump to the _start entry point in the .text section if reset code
 * is allowed or if optimizing for RTL simulation.
 */
#if defined(ALT_ALLOW_CODE_AT_RESET) || defined(ALT_SIM_OPTIMIZE)
    /* Jump to the _start entry point in the .text section. */
    movhi r1, %hi(_start)
 1104000:	00402034 	movhi	at,128
    ori r1, r1, %lo(_start)
 1104004:	08406714 	ori	at,at,412
    jmp r1
 1104008:	0800683a 	jmp	at
	...

Disassembly of section .exceptions:

01104020 <alt_exception>:
         * Process an exception.  For all exceptions we must preserve all
         * caller saved registers on the stack (See the Nios2 ABI
         * documentation for details).
         */

        addi  sp, sp, -76
 1104020:	deffed04 	addi	sp,sp,-76

#endif

#endif

        stw   ra,  0(sp)
 1104024:	dfc00015 	stw	ra,0(sp)
        /*
         * Leave a gap in the stack frame at 4(sp) for the muldiv handler to
         * store zero into.
         */

        stw   r1,   8(sp)
 1104028:	d8400215 	stw	at,8(sp)
        stw   r2,  12(sp)
 110402c:	d8800315 	stw	r2,12(sp)
        stw   r3,  16(sp)
 1104030:	d8c00415 	stw	r3,16(sp)
        stw   r4,  20(sp)
 1104034:	d9000515 	stw	r4,20(sp)
        stw   r5,  24(sp)
 1104038:	d9400615 	stw	r5,24(sp)
        stw   r6,  28(sp)
 110403c:	d9800715 	stw	r6,28(sp)
        stw   r7,  32(sp)
 1104040:	d9c00815 	stw	r7,32(sp)

        rdctl r5, estatus
 1104044:	000b307a 	rdctl	r5,estatus

        stw   r8,  36(sp)
 1104048:	da000915 	stw	r8,36(sp)
        stw   r9,  40(sp)
 110404c:	da400a15 	stw	r9,40(sp)
        stw   r10, 44(sp)
 1104050:	da800b15 	stw	r10,44(sp)
        stw   r11, 48(sp)
 1104054:	dac00c15 	stw	r11,48(sp)
        stw   r12, 52(sp)
 1104058:	db000d15 	stw	r12,52(sp)
        stw   r13, 56(sp)
 110405c:	db400e15 	stw	r13,56(sp)
        stw   r14, 60(sp)
 1104060:	db800f15 	stw	r14,60(sp)
        stw   r15, 64(sp)
 1104064:	dbc01015 	stw	r15,64(sp)
        /*
         * ea-4 contains the address of the instruction being executed
         * when the exception occured. For interrupt exceptions, we will
         * will be re-issue the isntruction. Store it in 72(sp)
         */
        stw   r5,  68(sp)  /* estatus */
 1104068:	d9401115 	stw	r5,68(sp)
        addi  r15, ea, -4  /* instruction that caused exception */
 110406c:	ebffff04 	addi	r15,ea,-4
        stw   r15,  72(sp)
 1104070:	dbc01215 	stw	r15,72(sp)
#else
        /*
         * Test to see if the exception was a software exception or caused 
         * by an external interrupt, and vector accordingly.
         */
        rdctl r4, ipending
 1104074:	0009313a 	rdctl	r4,ipending
        andi  r2, r5, 1
 1104078:	2880004c 	andi	r2,r5,1
        beq   r2, zero, .Lnot_irq
 110407c:	10000326 	beq	r2,zero,110408c <alt_exception+0x6c>
        beq   r4, zero, .Lnot_irq
 1104080:	20000226 	beq	r4,zero,110408c <alt_exception+0x6c>
        /*
         * Now that all necessary registers have been preserved, call 
         * alt_irq_handler() to process the interrupts.
         */

        call alt_irq_handler
 1104084:	11040ec0 	call	11040ec <alt_irq_handler>

        .section .exceptions.irqreturn, "xa"

        br    .Lexception_exit
 1104088:	00000306 	br	1104098 <alt_exception+0x78>
         * upon completion, so we write ea (address of instruction *after*
         * the one where the exception occured) into 72(sp). The actual
         * instruction that caused the exception is written in r2, which these
         * handlers will utilize.
         */
        stw   ea,  72(sp)  /* Don't re-issue */
 110408c:	df401215 	stw	ea,72(sp)
        ldw   r2, -4(ea)   /* Instruction that caused exception */
 1104090:	e8bfff17 	ldw	r2,-4(ea)
#ifdef NIOS2_HAS_DEBUG_STUB
       /*
        *  Either tell the user now (if there is a debugger attached) or go into
        *  the debug monitor which will loop until a debugger is attached.
        */
        break
 1104094:	003da03a 	break	0
        /* 
         * Restore the saved registers, so that all general purpose registers 
         * have been restored to their state at the time the interrupt occured.
         */

        ldw   r5,  68(sp)
 1104098:	d9401117 	ldw	r5,68(sp)
        ldw   ea,  72(sp)  /* This becomes the PC once eret is executed */
 110409c:	df401217 	ldw	ea,72(sp)
        ldw   ra,   0(sp)
 11040a0:	dfc00017 	ldw	ra,0(sp)

        wrctl estatus, r5
 11040a4:	2801707a 	wrctl	estatus,r5

        ldw   r1,   8(sp)
 11040a8:	d8400217 	ldw	at,8(sp)
        ldw   r2,  12(sp)
 11040ac:	d8800317 	ldw	r2,12(sp)
        ldw   r3,  16(sp)
 11040b0:	d8c00417 	ldw	r3,16(sp)
        ldw   r4,  20(sp)
 11040b4:	d9000517 	ldw	r4,20(sp)
        ldw   r5,  24(sp)
 11040b8:	d9400617 	ldw	r5,24(sp)
        ldw   r6,  28(sp)
 11040bc:	d9800717 	ldw	r6,28(sp)
        ldw   r7,  32(sp)
 11040c0:	d9c00817 	ldw	r7,32(sp)
#ifdef ALT_STACK_CHECK
        ldw   et, %gprel(alt_exception_old_stack_limit)(gp)
#endif
#endif

        ldw   r8,  36(sp)
 11040c4:	da000917 	ldw	r8,36(sp)
        ldw   r9,  40(sp)
 11040c8:	da400a17 	ldw	r9,40(sp)
        ldw   r10, 44(sp)
 11040cc:	da800b17 	ldw	r10,44(sp)
        ldw   r11, 48(sp)
 11040d0:	dac00c17 	ldw	r11,48(sp)
        ldw   r12, 52(sp)
 11040d4:	db000d17 	ldw	r12,52(sp)
        ldw   r13, 56(sp)
 11040d8:	db400e17 	ldw	r13,56(sp)
        ldw   r14, 60(sp)
 11040dc:	db800f17 	ldw	r14,60(sp)
        ldw   r15, 64(sp)
 11040e0:	dbc01017 	ldw	r15,64(sp)
#endif

        ldw   sp,  76(sp)

#else
        addi  sp, sp, 76
 11040e4:	dec01304 	addi	sp,sp,76

        /*
         * Return to the interrupted instruction.
         */

        eret
 11040e8:	ef80083a 	eret

011040ec <alt_irq_handler>:
 * instruction is present if the macro ALT_CI_INTERRUPT_VECTOR defined.
 */

void alt_irq_handler (void) __attribute__ ((section (".exceptions")));
void alt_irq_handler (void)
{
 11040ec:	defff904 	addi	sp,sp,-28
 11040f0:	dfc00615 	stw	ra,24(sp)
 11040f4:	df000515 	stw	fp,20(sp)
 11040f8:	df000504 	addi	fp,sp,20
  
  /*
   * Notify the operating system that we are at interrupt level.
   */ 
  
  ALT_OS_INT_ENTER();
 11040fc:	08026a00 	call	8026a0 <OSIntEnter>
#ifndef NIOS2_EIC_PRESENT
static ALT_INLINE alt_u32 ALT_ALWAYS_INLINE alt_irq_pending (void)
{
  alt_u32 active;

  NIOS2_READ_IPENDING (active);
 1104100:	0005313a 	rdctl	r2,ipending
 1104104:	e0bffc15 	stw	r2,-16(fp)

  return active;
 1104108:	e0bffc17 	ldw	r2,-16(fp)
   * Consider the case where the high priority interupt is asserted during
   * the interrupt entry sequence for a lower priority interrupt to see why
   * this is the case.
   */

  active = alt_irq_pending ();
 110410c:	e0bfff15 	stw	r2,-4(fp)

  do
  {
    i = 0;
 1104110:	e03ffd15 	stw	zero,-12(fp)
    mask = 1;
 1104114:	00800044 	movi	r2,1
 1104118:	e0bffe15 	stw	r2,-8(fp)
     * called to clear the interrupt condition.
     */

    do
    {
      if (active & mask)
 110411c:	e0ffff17 	ldw	r3,-4(fp)
 1104120:	e0bffe17 	ldw	r2,-8(fp)
 1104124:	1884703a 	and	r2,r3,r2
 1104128:	1005003a 	cmpeq	r2,r2,zero
 110412c:	1000161e 	bne	r2,zero,1104188 <alt_irq_handler+0x9c>
      { 
#ifdef ALT_ENHANCED_INTERRUPT_API_PRESENT
        alt_irq[i].handler(alt_irq[i].context); 
 1104130:	e0bffd17 	ldw	r2,-12(fp)
 1104134:	00c02074 	movhi	r3,129
 1104138:	18d37804 	addi	r3,r3,19936
 110413c:	100490fa 	slli	r2,r2,3
 1104140:	10c5883a 	add	r2,r2,r3
 1104144:	11400017 	ldw	r5,0(r2)
 1104148:	e0bffd17 	ldw	r2,-12(fp)
 110414c:	00c02074 	movhi	r3,129
 1104150:	18d37804 	addi	r3,r3,19936
 1104154:	100490fa 	slli	r2,r2,3
 1104158:	10c5883a 	add	r2,r2,r3
 110415c:	10800104 	addi	r2,r2,4
 1104160:	11000017 	ldw	r4,0(r2)
 1104164:	283ee83a 	callr	r5
#ifndef NIOS2_EIC_PRESENT
static ALT_INLINE alt_u32 ALT_ALWAYS_INLINE alt_irq_pending (void)
{
  alt_u32 active;

  NIOS2_READ_IPENDING (active);
 1104168:	0005313a 	rdctl	r2,ipending
 110416c:	e0bffb15 	stw	r2,-20(fp)

  return active;
 1104170:	e0bffb17 	ldw	r2,-20(fp)
      mask <<= 1;
      i++;

    } while (1);

    active = alt_irq_pending ();
 1104174:	e0bfff15 	stw	r2,-4(fp)
    
  } while (active);
 1104178:	e0bfff17 	ldw	r2,-4(fp)
 110417c:	1004c03a 	cmpne	r2,r2,zero
 1104180:	103fe31e 	bne	r2,zero,1104110 <alt_irq_handler+0x24>
 1104184:	00000706 	br	11041a4 <alt_irq_handler+0xb8>
#else
        alt_irq[i].handler(alt_irq[i].context, i); 
#endif
        break;
      }
      mask <<= 1;
 1104188:	e0bffe17 	ldw	r2,-8(fp)
 110418c:	1085883a 	add	r2,r2,r2
 1104190:	e0bffe15 	stw	r2,-8(fp)
      i++;
 1104194:	e0bffd17 	ldw	r2,-12(fp)
 1104198:	10800044 	addi	r2,r2,1
 110419c:	e0bffd15 	stw	r2,-12(fp)

    } while (1);
 11041a0:	003fde06 	br	110411c <alt_irq_handler+0x30>

  /*
   * Notify the operating system that interrupt processing is complete.
   */ 

  ALT_OS_INT_EXIT();
 11041a4:	080271c0 	call	80271c <OSIntExit>
}
 11041a8:	e037883a 	mov	sp,fp
 11041ac:	dfc00117 	ldw	ra,4(sp)
 11041b0:	df000017 	ldw	fp,0(sp)
 11041b4:	dec00204 	addi	sp,sp,8
 11041b8:	f800283a 	ret

Disassembly of section .text:

0080019c <_start>:
#if (NIOS2_NUM_OF_SHADOW_REG_SETS == 0)    
    /*
     * Now that the caches are initialized, set up the stack pointer.
     * The value provided by the linker is assumed to be correctly aligned.
     */
    movhi sp, %hi(__alt_stack_pointer)
  80019c:	06c04034 	movhi	sp,256
    ori sp, sp, %lo(__alt_stack_pointer)
  8001a0:	dec00014 	ori	sp,sp,0

    /* Set up the global pointer. */
    movhi gp, %hi(_gp)
  8001a4:	06802074 	movhi	gp,129
    ori gp, gp, %lo(_gp)
  8001a8:	d6a45b14 	ori	gp,gp,37228
 */
#ifndef ALT_SIM_OPTIMIZE
    /* Log that the BSS is about to be cleared. */
    ALT_LOG_PUTS(alt_log_msg_bss)

    movhi r2, %hi(__bss_start)
  8001ac:	00802074 	movhi	r2,129
    ori r2, r2, %lo(__bss_start)
  8001b0:	108b4714 	ori	r2,r2,11548

    movhi r3, %hi(__bss_end)
  8001b4:	00c02074 	movhi	r3,129
    ori r3, r3, %lo(__bss_end)
  8001b8:	18e0a514 	ori	r3,r3,33428

    beq r2, r3, 1f
  8001bc:	10c00326 	beq	r2,r3,8001cc <_start+0x30>

0:
    stw zero, (r2)
  8001c0:	10000015 	stw	zero,0(r2)
    addi r2, r2, 4
  8001c4:	10800104 	addi	r2,r2,4
    bltu r2, r3, 0b
  8001c8:	10fffd36 	bltu	r2,r3,8001c0 <_start+0x24>
     * section aren't defined until alt_load() has been called).
     */
    mov   et, zero
#endif

    call alt_load
  8001cc:	08015f80 	call	8015f8 <alt_load>

    /* Log that alt_main is about to be called. */
    ALT_LOG_PUTS(alt_log_msg_alt_main)

    /* Call the C entry point. It should never return. */
    call alt_main
  8001d0:	08016e40 	call	8016e4 <alt_main>

008001d4 <alt_after_alt_main>:

    /* Wait in infinite loop in case alt_main does return. */
alt_after_alt_main:
    br alt_after_alt_main
  8001d4:	003fff06 	br	8001d4 <alt_after_alt_main>

008001d8 <inputPollingTask>:
#define NUMBER_OF_LASER 8
OS_STK    inputPollingTaskStack[TASK_STACKSIZE];
OS_EVENT * laserStatusChanged;


void inputPollingTask(void* pdata){
  8001d8:	defff804 	addi	sp,sp,-32
  8001dc:	dfc00715 	stw	ra,28(sp)
  8001e0:	df000615 	stw	fp,24(sp)
  8001e4:	df000604 	addi	fp,sp,24
  8001e8:	e13fff15 	stw	r4,-4(fp)
	alt_up_character_lcd_dev * char_lcd_dev;
	int laserStatus;
	int* laserStatusPointer =(int* )SWITCH_BASE;
  8001ec:	00804474 	movhi	r2,273
  8001f0:	10a40804 	addi	r2,r2,-28640
  8001f4:	e0bffb15 	stw	r2,-20(fp)
	int previousLaserStatus;
	INT8U err;

	//=========== init LCD ===========
	char_lcd_dev = alt_up_character_lcd_open_dev ("/dev/character_lcd_0");
  8001f8:	01002074 	movhi	r4,129
  8001fc:	213d0204 	addi	r4,r4,-3064
  800200:	080b0300 	call	80b030 <alt_up_character_lcd_open_dev>
  800204:	e0bffd15 	stw	r2,-12(fp)
	if ( char_lcd_dev == NULL)
  800208:	e0bffd17 	ldw	r2,-12(fp)
  80020c:	1004c03a 	cmpne	r2,r2,zero
  800210:	1000041e 	bne	r2,zero,800224 <inputPollingTask+0x4c>
		alt_printf ("Error: could not open character LCD device\n");
  800214:	01002074 	movhi	r4,129
  800218:	213d0804 	addi	r4,r4,-3040
  80021c:	08017ac0 	call	8017ac <alt_printf>
  800220:	00000306 	br	800230 <inputPollingTask+0x58>
	else
		alt_printf ("Opened character LCD device\n");
  800224:	01002074 	movhi	r4,129
  800228:	213d1304 	addi	r4,r4,-2996
  80022c:	08017ac0 	call	8017ac <alt_printf>
	alt_up_character_lcd_init (char_lcd_dev);
  800230:	e13ffd17 	ldw	r4,-12(fp)
  800234:	080affc0 	call	80affc <alt_up_character_lcd_init>
	alt_up_character_lcd_set_cursor_pos(char_lcd_dev, 0, 0);
  800238:	e13ffd17 	ldw	r4,-12(fp)
  80023c:	000b883a 	mov	r5,zero
  800240:	000d883a 	mov	r6,zero
  800244:	080b1ac0 	call	80b1ac <alt_up_character_lcd_set_cursor_pos>
	alt_up_character_lcd_string(char_lcd_dev, "MIDIGeneratorPrototype");
  800248:	e13ffd17 	ldw	r4,-12(fp)
  80024c:	01402074 	movhi	r5,129
  800250:	297d1b04 	addi	r5,r5,-2964
  800254:	080b0e80 	call	80b0e8 <alt_up_character_lcd_string>

	//=========== Start polling  ===========
	while (1){
		OSSemPend(laserStatusChanged, 0, &err);
  800258:	d126ec17 	ldw	r4,-25680(gp)
  80025c:	e1bffe04 	addi	r6,fp,-8
  800260:	000b883a 	mov	r5,zero
  800264:	08078c80 	call	8078c8 <OSSemPend>
		previousLaserStatus = laserStatus;
  800268:	e0bffc17 	ldw	r2,-16(fp)
  80026c:	e0bffa15 	stw	r2,-24(fp)
		laserStatus = *laserStatusPointer;
  800270:	e0bffb17 	ldw	r2,-20(fp)
  800274:	10800017 	ldw	r2,0(r2)
  800278:	e0bffc15 	stw	r2,-16(fp)
		laserStatus = pow(2,NUMBER_OF_LASER)-1 - laserStatus; //reverse all bits
  80027c:	e13ffc17 	ldw	r4,-16(fp)
  800280:	0800b740 	call	800b74 <__floatsidf>
  800284:	100f883a 	mov	r7,r2
  800288:	1811883a 	mov	r8,r3
  80028c:	0009883a 	mov	r4,zero
  800290:	01501c34 	movhi	r5,16496
  800294:	29780004 	addi	r5,r5,-8192
  800298:	380d883a 	mov	r6,r7
  80029c:	400f883a 	mov	r7,r8
  8002a0:	0800a800 	call	800a80 <__subdf3>
  8002a4:	1009883a 	mov	r4,r2
  8002a8:	180b883a 	mov	r5,r3
  8002ac:	2005883a 	mov	r2,r4
  8002b0:	2807883a 	mov	r3,r5
  8002b4:	1009883a 	mov	r4,r2
  8002b8:	180b883a 	mov	r5,r3
  8002bc:	0800c6c0 	call	800c6c <__fixdfsi>
  8002c0:	e0bffc15 	stw	r2,-16(fp)
		if (previousLaserStatus!=laserStatus){
  8002c4:	e0fffa17 	ldw	r3,-24(fp)
  8002c8:	e0bffc17 	ldw	r2,-16(fp)
  8002cc:	18800626 	beq	r3,r2,8002e8 <inputPollingTask+0x110>
			printLaserStatusOnLCD(char_lcd_dev,laserStatus);	//For debugging
  8002d0:	e13ffd17 	ldw	r4,-12(fp)
  8002d4:	e17ffc17 	ldw	r5,-16(fp)
  8002d8:	08004a80 	call	8004a8 <printLaserStatusOnLCD>
			handleLaserStatusChange(previousLaserStatus,laserStatus);
  8002dc:	e13ffa17 	ldw	r4,-24(fp)
  8002e0:	e17ffc17 	ldw	r5,-16(fp)
  8002e4:	08003000 	call	800300 <handleLaserStatusChange>
		}
		OSTimeDlyHMSM(0, 0, 0, 50);
  8002e8:	0009883a 	mov	r4,zero
  8002ec:	000b883a 	mov	r5,zero
  8002f0:	000d883a 	mov	r6,zero
  8002f4:	01c00c84 	movi	r7,50
  8002f8:	0809ba80 	call	809ba8 <OSTimeDlyHMSM>
	}
  8002fc:	003fd606 	br	800258 <inputPollingTask+0x80>

00800300 <handleLaserStatusChange>:

/*
 * Handles changes on laserStatus, and send the corresponding MIDI signal to midiOut
 * Input: int previousStatus, int currentStatus
 */
void handleLaserStatusChange(int previousStatus, int currentStatus){
  800300:	defff804 	addi	sp,sp,-32
  800304:	dfc00715 	stw	ra,28(sp)
  800308:	df000615 	stw	fp,24(sp)
  80030c:	df000604 	addi	fp,sp,24
  800310:	e13ffe15 	stw	r4,-8(fp)
  800314:	e17fff15 	stw	r5,-4(fp)
	int i;
	unsigned noteType; //0 = off 1 = on
	//Find bits that were changed
	int differentBits = previousStatus^currentStatus;		//XOR: 100 ^ 110 = 010
  800318:	e0fffe17 	ldw	r3,-8(fp)
  80031c:	e0bfff17 	ldw	r2,-4(fp)
  800320:	1884f03a 	xor	r2,r3,r2
  800324:	e0bffb15 	stw	r2,-20(fp)
	int* midiOutPointer = (int*) MIDIOUT_0_BASE;
  800328:	00804474 	movhi	r2,273
  80032c:	10a41404 	addi	r2,r2,-28592
  800330:	e0bffa15 	stw	r2,-24(fp)
	for (i=0;i<NUMBER_OF_LASER;i++){
  800334:	e03ffd15 	stw	zero,-12(fp)
  800338:	00001c06 	br	8003ac <handleLaserStatusChange+0xac>
		if( ((1 << i) & (differentBits)) == (1 << i) ){		//if laser i is changed
  80033c:	00c00044 	movi	r3,1
  800340:	e0bffd17 	ldw	r2,-12(fp)
  800344:	1886983a 	sll	r3,r3,r2
  800348:	e0bffb17 	ldw	r2,-20(fp)
  80034c:	1888703a 	and	r4,r3,r2
  800350:	00c00044 	movi	r3,1
  800354:	e0bffd17 	ldw	r2,-12(fp)
  800358:	1884983a 	sll	r2,r3,r2
  80035c:	2080101e 	bne	r4,r2,8003a0 <handleLaserStatusChange+0xa0>
			noteType = ((currentStatus &  (1 << i)) ==  (1 << i)) ?  1: 0;
  800360:	00c00044 	movi	r3,1
  800364:	e0bffd17 	ldw	r2,-12(fp)
  800368:	1886983a 	sll	r3,r3,r2
  80036c:	e0bfff17 	ldw	r2,-4(fp)
  800370:	1888703a 	and	r4,r3,r2
  800374:	00c00044 	movi	r3,1
  800378:	e0bffd17 	ldw	r2,-12(fp)
  80037c:	1884983a 	sll	r2,r3,r2
  800380:	2085003a 	cmpeq	r2,r4,r2
  800384:	e0bffc15 	stw	r2,-16(fp)
			*midiOutPointer =  getMidiData(i,noteType);
  800388:	e13ffd17 	ldw	r4,-12(fp)
  80038c:	e17ffc17 	ldw	r5,-16(fp)
  800390:	08003cc0 	call	8003cc <getMidiData>
  800394:	1007883a 	mov	r3,r2
  800398:	e0bffa17 	ldw	r2,-24(fp)
  80039c:	10c00015 	stw	r3,0(r2)
	int i;
	unsigned noteType; //0 = off 1 = on
	//Find bits that were changed
	int differentBits = previousStatus^currentStatus;		//XOR: 100 ^ 110 = 010
	int* midiOutPointer = (int*) MIDIOUT_0_BASE;
	for (i=0;i<NUMBER_OF_LASER;i++){
  8003a0:	e0bffd17 	ldw	r2,-12(fp)
  8003a4:	10800044 	addi	r2,r2,1
  8003a8:	e0bffd15 	stw	r2,-12(fp)
  8003ac:	e0bffd17 	ldw	r2,-12(fp)
  8003b0:	10800210 	cmplti	r2,r2,8
  8003b4:	103fe11e 	bne	r2,zero,80033c <handleLaserStatusChange+0x3c>
		if( ((1 << i) & (differentBits)) == (1 << i) ){		//if laser i is changed
			noteType = ((currentStatus &  (1 << i)) ==  (1 << i)) ?  1: 0;
			*midiOutPointer =  getMidiData(i,noteType);
		}
	}
}
  8003b8:	e037883a 	mov	sp,fp
  8003bc:	dfc00117 	ldw	ra,4(sp)
  8003c0:	df000017 	ldw	fp,0(sp)
  8003c4:	dec00204 	addi	sp,sp,8
  8003c8:	f800283a 	ret

008003cc <getMidiData>:
 * This function construct midi signal according to the midi specification 1.0
 * More information about the specification: http://www.somascape.org/midi/tech/spec.html
 * Input: int laserIndex, int noteType (0 = off 1 = on)
 * Output: int midiData
 */
int getMidiData(int laserIndex, int noteType){
  8003cc:	defff104 	addi	sp,sp,-60
  8003d0:	df000e15 	stw	fp,56(sp)
  8003d4:	df000e04 	addi	fp,sp,56
  8003d8:	e13ffe15 	stw	r4,-8(fp)
  8003dc:	e17fff15 	stw	r5,-4(fp)

	int laserToPitchMappingTable[]={60,62,64,65,67,69,71,72};	//C4 D4 E4 F4 G4 A4 B4 C5
  8003e0:	00800f04 	movi	r2,60
  8003e4:	e0bff615 	stw	r2,-40(fp)
  8003e8:	00800f84 	movi	r2,62
  8003ec:	e0bff715 	stw	r2,-36(fp)
  8003f0:	00801004 	movi	r2,64
  8003f4:	e0bff815 	stw	r2,-32(fp)
  8003f8:	00801044 	movi	r2,65
  8003fc:	e0bff915 	stw	r2,-28(fp)
  800400:	008010c4 	movi	r2,67
  800404:	e0bffa15 	stw	r2,-24(fp)
  800408:	00801144 	movi	r2,69
  80040c:	e0bffb15 	stw	r2,-20(fp)
  800410:	008011c4 	movi	r2,71
  800414:	e0bffc15 	stw	r2,-16(fp)
  800418:	00801204 	movi	r2,72
  80041c:	e0bffd15 	stw	r2,-12(fp)
	int statusByte;
	int pitchByte;
	int velocityBtye;
	int midiData;

	statusByte = 144; //10010000 Note On through midi channel 1
  800420:	00802404 	movi	r2,144
  800424:	e0bff515 	stw	r2,-44(fp)
	pitchByte = laserToPitchMappingTable[laserIndex];
  800428:	e0bffe17 	ldw	r2,-8(fp)
  80042c:	1085883a 	add	r2,r2,r2
  800430:	1085883a 	add	r2,r2,r2
  800434:	e0fff204 	addi	r3,fp,-56
  800438:	10c5883a 	add	r2,r2,r3
  80043c:	10800404 	addi	r2,r2,16
  800440:	10800017 	ldw	r2,0(r2)
  800444:	e0bff415 	stw	r2,-48(fp)
	if (noteType==1){
  800448:	e0bfff17 	ldw	r2,-4(fp)
  80044c:	10800058 	cmpnei	r2,r2,1
  800450:	1000031e 	bne	r2,zero,800460 <getMidiData+0x94>
		//Defaults to 64 in the absence of velocity sensors
		velocityBtye = 64;
  800454:	00801004 	movi	r2,64
  800458:	e0bff315 	stw	r2,-52(fp)
  80045c:	00000106 	br	800464 <getMidiData+0x98>
	}else{
		//when velocity is zero = Note Off
		velocityBtye = 0;
  800460:	e03ff315 	stw	zero,-52(fp)
	}

	//formate: 	0 statusBtye 1	0 pitchByte 1	0 velocityByte 1
	midiData = (statusByte<<21) + (1<<20) + (0<<19) + (pitchByte<<11) + (1<<10) + (0<<9) + (velocityBtye<<1) +(1<<0);
  800464:	e0bff517 	ldw	r2,-44(fp)
  800468:	1006957a 	slli	r3,r2,21
  80046c:	e0bff417 	ldw	r2,-48(fp)
  800470:	100492fa 	slli	r2,r2,11
  800474:	1887883a 	add	r3,r3,r2
  800478:	e0bff317 	ldw	r2,-52(fp)
  80047c:	1085883a 	add	r2,r2,r2
  800480:	1887883a 	add	r3,r3,r2
  800484:	00800434 	movhi	r2,16
  800488:	10810044 	addi	r2,r2,1025
  80048c:	1885883a 	add	r2,r3,r2
  800490:	e0bff215 	stw	r2,-56(fp)

	//printf("midiData %i\n",midiData);
	return midiData;
  800494:	e0bff217 	ldw	r2,-56(fp)
}
  800498:	e037883a 	mov	sp,fp
  80049c:	df000017 	ldw	fp,0(sp)
  8004a0:	dec00104 	addi	sp,sp,4
  8004a4:	f800283a 	ret

008004a8 <printLaserStatusOnLCD>:

/*
 * Print laserStatus as 1 and 0 on the LCD for debugging.
 * Input: alt_up_character_lcd_dev * char_lcd_dev, int laserStatus
 */
void printLaserStatusOnLCD(alt_up_character_lcd_dev * char_lcd_dev, int laserStatus){
  8004a8:	defffa04 	addi	sp,sp,-24
  8004ac:	dfc00515 	stw	ra,20(sp)
  8004b0:	df000415 	stw	fp,16(sp)
  8004b4:	df000404 	addi	fp,sp,16
  8004b8:	e13ffd15 	stw	r4,-12(fp)
  8004bc:	e17ffe15 	stw	r5,-8(fp)
    static char message[9];
    message[0] = '\0';
  8004c0:	00802074 	movhi	r2,129
  8004c4:	108b6b04 	addi	r2,r2,11692
  8004c8:	10000005 	stb	zero,0(r2)
    int i;
    for (i = 128; i > 0; i >>= 1){
  8004cc:	00802004 	movi	r2,128
  8004d0:	e0bffc15 	stw	r2,-16(fp)
  8004d4:	00001306 	br	800524 <printLaserStatusOnLCD+0x7c>
        strcat(message, ((laserStatus & i) == i) ? "1" : "0");
  8004d8:	e0fffe17 	ldw	r3,-8(fp)
  8004dc:	e0bffc17 	ldw	r2,-16(fp)
  8004e0:	1886703a 	and	r3,r3,r2
  8004e4:	e0bffc17 	ldw	r2,-16(fp)
  8004e8:	1880041e 	bne	r3,r2,8004fc <printLaserStatusOnLCD+0x54>
  8004ec:	00802074 	movhi	r2,129
  8004f0:	10bd2104 	addi	r2,r2,-2940
  8004f4:	e0bfff15 	stw	r2,-4(fp)
  8004f8:	00000306 	br	800508 <printLaserStatusOnLCD+0x60>
  8004fc:	00802074 	movhi	r2,129
  800500:	10bd2204 	addi	r2,r2,-2936
  800504:	e0bfff15 	stw	r2,-4(fp)
  800508:	01002074 	movhi	r4,129
  80050c:	210b6b04 	addi	r4,r4,11692
  800510:	e17fff17 	ldw	r5,-4(fp)
  800514:	08012100 	call	801210 <strcat>
 */
void printLaserStatusOnLCD(alt_up_character_lcd_dev * char_lcd_dev, int laserStatus){
    static char message[9];
    message[0] = '\0';
    int i;
    for (i = 128; i > 0; i >>= 1){
  800518:	e0bffc17 	ldw	r2,-16(fp)
  80051c:	1005d07a 	srai	r2,r2,1
  800520:	e0bffc15 	stw	r2,-16(fp)
  800524:	e0bffc17 	ldw	r2,-16(fp)
  800528:	10800048 	cmpgei	r2,r2,1
  80052c:	103fea1e 	bne	r2,zero,8004d8 <printLaserStatusOnLCD+0x30>
        strcat(message, ((laserStatus & i) == i) ? "1" : "0");
    }
	alt_up_character_lcd_init (char_lcd_dev);
  800530:	e13ffd17 	ldw	r4,-12(fp)
  800534:	080affc0 	call	80affc <alt_up_character_lcd_init>
	alt_up_character_lcd_set_cursor_pos(char_lcd_dev, 0, 0);
  800538:	e13ffd17 	ldw	r4,-12(fp)
  80053c:	000b883a 	mov	r5,zero
  800540:	000d883a 	mov	r6,zero
  800544:	080b1ac0 	call	80b1ac <alt_up_character_lcd_set_cursor_pos>
	alt_up_character_lcd_string(char_lcd_dev,"Laser Status:");
  800548:	e13ffd17 	ldw	r4,-12(fp)
  80054c:	01402074 	movhi	r5,129
  800550:	297d2304 	addi	r5,r5,-2932
  800554:	080b0e80 	call	80b0e8 <alt_up_character_lcd_string>
	alt_up_character_lcd_set_cursor_pos(char_lcd_dev, 0, 1);
  800558:	e13ffd17 	ldw	r4,-12(fp)
  80055c:	000b883a 	mov	r5,zero
  800560:	01800044 	movi	r6,1
  800564:	080b1ac0 	call	80b1ac <alt_up_character_lcd_set_cursor_pos>
	alt_up_character_lcd_string(char_lcd_dev, message);
  800568:	e13ffd17 	ldw	r4,-12(fp)
  80056c:	01402074 	movhi	r5,129
  800570:	294b6b04 	addi	r5,r5,11692
  800574:	080b0e80 	call	80b0e8 <alt_up_character_lcd_string>
}
  800578:	e037883a 	mov	sp,fp
  80057c:	dfc00117 	ldw	ra,4(sp)
  800580:	df000017 	ldw	fp,0(sp)
  800584:	dec00204 	addi	sp,sp,8
  800588:	f800283a 	ret

0080058c <key_ISR>:

static void key_ISR( void * context) {
  80058c:	defffd04 	addi	sp,sp,-12
  800590:	dfc00215 	stw	ra,8(sp)
  800594:	df000115 	stw	fp,4(sp)
  800598:	df000104 	addi	fp,sp,4
  80059c:	e13fff15 	stw	r4,-4(fp)
	OSSemPost(laserStatusChanged);
  8005a0:	d126ec17 	ldw	r4,-25680(gp)
  8005a4:	0807cc00 	call	807cc0 <OSSemPost>

	//interrupt safe instructions...
	//Acknowledge the IRQ : Clear the edgecapture register by writing a 1 to it
	IOWR_ALTERA_AVALON_PIO_EDGE_CAP(SWITCH_BASE, 0xff);
  8005a8:	00c04474 	movhi	r3,273
  8005ac:	18e40b04 	addi	r3,r3,-28628
  8005b0:	00803fc4 	movi	r2,255
  8005b4:	18800035 	stwio	r2,0(r3)
}
  8005b8:	e037883a 	mov	sp,fp
  8005bc:	dfc00117 	ldw	ra,4(sp)
  8005c0:	df000017 	ldw	fp,0(sp)
  8005c4:	dec00204 	addi	sp,sp,8
  8005c8:	f800283a 	ret

008005cc <main>:
int main(void){
  8005cc:	defff904 	addi	sp,sp,-28
  8005d0:	dfc00615 	stw	ra,24(sp)
  8005d4:	df000515 	stw	fp,20(sp)
  8005d8:	df000504 	addi	fp,sp,20

	OSTaskCreateExt(inputPollingTask,
  8005dc:	01802074 	movhi	r6,129
  8005e0:	31937704 	addi	r6,r6,19932
  8005e4:	00800044 	movi	r2,1
  8005e8:	d8800015 	stw	r2,0(sp)
  8005ec:	00802074 	movhi	r2,129
  8005f0:	108b7804 	addi	r2,r2,11744
  8005f4:	d8800115 	stw	r2,4(sp)
  8005f8:	00820004 	movi	r2,2048
  8005fc:	d8800215 	stw	r2,8(sp)
  800600:	d8000315 	stw	zero,12(sp)
  800604:	d8000415 	stw	zero,16(sp)
  800608:	01002034 	movhi	r4,128
  80060c:	21007604 	addi	r4,r4,472
  800610:	000b883a 	mov	r5,zero
  800614:	01c00044 	movi	r7,1
  800618:	08087640 	call	808764 <OSTaskCreateExt>
			INPUT_POLLING_TASK_PRIORITY,
			inputPollingTaskStack,
			TASK_STACKSIZE,
			NULL,
			0);
	laserStatusChanged = OSSemCreate(0);
  80061c:	0009883a 	mov	r4,zero
  800620:	08075140 	call	807514 <OSSemCreate>
  800624:	d0a6ec15 	stw	r2,-25680(gp)
	alt_ic_isr_register(SWITCH_IRQ_INTERRUPT_CONTROLLER_ID, //alt_u32 ic_id
  800628:	d8000015 	stw	zero,0(sp)
  80062c:	0009883a 	mov	r4,zero
  800630:	01400084 	movi	r5,2
  800634:	01802034 	movhi	r6,128
  800638:	31816304 	addi	r6,r6,1420
  80063c:	000f883a 	mov	r7,zero
  800640:	080132c0 	call	80132c <alt_ic_isr_register>
						SWITCH_IRQ, //alt_u32 irq
						key_ISR, //alt_isr_func isr
						NULL,
						NULL);
	//Setting interruptmask register to 1 enables key interrupts
	IOWR_ALTERA_AVALON_PIO_IRQ_MASK(SWITCH_BASE,0xff);
  800644:	00c04474 	movhi	r3,273
  800648:	18e40a04 	addi	r3,r3,-28632
  80064c:	00803fc4 	movi	r2,255
  800650:	18800035 	stwio	r2,0(r3)
	OSStart();
  800654:	080298c0 	call	80298c <OSStart>
	return 0;
  800658:	0005883a 	mov	r2,zero
}
  80065c:	e037883a 	mov	sp,fp
  800660:	dfc00117 	ldw	ra,4(sp)
  800664:	df000017 	ldw	fp,0(sp)
  800668:	dec00204 	addi	sp,sp,8
  80066c:	f800283a 	ret

00800670 <_fpadd_parts>:
  800670:	defff804 	addi	sp,sp,-32
  800674:	dcc00315 	stw	r19,12(sp)
  800678:	2027883a 	mov	r19,r4
  80067c:	21000017 	ldw	r4,0(r4)
  800680:	00c00044 	movi	r3,1
  800684:	dd400515 	stw	r21,20(sp)
  800688:	dd000415 	stw	r20,16(sp)
  80068c:	ddc00715 	stw	r23,28(sp)
  800690:	dd800615 	stw	r22,24(sp)
  800694:	dc800215 	stw	r18,8(sp)
  800698:	dc400115 	stw	r17,4(sp)
  80069c:	dc000015 	stw	r16,0(sp)
  8006a0:	282b883a 	mov	r21,r5
  8006a4:	3029883a 	mov	r20,r6
  8006a8:	1900632e 	bgeu	r3,r4,800838 <_fpadd_parts+0x1c8>
  8006ac:	28800017 	ldw	r2,0(r5)
  8006b0:	1880812e 	bgeu	r3,r2,8008b8 <_fpadd_parts+0x248>
  8006b4:	00c00104 	movi	r3,4
  8006b8:	20c0dc26 	beq	r4,r3,800a2c <_fpadd_parts+0x3bc>
  8006bc:	10c07e26 	beq	r2,r3,8008b8 <_fpadd_parts+0x248>
  8006c0:	00c00084 	movi	r3,2
  8006c4:	10c06726 	beq	r2,r3,800864 <_fpadd_parts+0x1f4>
  8006c8:	20c07b26 	beq	r4,r3,8008b8 <_fpadd_parts+0x248>
  8006cc:	9dc00217 	ldw	r23,8(r19)
  8006d0:	28c00217 	ldw	r3,8(r5)
  8006d4:	9c400317 	ldw	r17,12(r19)
  8006d8:	2bc00317 	ldw	r15,12(r5)
  8006dc:	b8cdc83a 	sub	r6,r23,r3
  8006e0:	9c800417 	ldw	r18,16(r19)
  8006e4:	2c000417 	ldw	r16,16(r5)
  8006e8:	3009883a 	mov	r4,r6
  8006ec:	30009716 	blt	r6,zero,80094c <_fpadd_parts+0x2dc>
  8006f0:	00800fc4 	movi	r2,63
  8006f4:	11806b16 	blt	r2,r6,8008a4 <_fpadd_parts+0x234>
  8006f8:	0100a40e 	bge	zero,r4,80098c <_fpadd_parts+0x31c>
  8006fc:	35bff804 	addi	r22,r6,-32
  800700:	b000bc16 	blt	r22,zero,8009f4 <_fpadd_parts+0x384>
  800704:	8596d83a 	srl	r11,r16,r22
  800708:	0019883a 	mov	r12,zero
  80070c:	0013883a 	mov	r9,zero
  800710:	01000044 	movi	r4,1
  800714:	0015883a 	mov	r10,zero
  800718:	b000be16 	blt	r22,zero,800a14 <_fpadd_parts+0x3a4>
  80071c:	2590983a 	sll	r8,r4,r22
  800720:	000f883a 	mov	r7,zero
  800724:	00bfffc4 	movi	r2,-1
  800728:	3889883a 	add	r4,r7,r2
  80072c:	408b883a 	add	r5,r8,r2
  800730:	21cd803a 	cmpltu	r6,r4,r7
  800734:	314b883a 	add	r5,r6,r5
  800738:	7904703a 	and	r2,r15,r4
  80073c:	8146703a 	and	r3,r16,r5
  800740:	10c4b03a 	or	r2,r2,r3
  800744:	10000226 	beq	r2,zero,800750 <_fpadd_parts+0xe0>
  800748:	02400044 	movi	r9,1
  80074c:	0015883a 	mov	r10,zero
  800750:	5a5eb03a 	or	r15,r11,r9
  800754:	62a0b03a 	or	r16,r12,r10
  800758:	99400117 	ldw	r5,4(r19)
  80075c:	a8800117 	ldw	r2,4(r21)
  800760:	28806e26 	beq	r5,r2,80091c <_fpadd_parts+0x2ac>
  800764:	28006626 	beq	r5,zero,800900 <_fpadd_parts+0x290>
  800768:	7c45c83a 	sub	r2,r15,r17
  80076c:	7889803a 	cmpltu	r4,r15,r2
  800770:	8487c83a 	sub	r3,r16,r18
  800774:	1909c83a 	sub	r4,r3,r4
  800778:	100d883a 	mov	r6,r2
  80077c:	200f883a 	mov	r7,r4
  800780:	38007716 	blt	r7,zero,800960 <_fpadd_parts+0x2f0>
  800784:	a5c00215 	stw	r23,8(r20)
  800788:	a1c00415 	stw	r7,16(r20)
  80078c:	a0000115 	stw	zero,4(r20)
  800790:	a1800315 	stw	r6,12(r20)
  800794:	a2000317 	ldw	r8,12(r20)
  800798:	a2400417 	ldw	r9,16(r20)
  80079c:	00bfffc4 	movi	r2,-1
  8007a0:	408b883a 	add	r5,r8,r2
  8007a4:	2a09803a 	cmpltu	r4,r5,r8
  8007a8:	488d883a 	add	r6,r9,r2
  8007ac:	01c40034 	movhi	r7,4096
  8007b0:	39ffffc4 	addi	r7,r7,-1
  8007b4:	218d883a 	add	r6,r4,r6
  8007b8:	39801736 	bltu	r7,r6,800818 <_fpadd_parts+0x1a8>
  8007bc:	31c06526 	beq	r6,r7,800954 <_fpadd_parts+0x2e4>
  8007c0:	a3000217 	ldw	r12,8(r20)
  8007c4:	4209883a 	add	r4,r8,r8
  8007c8:	00bfffc4 	movi	r2,-1
  8007cc:	220f803a 	cmpltu	r7,r4,r8
  8007d0:	4a4b883a 	add	r5,r9,r9
  8007d4:	394f883a 	add	r7,r7,r5
  8007d8:	2095883a 	add	r10,r4,r2
  8007dc:	3897883a 	add	r11,r7,r2
  8007e0:	510d803a 	cmpltu	r6,r10,r4
  8007e4:	6099883a 	add	r12,r12,r2
  8007e8:	32d7883a 	add	r11,r6,r11
  8007ec:	00840034 	movhi	r2,4096
  8007f0:	10bfffc4 	addi	r2,r2,-1
  8007f4:	2011883a 	mov	r8,r4
  8007f8:	3813883a 	mov	r9,r7
  8007fc:	a1000315 	stw	r4,12(r20)
  800800:	a1c00415 	stw	r7,16(r20)
  800804:	a3000215 	stw	r12,8(r20)
  800808:	12c00336 	bltu	r2,r11,800818 <_fpadd_parts+0x1a8>
  80080c:	58bfed1e 	bne	r11,r2,8007c4 <_fpadd_parts+0x154>
  800810:	00bfff84 	movi	r2,-2
  800814:	12bfeb2e 	bgeu	r2,r10,8007c4 <_fpadd_parts+0x154>
  800818:	a2800417 	ldw	r10,16(r20)
  80081c:	008000c4 	movi	r2,3
  800820:	00c80034 	movhi	r3,8192
  800824:	18ffffc4 	addi	r3,r3,-1
  800828:	a2400317 	ldw	r9,12(r20)
  80082c:	a0800015 	stw	r2,0(r20)
  800830:	1a802336 	bltu	r3,r10,8008c0 <_fpadd_parts+0x250>
  800834:	a027883a 	mov	r19,r20
  800838:	9805883a 	mov	r2,r19
  80083c:	ddc00717 	ldw	r23,28(sp)
  800840:	dd800617 	ldw	r22,24(sp)
  800844:	dd400517 	ldw	r21,20(sp)
  800848:	dd000417 	ldw	r20,16(sp)
  80084c:	dcc00317 	ldw	r19,12(sp)
  800850:	dc800217 	ldw	r18,8(sp)
  800854:	dc400117 	ldw	r17,4(sp)
  800858:	dc000017 	ldw	r16,0(sp)
  80085c:	dec00804 	addi	sp,sp,32
  800860:	f800283a 	ret
  800864:	20fff41e 	bne	r4,r3,800838 <_fpadd_parts+0x1c8>
  800868:	31000015 	stw	r4,0(r6)
  80086c:	98800117 	ldw	r2,4(r19)
  800870:	30800115 	stw	r2,4(r6)
  800874:	98c00217 	ldw	r3,8(r19)
  800878:	30c00215 	stw	r3,8(r6)
  80087c:	98800317 	ldw	r2,12(r19)
  800880:	30800315 	stw	r2,12(r6)
  800884:	98c00417 	ldw	r3,16(r19)
  800888:	30c00415 	stw	r3,16(r6)
  80088c:	98800117 	ldw	r2,4(r19)
  800890:	28c00117 	ldw	r3,4(r5)
  800894:	3027883a 	mov	r19,r6
  800898:	10c4703a 	and	r2,r2,r3
  80089c:	30800115 	stw	r2,4(r6)
  8008a0:	003fe506 	br	800838 <_fpadd_parts+0x1c8>
  8008a4:	1dc02616 	blt	r3,r23,800940 <_fpadd_parts+0x2d0>
  8008a8:	0023883a 	mov	r17,zero
  8008ac:	182f883a 	mov	r23,r3
  8008b0:	0025883a 	mov	r18,zero
  8008b4:	003fa806 	br	800758 <_fpadd_parts+0xe8>
  8008b8:	a827883a 	mov	r19,r21
  8008bc:	003fde06 	br	800838 <_fpadd_parts+0x1c8>
  8008c0:	01800044 	movi	r6,1
  8008c4:	500497fa 	slli	r2,r10,31
  8008c8:	4808d07a 	srli	r4,r9,1
  8008cc:	518ad83a 	srl	r5,r10,r6
  8008d0:	a2000217 	ldw	r8,8(r20)
  8008d4:	1108b03a 	or	r4,r2,r4
  8008d8:	0007883a 	mov	r3,zero
  8008dc:	4984703a 	and	r2,r9,r6
  8008e0:	208cb03a 	or	r6,r4,r2
  8008e4:	28ceb03a 	or	r7,r5,r3
  8008e8:	42000044 	addi	r8,r8,1
  8008ec:	a027883a 	mov	r19,r20
  8008f0:	a1c00415 	stw	r7,16(r20)
  8008f4:	a2000215 	stw	r8,8(r20)
  8008f8:	a1800315 	stw	r6,12(r20)
  8008fc:	003fce06 	br	800838 <_fpadd_parts+0x1c8>
  800900:	8bc5c83a 	sub	r2,r17,r15
  800904:	8889803a 	cmpltu	r4,r17,r2
  800908:	9407c83a 	sub	r3,r18,r16
  80090c:	1909c83a 	sub	r4,r3,r4
  800910:	100d883a 	mov	r6,r2
  800914:	200f883a 	mov	r7,r4
  800918:	003f9906 	br	800780 <_fpadd_parts+0x110>
  80091c:	7c45883a 	add	r2,r15,r17
  800920:	13c9803a 	cmpltu	r4,r2,r15
  800924:	8487883a 	add	r3,r16,r18
  800928:	20c9883a 	add	r4,r4,r3
  80092c:	a1400115 	stw	r5,4(r20)
  800930:	a5c00215 	stw	r23,8(r20)
  800934:	a0800315 	stw	r2,12(r20)
  800938:	a1000415 	stw	r4,16(r20)
  80093c:	003fb606 	br	800818 <_fpadd_parts+0x1a8>
  800940:	001f883a 	mov	r15,zero
  800944:	0021883a 	mov	r16,zero
  800948:	003f8306 	br	800758 <_fpadd_parts+0xe8>
  80094c:	018dc83a 	sub	r6,zero,r6
  800950:	003f6706 	br	8006f0 <_fpadd_parts+0x80>
  800954:	00bfff84 	movi	r2,-2
  800958:	117faf36 	bltu	r2,r5,800818 <_fpadd_parts+0x1a8>
  80095c:	003f9806 	br	8007c0 <_fpadd_parts+0x150>
  800960:	0005883a 	mov	r2,zero
  800964:	1189c83a 	sub	r4,r2,r6
  800968:	1105803a 	cmpltu	r2,r2,r4
  80096c:	01cbc83a 	sub	r5,zero,r7
  800970:	2885c83a 	sub	r2,r5,r2
  800974:	01800044 	movi	r6,1
  800978:	a1800115 	stw	r6,4(r20)
  80097c:	a5c00215 	stw	r23,8(r20)
  800980:	a1000315 	stw	r4,12(r20)
  800984:	a0800415 	stw	r2,16(r20)
  800988:	003f8206 	br	800794 <_fpadd_parts+0x124>
  80098c:	203f7226 	beq	r4,zero,800758 <_fpadd_parts+0xe8>
  800990:	35bff804 	addi	r22,r6,-32
  800994:	b9af883a 	add	r23,r23,r6
  800998:	b0003116 	blt	r22,zero,800a60 <_fpadd_parts+0x3f0>
  80099c:	959ad83a 	srl	r13,r18,r22
  8009a0:	001d883a 	mov	r14,zero
  8009a4:	000f883a 	mov	r7,zero
  8009a8:	01000044 	movi	r4,1
  8009ac:	0011883a 	mov	r8,zero
  8009b0:	b0002516 	blt	r22,zero,800a48 <_fpadd_parts+0x3d8>
  8009b4:	2594983a 	sll	r10,r4,r22
  8009b8:	0013883a 	mov	r9,zero
  8009bc:	00bfffc4 	movi	r2,-1
  8009c0:	4889883a 	add	r4,r9,r2
  8009c4:	508b883a 	add	r5,r10,r2
  8009c8:	224d803a 	cmpltu	r6,r4,r9
  8009cc:	314b883a 	add	r5,r6,r5
  8009d0:	8904703a 	and	r2,r17,r4
  8009d4:	9146703a 	and	r3,r18,r5
  8009d8:	10c4b03a 	or	r2,r2,r3
  8009dc:	10000226 	beq	r2,zero,8009e8 <_fpadd_parts+0x378>
  8009e0:	01c00044 	movi	r7,1
  8009e4:	0011883a 	mov	r8,zero
  8009e8:	69e2b03a 	or	r17,r13,r7
  8009ec:	7224b03a 	or	r18,r14,r8
  8009f0:	003f5906 	br	800758 <_fpadd_parts+0xe8>
  8009f4:	8407883a 	add	r3,r16,r16
  8009f8:	008007c4 	movi	r2,31
  8009fc:	1185c83a 	sub	r2,r2,r6
  800a00:	1886983a 	sll	r3,r3,r2
  800a04:	7996d83a 	srl	r11,r15,r6
  800a08:	8198d83a 	srl	r12,r16,r6
  800a0c:	1ad6b03a 	or	r11,r3,r11
  800a10:	003f3e06 	br	80070c <_fpadd_parts+0x9c>
  800a14:	2006d07a 	srli	r3,r4,1
  800a18:	008007c4 	movi	r2,31
  800a1c:	1185c83a 	sub	r2,r2,r6
  800a20:	1890d83a 	srl	r8,r3,r2
  800a24:	218e983a 	sll	r7,r4,r6
  800a28:	003f3e06 	br	800724 <_fpadd_parts+0xb4>
  800a2c:	113f821e 	bne	r2,r4,800838 <_fpadd_parts+0x1c8>
  800a30:	28c00117 	ldw	r3,4(r5)
  800a34:	98800117 	ldw	r2,4(r19)
  800a38:	10ff7f26 	beq	r2,r3,800838 <_fpadd_parts+0x1c8>
  800a3c:	04c02074 	movhi	r19,129
  800a40:	9cfd2704 	addi	r19,r19,-2916
  800a44:	003f7c06 	br	800838 <_fpadd_parts+0x1c8>
  800a48:	2006d07a 	srli	r3,r4,1
  800a4c:	008007c4 	movi	r2,31
  800a50:	1185c83a 	sub	r2,r2,r6
  800a54:	1894d83a 	srl	r10,r3,r2
  800a58:	2192983a 	sll	r9,r4,r6
  800a5c:	003fd706 	br	8009bc <_fpadd_parts+0x34c>
  800a60:	9487883a 	add	r3,r18,r18
  800a64:	008007c4 	movi	r2,31
  800a68:	1185c83a 	sub	r2,r2,r6
  800a6c:	1886983a 	sll	r3,r3,r2
  800a70:	899ad83a 	srl	r13,r17,r6
  800a74:	919cd83a 	srl	r14,r18,r6
  800a78:	1b5ab03a 	or	r13,r3,r13
  800a7c:	003fc906 	br	8009a4 <_fpadd_parts+0x334>

00800a80 <__subdf3>:
  800a80:	deffea04 	addi	sp,sp,-88
  800a84:	dcc01415 	stw	r19,80(sp)
  800a88:	dcc00404 	addi	r19,sp,16
  800a8c:	2011883a 	mov	r8,r4
  800a90:	2813883a 	mov	r9,r5
  800a94:	dc401315 	stw	r17,76(sp)
  800a98:	d809883a 	mov	r4,sp
  800a9c:	980b883a 	mov	r5,r19
  800aa0:	dc400904 	addi	r17,sp,36
  800aa4:	dfc01515 	stw	ra,84(sp)
  800aa8:	da400115 	stw	r9,4(sp)
  800aac:	d9c00315 	stw	r7,12(sp)
  800ab0:	da000015 	stw	r8,0(sp)
  800ab4:	d9800215 	stw	r6,8(sp)
  800ab8:	08010d80 	call	8010d8 <__unpack_d>
  800abc:	d9000204 	addi	r4,sp,8
  800ac0:	880b883a 	mov	r5,r17
  800ac4:	08010d80 	call	8010d8 <__unpack_d>
  800ac8:	d8800a17 	ldw	r2,40(sp)
  800acc:	880b883a 	mov	r5,r17
  800ad0:	9809883a 	mov	r4,r19
  800ad4:	d9800e04 	addi	r6,sp,56
  800ad8:	1080005c 	xori	r2,r2,1
  800adc:	d8800a15 	stw	r2,40(sp)
  800ae0:	08006700 	call	800670 <_fpadd_parts>
  800ae4:	1009883a 	mov	r4,r2
  800ae8:	0800dc40 	call	800dc4 <__pack_d>
  800aec:	dfc01517 	ldw	ra,84(sp)
  800af0:	dcc01417 	ldw	r19,80(sp)
  800af4:	dc401317 	ldw	r17,76(sp)
  800af8:	dec01604 	addi	sp,sp,88
  800afc:	f800283a 	ret

00800b00 <__adddf3>:
  800b00:	deffea04 	addi	sp,sp,-88
  800b04:	dcc01415 	stw	r19,80(sp)
  800b08:	dcc00404 	addi	r19,sp,16
  800b0c:	2011883a 	mov	r8,r4
  800b10:	2813883a 	mov	r9,r5
  800b14:	dc401315 	stw	r17,76(sp)
  800b18:	d809883a 	mov	r4,sp
  800b1c:	980b883a 	mov	r5,r19
  800b20:	dc400904 	addi	r17,sp,36
  800b24:	dfc01515 	stw	ra,84(sp)
  800b28:	da400115 	stw	r9,4(sp)
  800b2c:	d9c00315 	stw	r7,12(sp)
  800b30:	da000015 	stw	r8,0(sp)
  800b34:	d9800215 	stw	r6,8(sp)
  800b38:	08010d80 	call	8010d8 <__unpack_d>
  800b3c:	d9000204 	addi	r4,sp,8
  800b40:	880b883a 	mov	r5,r17
  800b44:	08010d80 	call	8010d8 <__unpack_d>
  800b48:	d9800e04 	addi	r6,sp,56
  800b4c:	9809883a 	mov	r4,r19
  800b50:	880b883a 	mov	r5,r17
  800b54:	08006700 	call	800670 <_fpadd_parts>
  800b58:	1009883a 	mov	r4,r2
  800b5c:	0800dc40 	call	800dc4 <__pack_d>
  800b60:	dfc01517 	ldw	ra,84(sp)
  800b64:	dcc01417 	ldw	r19,80(sp)
  800b68:	dc401317 	ldw	r17,76(sp)
  800b6c:	dec01604 	addi	sp,sp,88
  800b70:	f800283a 	ret

00800b74 <__floatsidf>:
  800b74:	2006d7fa 	srli	r3,r4,31
  800b78:	defff604 	addi	sp,sp,-40
  800b7c:	008000c4 	movi	r2,3
  800b80:	dfc00915 	stw	ra,36(sp)
  800b84:	dcc00815 	stw	r19,32(sp)
  800b88:	dc800715 	stw	r18,28(sp)
  800b8c:	dc400615 	stw	r17,24(sp)
  800b90:	dc000515 	stw	r16,20(sp)
  800b94:	d8800015 	stw	r2,0(sp)
  800b98:	d8c00115 	stw	r3,4(sp)
  800b9c:	20000f1e 	bne	r4,zero,800bdc <__floatsidf+0x68>
  800ba0:	00800084 	movi	r2,2
  800ba4:	d8800015 	stw	r2,0(sp)
  800ba8:	d809883a 	mov	r4,sp
  800bac:	0800dc40 	call	800dc4 <__pack_d>
  800bb0:	1009883a 	mov	r4,r2
  800bb4:	180b883a 	mov	r5,r3
  800bb8:	2005883a 	mov	r2,r4
  800bbc:	2807883a 	mov	r3,r5
  800bc0:	dfc00917 	ldw	ra,36(sp)
  800bc4:	dcc00817 	ldw	r19,32(sp)
  800bc8:	dc800717 	ldw	r18,28(sp)
  800bcc:	dc400617 	ldw	r17,24(sp)
  800bd0:	dc000517 	ldw	r16,20(sp)
  800bd4:	dec00a04 	addi	sp,sp,40
  800bd8:	f800283a 	ret
  800bdc:	00800f04 	movi	r2,60
  800be0:	1807003a 	cmpeq	r3,r3,zero
  800be4:	d8800215 	stw	r2,8(sp)
  800be8:	18001126 	beq	r3,zero,800c30 <__floatsidf+0xbc>
  800bec:	0027883a 	mov	r19,zero
  800bf0:	2025883a 	mov	r18,r4
  800bf4:	d9000315 	stw	r4,12(sp)
  800bf8:	dcc00415 	stw	r19,16(sp)
  800bfc:	0800d440 	call	800d44 <__clzsi2>
  800c00:	11000744 	addi	r4,r2,29
  800c04:	013fe80e 	bge	zero,r4,800ba8 <__floatsidf+0x34>
  800c08:	10bfff44 	addi	r2,r2,-3
  800c0c:	10000c16 	blt	r2,zero,800c40 <__floatsidf+0xcc>
  800c10:	90a2983a 	sll	r17,r18,r2
  800c14:	0021883a 	mov	r16,zero
  800c18:	d8800217 	ldw	r2,8(sp)
  800c1c:	dc400415 	stw	r17,16(sp)
  800c20:	dc000315 	stw	r16,12(sp)
  800c24:	1105c83a 	sub	r2,r2,r4
  800c28:	d8800215 	stw	r2,8(sp)
  800c2c:	003fde06 	br	800ba8 <__floatsidf+0x34>
  800c30:	00a00034 	movhi	r2,32768
  800c34:	20800a26 	beq	r4,r2,800c60 <__floatsidf+0xec>
  800c38:	0109c83a 	sub	r4,zero,r4
  800c3c:	003feb06 	br	800bec <__floatsidf+0x78>
  800c40:	9006d07a 	srli	r3,r18,1
  800c44:	008007c4 	movi	r2,31
  800c48:	1105c83a 	sub	r2,r2,r4
  800c4c:	1886d83a 	srl	r3,r3,r2
  800c50:	9922983a 	sll	r17,r19,r4
  800c54:	9120983a 	sll	r16,r18,r4
  800c58:	1c62b03a 	or	r17,r3,r17
  800c5c:	003fee06 	br	800c18 <__floatsidf+0xa4>
  800c60:	0009883a 	mov	r4,zero
  800c64:	01707834 	movhi	r5,49632
  800c68:	003fd306 	br	800bb8 <__floatsidf+0x44>

00800c6c <__fixdfsi>:
  800c6c:	defff804 	addi	sp,sp,-32
  800c70:	2005883a 	mov	r2,r4
  800c74:	2807883a 	mov	r3,r5
  800c78:	d809883a 	mov	r4,sp
  800c7c:	d9400204 	addi	r5,sp,8
  800c80:	d8c00115 	stw	r3,4(sp)
  800c84:	d8800015 	stw	r2,0(sp)
  800c88:	dfc00715 	stw	ra,28(sp)
  800c8c:	08010d80 	call	8010d8 <__unpack_d>
  800c90:	d8c00217 	ldw	r3,8(sp)
  800c94:	00800084 	movi	r2,2
  800c98:	1880051e 	bne	r3,r2,800cb0 <__fixdfsi+0x44>
  800c9c:	0007883a 	mov	r3,zero
  800ca0:	1805883a 	mov	r2,r3
  800ca4:	dfc00717 	ldw	ra,28(sp)
  800ca8:	dec00804 	addi	sp,sp,32
  800cac:	f800283a 	ret
  800cb0:	00800044 	movi	r2,1
  800cb4:	10fff92e 	bgeu	r2,r3,800c9c <__fixdfsi+0x30>
  800cb8:	00800104 	movi	r2,4
  800cbc:	18800426 	beq	r3,r2,800cd0 <__fixdfsi+0x64>
  800cc0:	d8c00417 	ldw	r3,16(sp)
  800cc4:	183ff516 	blt	r3,zero,800c9c <__fixdfsi+0x30>
  800cc8:	00800784 	movi	r2,30
  800ccc:	10c0080e 	bge	r2,r3,800cf0 <__fixdfsi+0x84>
  800cd0:	d8800317 	ldw	r2,12(sp)
  800cd4:	1000121e 	bne	r2,zero,800d20 <__fixdfsi+0xb4>
  800cd8:	00e00034 	movhi	r3,32768
  800cdc:	18ffffc4 	addi	r3,r3,-1
  800ce0:	1805883a 	mov	r2,r3
  800ce4:	dfc00717 	ldw	ra,28(sp)
  800ce8:	dec00804 	addi	sp,sp,32
  800cec:	f800283a 	ret
  800cf0:	00800f04 	movi	r2,60
  800cf4:	10d1c83a 	sub	r8,r2,r3
  800cf8:	40bff804 	addi	r2,r8,-32
  800cfc:	d9800517 	ldw	r6,20(sp)
  800d00:	d9c00617 	ldw	r7,24(sp)
  800d04:	10000816 	blt	r2,zero,800d28 <__fixdfsi+0xbc>
  800d08:	3888d83a 	srl	r4,r7,r2
  800d0c:	d8800317 	ldw	r2,12(sp)
  800d10:	2007883a 	mov	r3,r4
  800d14:	103fe226 	beq	r2,zero,800ca0 <__fixdfsi+0x34>
  800d18:	0107c83a 	sub	r3,zero,r4
  800d1c:	003fe006 	br	800ca0 <__fixdfsi+0x34>
  800d20:	00e00034 	movhi	r3,32768
  800d24:	003fde06 	br	800ca0 <__fixdfsi+0x34>
  800d28:	39c7883a 	add	r3,r7,r7
  800d2c:	008007c4 	movi	r2,31
  800d30:	1205c83a 	sub	r2,r2,r8
  800d34:	1886983a 	sll	r3,r3,r2
  800d38:	3208d83a 	srl	r4,r6,r8
  800d3c:	1908b03a 	or	r4,r3,r4
  800d40:	003ff206 	br	800d0c <__fixdfsi+0xa0>

00800d44 <__clzsi2>:
  800d44:	00bfffd4 	movui	r2,65535
  800d48:	11000e36 	bltu	r2,r4,800d84 <__clzsi2+0x40>
  800d4c:	00803fc4 	movi	r2,255
  800d50:	01400204 	movi	r5,8
  800d54:	0007883a 	mov	r3,zero
  800d58:	11001036 	bltu	r2,r4,800d9c <__clzsi2+0x58>
  800d5c:	000b883a 	mov	r5,zero
  800d60:	20c6d83a 	srl	r3,r4,r3
  800d64:	00802074 	movhi	r2,129
  800d68:	10bd2c04 	addi	r2,r2,-2896
  800d6c:	1887883a 	add	r3,r3,r2
  800d70:	18800003 	ldbu	r2,0(r3)
  800d74:	00c00804 	movi	r3,32
  800d78:	2885883a 	add	r2,r5,r2
  800d7c:	1885c83a 	sub	r2,r3,r2
  800d80:	f800283a 	ret
  800d84:	01400404 	movi	r5,16
  800d88:	00804034 	movhi	r2,256
  800d8c:	10bfffc4 	addi	r2,r2,-1
  800d90:	2807883a 	mov	r3,r5
  800d94:	113ff22e 	bgeu	r2,r4,800d60 <__clzsi2+0x1c>
  800d98:	01400604 	movi	r5,24
  800d9c:	2807883a 	mov	r3,r5
  800da0:	20c6d83a 	srl	r3,r4,r3
  800da4:	00802074 	movhi	r2,129
  800da8:	10bd2c04 	addi	r2,r2,-2896
  800dac:	1887883a 	add	r3,r3,r2
  800db0:	18800003 	ldbu	r2,0(r3)
  800db4:	00c00804 	movi	r3,32
  800db8:	2885883a 	add	r2,r5,r2
  800dbc:	1885c83a 	sub	r2,r3,r2
  800dc0:	f800283a 	ret

00800dc4 <__pack_d>:
  800dc4:	20c00017 	ldw	r3,0(r4)
  800dc8:	defffd04 	addi	sp,sp,-12
  800dcc:	dc000015 	stw	r16,0(sp)
  800dd0:	dc800215 	stw	r18,8(sp)
  800dd4:	dc400115 	stw	r17,4(sp)
  800dd8:	00800044 	movi	r2,1
  800ddc:	22000317 	ldw	r8,12(r4)
  800de0:	001f883a 	mov	r15,zero
  800de4:	22400417 	ldw	r9,16(r4)
  800de8:	24000117 	ldw	r16,4(r4)
  800dec:	10c0552e 	bgeu	r2,r3,800f44 <__pack_d+0x180>
  800df0:	00800104 	movi	r2,4
  800df4:	18804f26 	beq	r3,r2,800f34 <__pack_d+0x170>
  800df8:	00800084 	movi	r2,2
  800dfc:	18800226 	beq	r3,r2,800e08 <__pack_d+0x44>
  800e00:	4244b03a 	or	r2,r8,r9
  800e04:	10001a1e 	bne	r2,zero,800e70 <__pack_d+0xac>
  800e08:	000d883a 	mov	r6,zero
  800e0c:	000f883a 	mov	r7,zero
  800e10:	0011883a 	mov	r8,zero
  800e14:	00800434 	movhi	r2,16
  800e18:	10bfffc4 	addi	r2,r2,-1
  800e1c:	301d883a 	mov	r14,r6
  800e20:	3884703a 	and	r2,r7,r2
  800e24:	400a953a 	slli	r5,r8,20
  800e28:	79bffc2c 	andhi	r6,r15,65520
  800e2c:	308cb03a 	or	r6,r6,r2
  800e30:	00e00434 	movhi	r3,32784
  800e34:	18ffffc4 	addi	r3,r3,-1
  800e38:	800497fa 	slli	r2,r16,31
  800e3c:	30c6703a 	and	r3,r6,r3
  800e40:	1946b03a 	or	r3,r3,r5
  800e44:	01600034 	movhi	r5,32768
  800e48:	297fffc4 	addi	r5,r5,-1
  800e4c:	194a703a 	and	r5,r3,r5
  800e50:	288ab03a 	or	r5,r5,r2
  800e54:	2807883a 	mov	r3,r5
  800e58:	7005883a 	mov	r2,r14
  800e5c:	dc800217 	ldw	r18,8(sp)
  800e60:	dc400117 	ldw	r17,4(sp)
  800e64:	dc000017 	ldw	r16,0(sp)
  800e68:	dec00304 	addi	sp,sp,12
  800e6c:	f800283a 	ret
  800e70:	21000217 	ldw	r4,8(r4)
  800e74:	00bf0084 	movi	r2,-1022
  800e78:	20803f16 	blt	r4,r2,800f78 <__pack_d+0x1b4>
  800e7c:	0080ffc4 	movi	r2,1023
  800e80:	11002c16 	blt	r2,r4,800f34 <__pack_d+0x170>
  800e84:	00803fc4 	movi	r2,255
  800e88:	408c703a 	and	r6,r8,r2
  800e8c:	00802004 	movi	r2,128
  800e90:	0007883a 	mov	r3,zero
  800e94:	000f883a 	mov	r7,zero
  800e98:	2280ffc4 	addi	r10,r4,1023
  800e9c:	30801e26 	beq	r6,r2,800f18 <__pack_d+0x154>
  800ea0:	00801fc4 	movi	r2,127
  800ea4:	4089883a 	add	r4,r8,r2
  800ea8:	220d803a 	cmpltu	r6,r4,r8
  800eac:	324d883a 	add	r6,r6,r9
  800eb0:	2011883a 	mov	r8,r4
  800eb4:	3013883a 	mov	r9,r6
  800eb8:	00880034 	movhi	r2,8192
  800ebc:	10bfffc4 	addi	r2,r2,-1
  800ec0:	12400d36 	bltu	r2,r9,800ef8 <__pack_d+0x134>
  800ec4:	4804963a 	slli	r2,r9,24
  800ec8:	400cd23a 	srli	r6,r8,8
  800ecc:	480ed23a 	srli	r7,r9,8
  800ed0:	013fffc4 	movi	r4,-1
  800ed4:	118cb03a 	or	r6,r2,r6
  800ed8:	01400434 	movhi	r5,16
  800edc:	297fffc4 	addi	r5,r5,-1
  800ee0:	3104703a 	and	r2,r6,r4
  800ee4:	3946703a 	and	r3,r7,r5
  800ee8:	5201ffcc 	andi	r8,r10,2047
  800eec:	100d883a 	mov	r6,r2
  800ef0:	180f883a 	mov	r7,r3
  800ef4:	003fc706 	br	800e14 <__pack_d+0x50>
  800ef8:	480897fa 	slli	r4,r9,31
  800efc:	4004d07a 	srli	r2,r8,1
  800f00:	4806d07a 	srli	r3,r9,1
  800f04:	52800044 	addi	r10,r10,1
  800f08:	2084b03a 	or	r2,r4,r2
  800f0c:	1011883a 	mov	r8,r2
  800f10:	1813883a 	mov	r9,r3
  800f14:	003feb06 	br	800ec4 <__pack_d+0x100>
  800f18:	383fe11e 	bne	r7,zero,800ea0 <__pack_d+0xdc>
  800f1c:	01004004 	movi	r4,256
  800f20:	4104703a 	and	r2,r8,r4
  800f24:	10c4b03a 	or	r2,r2,r3
  800f28:	103fe326 	beq	r2,zero,800eb8 <__pack_d+0xf4>
  800f2c:	3005883a 	mov	r2,r6
  800f30:	003fdc06 	br	800ea4 <__pack_d+0xe0>
  800f34:	000d883a 	mov	r6,zero
  800f38:	000f883a 	mov	r7,zero
  800f3c:	0201ffc4 	movi	r8,2047
  800f40:	003fb406 	br	800e14 <__pack_d+0x50>
  800f44:	0005883a 	mov	r2,zero
  800f48:	00c00234 	movhi	r3,8
  800f4c:	408cb03a 	or	r6,r8,r2
  800f50:	48ceb03a 	or	r7,r9,r3
  800f54:	013fffc4 	movi	r4,-1
  800f58:	01400434 	movhi	r5,16
  800f5c:	297fffc4 	addi	r5,r5,-1
  800f60:	3104703a 	and	r2,r6,r4
  800f64:	3946703a 	and	r3,r7,r5
  800f68:	100d883a 	mov	r6,r2
  800f6c:	180f883a 	mov	r7,r3
  800f70:	0201ffc4 	movi	r8,2047
  800f74:	003fa706 	br	800e14 <__pack_d+0x50>
  800f78:	1109c83a 	sub	r4,r2,r4
  800f7c:	00800e04 	movi	r2,56
  800f80:	11004316 	blt	r2,r4,801090 <__pack_d+0x2cc>
  800f84:	21fff804 	addi	r7,r4,-32
  800f88:	38004516 	blt	r7,zero,8010a0 <__pack_d+0x2dc>
  800f8c:	49d8d83a 	srl	r12,r9,r7
  800f90:	001b883a 	mov	r13,zero
  800f94:	0023883a 	mov	r17,zero
  800f98:	01400044 	movi	r5,1
  800f9c:	0025883a 	mov	r18,zero
  800fa0:	38004716 	blt	r7,zero,8010c0 <__pack_d+0x2fc>
  800fa4:	29d6983a 	sll	r11,r5,r7
  800fa8:	0015883a 	mov	r10,zero
  800fac:	00bfffc4 	movi	r2,-1
  800fb0:	5089883a 	add	r4,r10,r2
  800fb4:	588b883a 	add	r5,r11,r2
  800fb8:	228d803a 	cmpltu	r6,r4,r10
  800fbc:	314b883a 	add	r5,r6,r5
  800fc0:	4104703a 	and	r2,r8,r4
  800fc4:	4946703a 	and	r3,r9,r5
  800fc8:	10c4b03a 	or	r2,r2,r3
  800fcc:	10000226 	beq	r2,zero,800fd8 <__pack_d+0x214>
  800fd0:	04400044 	movi	r17,1
  800fd4:	0025883a 	mov	r18,zero
  800fd8:	00803fc4 	movi	r2,255
  800fdc:	644eb03a 	or	r7,r12,r17
  800fe0:	3892703a 	and	r9,r7,r2
  800fe4:	00802004 	movi	r2,128
  800fe8:	6c90b03a 	or	r8,r13,r18
  800fec:	0015883a 	mov	r10,zero
  800ff0:	48801626 	beq	r9,r2,80104c <__pack_d+0x288>
  800ff4:	01001fc4 	movi	r4,127
  800ff8:	3905883a 	add	r2,r7,r4
  800ffc:	11cd803a 	cmpltu	r6,r2,r7
  801000:	320d883a 	add	r6,r6,r8
  801004:	100f883a 	mov	r7,r2
  801008:	00840034 	movhi	r2,4096
  80100c:	10bfffc4 	addi	r2,r2,-1
  801010:	3011883a 	mov	r8,r6
  801014:	0007883a 	mov	r3,zero
  801018:	11801b36 	bltu	r2,r6,801088 <__pack_d+0x2c4>
  80101c:	4004963a 	slli	r2,r8,24
  801020:	3808d23a 	srli	r4,r7,8
  801024:	400ad23a 	srli	r5,r8,8
  801028:	1813883a 	mov	r9,r3
  80102c:	1108b03a 	or	r4,r2,r4
  801030:	00bfffc4 	movi	r2,-1
  801034:	00c00434 	movhi	r3,16
  801038:	18ffffc4 	addi	r3,r3,-1
  80103c:	208c703a 	and	r6,r4,r2
  801040:	28ce703a 	and	r7,r5,r3
  801044:	4a01ffcc 	andi	r8,r9,2047
  801048:	003f7206 	br	800e14 <__pack_d+0x50>
  80104c:	503fe91e 	bne	r10,zero,800ff4 <__pack_d+0x230>
  801050:	01004004 	movi	r4,256
  801054:	3904703a 	and	r2,r7,r4
  801058:	0007883a 	mov	r3,zero
  80105c:	10c4b03a 	or	r2,r2,r3
  801060:	10000626 	beq	r2,zero,80107c <__pack_d+0x2b8>
  801064:	3a45883a 	add	r2,r7,r9
  801068:	11cd803a 	cmpltu	r6,r2,r7
  80106c:	320d883a 	add	r6,r6,r8
  801070:	100f883a 	mov	r7,r2
  801074:	3011883a 	mov	r8,r6
  801078:	0007883a 	mov	r3,zero
  80107c:	00840034 	movhi	r2,4096
  801080:	10bfffc4 	addi	r2,r2,-1
  801084:	123fe52e 	bgeu	r2,r8,80101c <__pack_d+0x258>
  801088:	00c00044 	movi	r3,1
  80108c:	003fe306 	br	80101c <__pack_d+0x258>
  801090:	0009883a 	mov	r4,zero
  801094:	0013883a 	mov	r9,zero
  801098:	000b883a 	mov	r5,zero
  80109c:	003fe406 	br	801030 <__pack_d+0x26c>
  8010a0:	4a47883a 	add	r3,r9,r9
  8010a4:	008007c4 	movi	r2,31
  8010a8:	1105c83a 	sub	r2,r2,r4
  8010ac:	1886983a 	sll	r3,r3,r2
  8010b0:	4118d83a 	srl	r12,r8,r4
  8010b4:	491ad83a 	srl	r13,r9,r4
  8010b8:	1b18b03a 	or	r12,r3,r12
  8010bc:	003fb506 	br	800f94 <__pack_d+0x1d0>
  8010c0:	2806d07a 	srli	r3,r5,1
  8010c4:	008007c4 	movi	r2,31
  8010c8:	1105c83a 	sub	r2,r2,r4
  8010cc:	1896d83a 	srl	r11,r3,r2
  8010d0:	2914983a 	sll	r10,r5,r4
  8010d4:	003fb506 	br	800fac <__pack_d+0x1e8>

008010d8 <__unpack_d>:
  8010d8:	20c00117 	ldw	r3,4(r4)
  8010dc:	22400017 	ldw	r9,0(r4)
  8010e0:	00800434 	movhi	r2,16
  8010e4:	10bfffc4 	addi	r2,r2,-1
  8010e8:	1808d53a 	srli	r4,r3,20
  8010ec:	180cd7fa 	srli	r6,r3,31
  8010f0:	1894703a 	and	r10,r3,r2
  8010f4:	2201ffcc 	andi	r8,r4,2047
  8010f8:	281b883a 	mov	r13,r5
  8010fc:	4817883a 	mov	r11,r9
  801100:	29800115 	stw	r6,4(r5)
  801104:	5019883a 	mov	r12,r10
  801108:	40001e1e 	bne	r8,zero,801184 <__unpack_d+0xac>
  80110c:	4a84b03a 	or	r2,r9,r10
  801110:	10001926 	beq	r2,zero,801178 <__unpack_d+0xa0>
  801114:	4804d63a 	srli	r2,r9,24
  801118:	500c923a 	slli	r6,r10,8
  80111c:	013f0084 	movi	r4,-1022
  801120:	00c40034 	movhi	r3,4096
  801124:	18ffffc4 	addi	r3,r3,-1
  801128:	118cb03a 	or	r6,r2,r6
  80112c:	008000c4 	movi	r2,3
  801130:	480a923a 	slli	r5,r9,8
  801134:	68800015 	stw	r2,0(r13)
  801138:	69000215 	stw	r4,8(r13)
  80113c:	19800b36 	bltu	r3,r6,80116c <__unpack_d+0x94>
  801140:	200f883a 	mov	r7,r4
  801144:	1811883a 	mov	r8,r3
  801148:	2945883a 	add	r2,r5,r5
  80114c:	1149803a 	cmpltu	r4,r2,r5
  801150:	3187883a 	add	r3,r6,r6
  801154:	20c9883a 	add	r4,r4,r3
  801158:	100b883a 	mov	r5,r2
  80115c:	200d883a 	mov	r6,r4
  801160:	39ffffc4 	addi	r7,r7,-1
  801164:	413ff82e 	bgeu	r8,r4,801148 <__unpack_d+0x70>
  801168:	69c00215 	stw	r7,8(r13)
  80116c:	69800415 	stw	r6,16(r13)
  801170:	69400315 	stw	r5,12(r13)
  801174:	f800283a 	ret
  801178:	00800084 	movi	r2,2
  80117c:	28800015 	stw	r2,0(r5)
  801180:	f800283a 	ret
  801184:	0081ffc4 	movi	r2,2047
  801188:	40800f26 	beq	r8,r2,8011c8 <__unpack_d+0xf0>
  80118c:	480cd63a 	srli	r6,r9,24
  801190:	5006923a 	slli	r3,r10,8
  801194:	4804923a 	slli	r2,r9,8
  801198:	0009883a 	mov	r4,zero
  80119c:	30c6b03a 	or	r3,r6,r3
  8011a0:	01440034 	movhi	r5,4096
  8011a4:	110cb03a 	or	r6,r2,r4
  8011a8:	423f0044 	addi	r8,r8,-1023
  8011ac:	194eb03a 	or	r7,r3,r5
  8011b0:	008000c4 	movi	r2,3
  8011b4:	69c00415 	stw	r7,16(r13)
  8011b8:	6a000215 	stw	r8,8(r13)
  8011bc:	68800015 	stw	r2,0(r13)
  8011c0:	69800315 	stw	r6,12(r13)
  8011c4:	f800283a 	ret
  8011c8:	4a84b03a 	or	r2,r9,r10
  8011cc:	1000031e 	bne	r2,zero,8011dc <__unpack_d+0x104>
  8011d0:	00800104 	movi	r2,4
  8011d4:	28800015 	stw	r2,0(r5)
  8011d8:	f800283a 	ret
  8011dc:	0009883a 	mov	r4,zero
  8011e0:	01400234 	movhi	r5,8
  8011e4:	4904703a 	and	r2,r9,r4
  8011e8:	5146703a 	and	r3,r10,r5
  8011ec:	10c4b03a 	or	r2,r2,r3
  8011f0:	10000526 	beq	r2,zero,801208 <__unpack_d+0x130>
  8011f4:	00800044 	movi	r2,1
  8011f8:	68800015 	stw	r2,0(r13)
  8011fc:	6b000415 	stw	r12,16(r13)
  801200:	6ac00315 	stw	r11,12(r13)
  801204:	f800283a 	ret
  801208:	68000015 	stw	zero,0(r13)
  80120c:	003ffb06 	br	8011fc <__unpack_d+0x124>

00801210 <strcat>:
  801210:	defffe04 	addi	sp,sp,-8
  801214:	208000cc 	andi	r2,r4,3
  801218:	dc000015 	stw	r16,0(sp)
  80121c:	dfc00115 	stw	ra,4(sp)
  801220:	2021883a 	mov	r16,r4
  801224:	1000161e 	bne	r2,zero,801280 <strcat+0x70>
  801228:	20c00017 	ldw	r3,0(r4)
  80122c:	01bfbff4 	movhi	r6,65279
  801230:	31bfbfc4 	addi	r6,r6,-257
  801234:	02202074 	movhi	r8,32897
  801238:	42202004 	addi	r8,r8,-32640
  80123c:	1985883a 	add	r2,r3,r6
  801240:	1204703a 	and	r2,r2,r8
  801244:	00c6303a 	nor	r3,zero,r3
  801248:	1886703a 	and	r3,r3,r2
  80124c:	18000c1e 	bne	r3,zero,801280 <strcat+0x70>
  801250:	300f883a 	mov	r7,r6
  801254:	400d883a 	mov	r6,r8
  801258:	21000104 	addi	r4,r4,4
  80125c:	20800017 	ldw	r2,0(r4)
  801260:	11c7883a 	add	r3,r2,r7
  801264:	1986703a 	and	r3,r3,r6
  801268:	0084303a 	nor	r2,zero,r2
  80126c:	10c4703a 	and	r2,r2,r3
  801270:	103ff926 	beq	r2,zero,801258 <strcat+0x48>
  801274:	20800007 	ldb	r2,0(r4)
  801278:	10000326 	beq	r2,zero,801288 <strcat+0x78>
  80127c:	21000044 	addi	r4,r4,1
  801280:	20800007 	ldb	r2,0(r4)
  801284:	103ffd1e 	bne	r2,zero,80127c <strcat+0x6c>
  801288:	08012a00 	call	8012a0 <strcpy>
  80128c:	8005883a 	mov	r2,r16
  801290:	dfc00117 	ldw	ra,4(sp)
  801294:	dc000017 	ldw	r16,0(sp)
  801298:	dec00204 	addi	sp,sp,8
  80129c:	f800283a 	ret

008012a0 <strcpy>:
  8012a0:	2904b03a 	or	r2,r5,r4
  8012a4:	108000cc 	andi	r2,r2,3
  8012a8:	10000826 	beq	r2,zero,8012cc <strcpy+0x2c>
  8012ac:	2007883a 	mov	r3,r4
  8012b0:	28800003 	ldbu	r2,0(r5)
  8012b4:	29400044 	addi	r5,r5,1
  8012b8:	18800005 	stb	r2,0(r3)
  8012bc:	18c00044 	addi	r3,r3,1
  8012c0:	103ffb1e 	bne	r2,zero,8012b0 <strcpy+0x10>
  8012c4:	2005883a 	mov	r2,r4
  8012c8:	f800283a 	ret
  8012cc:	29800017 	ldw	r6,0(r5)
  8012d0:	023fbff4 	movhi	r8,65279
  8012d4:	423fbfc4 	addi	r8,r8,-257
  8012d8:	02a02074 	movhi	r10,32897
  8012dc:	52a02004 	addi	r10,r10,-32640
  8012e0:	3205883a 	add	r2,r6,r8
  8012e4:	0186303a 	nor	r3,zero,r6
  8012e8:	10c4703a 	and	r2,r2,r3
  8012ec:	1284703a 	and	r2,r2,r10
  8012f0:	200f883a 	mov	r7,r4
  8012f4:	10000b1e 	bne	r2,zero,801324 <strcpy+0x84>
  8012f8:	4013883a 	mov	r9,r8
  8012fc:	5011883a 	mov	r8,r10
  801300:	39800015 	stw	r6,0(r7)
  801304:	29400104 	addi	r5,r5,4
  801308:	29800017 	ldw	r6,0(r5)
  80130c:	39c00104 	addi	r7,r7,4
  801310:	3245883a 	add	r2,r6,r9
  801314:	0186303a 	nor	r3,zero,r6
  801318:	10c4703a 	and	r2,r2,r3
  80131c:	1204703a 	and	r2,r2,r8
  801320:	103ff726 	beq	r2,zero,801300 <strcpy+0x60>
  801324:	3807883a 	mov	r3,r7
  801328:	003fe106 	br	8012b0 <strcpy+0x10>

0080132c <alt_ic_isr_register>:
  * @param irq              IRQ number
  * @return                 0 if successful, else error (-1)
  */
int alt_ic_isr_register(alt_u32 ic_id, alt_u32 irq, alt_isr_func isr, 
  void *isr_context, void *flags)
{
  80132c:	defff904 	addi	sp,sp,-28
  801330:	dfc00615 	stw	ra,24(sp)
  801334:	df000515 	stw	fp,20(sp)
  801338:	df000504 	addi	fp,sp,20
  80133c:	e13ffc15 	stw	r4,-16(fp)
  801340:	e17ffd15 	stw	r5,-12(fp)
  801344:	e1bffe15 	stw	r6,-8(fp)
  801348:	e1ffff15 	stw	r7,-4(fp)
    return alt_iic_isr_register(ic_id, irq, isr, isr_context, flags);
  80134c:	e0800217 	ldw	r2,8(fp)
  801350:	d8800015 	stw	r2,0(sp)
  801354:	e13ffc17 	ldw	r4,-16(fp)
  801358:	e17ffd17 	ldw	r5,-12(fp)
  80135c:	e1bffe17 	ldw	r6,-8(fp)
  801360:	e1ffff17 	ldw	r7,-4(fp)
  801364:	08015000 	call	801500 <alt_iic_isr_register>
}  
  801368:	e037883a 	mov	sp,fp
  80136c:	dfc00117 	ldw	ra,4(sp)
  801370:	df000017 	ldw	fp,0(sp)
  801374:	dec00204 	addi	sp,sp,8
  801378:	f800283a 	ret

0080137c <alt_ic_irq_enable>:
  * @param ic_id            Ignored.
  * @param irq              IRQ number
  * @return                 0 if successful, else error (-1)
  */
int alt_ic_irq_enable (alt_u32 ic_id, alt_u32 irq)
{
  80137c:	defff904 	addi	sp,sp,-28
  801380:	df000615 	stw	fp,24(sp)
  801384:	df000604 	addi	fp,sp,24
  801388:	e13ffe15 	stw	r4,-8(fp)
  80138c:	e17fff15 	stw	r5,-4(fp)
  801390:	e0bfff17 	ldw	r2,-4(fp)
  801394:	e0bffc15 	stw	r2,-16(fp)
static ALT_INLINE alt_irq_context ALT_ALWAYS_INLINE 
       alt_irq_disable_all (void)
{
  alt_irq_context context;

  NIOS2_READ_STATUS (context);
  801398:	0005303a 	rdctl	r2,status
  80139c:	e0bffb15 	stw	r2,-20(fp)

  NIOS2_WRITE_STATUS (context & ~NIOS2_STATUS_PIE_MSK);
  8013a0:	e0fffb17 	ldw	r3,-20(fp)
  8013a4:	00bfff84 	movi	r2,-2
  8013a8:	1884703a 	and	r2,r3,r2
  8013ac:	1001703a 	wrctl	status,r2
  
  return context;
  8013b0:	e0bffb17 	ldw	r2,-20(fp)
static ALT_INLINE int ALT_ALWAYS_INLINE alt_irq_enable (alt_u32 id)
{
  alt_irq_context  status;
  extern volatile alt_u32 alt_irq_active;

  status = alt_irq_disable_all ();
  8013b4:	e0bffd15 	stw	r2,-12(fp)

  alt_irq_active |= (1 << id);
  8013b8:	e0fffc17 	ldw	r3,-16(fp)
  8013bc:	00800044 	movi	r2,1
  8013c0:	10c4983a 	sll	r2,r2,r3
  8013c4:	1007883a 	mov	r3,r2
  8013c8:	00802074 	movhi	r2,129
  8013cc:	108b4804 	addi	r2,r2,11552
  8013d0:	10800017 	ldw	r2,0(r2)
  8013d4:	1886b03a 	or	r3,r3,r2
  8013d8:	00802074 	movhi	r2,129
  8013dc:	108b4804 	addi	r2,r2,11552
  8013e0:	10c00015 	stw	r3,0(r2)
  NIOS2_WRITE_IENABLE (alt_irq_active);
  8013e4:	00802074 	movhi	r2,129
  8013e8:	108b4804 	addi	r2,r2,11552
  8013ec:	10800017 	ldw	r2,0(r2)
  8013f0:	100170fa 	wrctl	ienable,r2
  8013f4:	e0bffd17 	ldw	r2,-12(fp)
  8013f8:	e0bffa15 	stw	r2,-24(fp)
  status &= ~NIOS2_STATUS_PIE_MSK;
  status |= (context & NIOS2_STATUS_PIE_MSK);
  
  NIOS2_WRITE_STATUS (status);
#else
  NIOS2_WRITE_STATUS (context);
  8013fc:	e0bffa17 	ldw	r2,-24(fp)
  801400:	1001703a 	wrctl	status,r2

  alt_irq_enable_all(status);

  return 0;
  801404:	0005883a 	mov	r2,zero
    return alt_irq_enable(irq);
}
  801408:	e037883a 	mov	sp,fp
  80140c:	df000017 	ldw	fp,0(sp)
  801410:	dec00104 	addi	sp,sp,4
  801414:	f800283a 	ret

00801418 <alt_ic_irq_disable>:
  * @param ic_id            Ignored.
  * @param irq              IRQ number
  * @return                 0 if successful, else error (-1)
  */
int alt_ic_irq_disable(alt_u32 ic_id, alt_u32 irq)
{
  801418:	defff904 	addi	sp,sp,-28
  80141c:	df000615 	stw	fp,24(sp)
  801420:	df000604 	addi	fp,sp,24
  801424:	e13ffe15 	stw	r4,-8(fp)
  801428:	e17fff15 	stw	r5,-4(fp)
  80142c:	e0bfff17 	ldw	r2,-4(fp)
  801430:	e0bffc15 	stw	r2,-16(fp)
static ALT_INLINE alt_irq_context ALT_ALWAYS_INLINE 
       alt_irq_disable_all (void)
{
  alt_irq_context context;

  NIOS2_READ_STATUS (context);
  801434:	0005303a 	rdctl	r2,status
  801438:	e0bffb15 	stw	r2,-20(fp)

  NIOS2_WRITE_STATUS (context & ~NIOS2_STATUS_PIE_MSK);
  80143c:	e0fffb17 	ldw	r3,-20(fp)
  801440:	00bfff84 	movi	r2,-2
  801444:	1884703a 	and	r2,r3,r2
  801448:	1001703a 	wrctl	status,r2
  
  return context;
  80144c:	e0bffb17 	ldw	r2,-20(fp)
static ALT_INLINE int ALT_ALWAYS_INLINE alt_irq_disable (alt_u32 id)
{
  alt_irq_context  status;
  extern volatile alt_u32 alt_irq_active;

  status = alt_irq_disable_all ();
  801450:	e0bffd15 	stw	r2,-12(fp)

  alt_irq_active &= ~(1 << id);
  801454:	e0fffc17 	ldw	r3,-16(fp)
  801458:	00800044 	movi	r2,1
  80145c:	10c4983a 	sll	r2,r2,r3
  801460:	0084303a 	nor	r2,zero,r2
  801464:	1007883a 	mov	r3,r2
  801468:	00802074 	movhi	r2,129
  80146c:	108b4804 	addi	r2,r2,11552
  801470:	10800017 	ldw	r2,0(r2)
  801474:	1886703a 	and	r3,r3,r2
  801478:	00802074 	movhi	r2,129
  80147c:	108b4804 	addi	r2,r2,11552
  801480:	10c00015 	stw	r3,0(r2)
  NIOS2_WRITE_IENABLE (alt_irq_active);
  801484:	00802074 	movhi	r2,129
  801488:	108b4804 	addi	r2,r2,11552
  80148c:	10800017 	ldw	r2,0(r2)
  801490:	100170fa 	wrctl	ienable,r2
  801494:	e0bffd17 	ldw	r2,-12(fp)
  801498:	e0bffa15 	stw	r2,-24(fp)
  status &= ~NIOS2_STATUS_PIE_MSK;
  status |= (context & NIOS2_STATUS_PIE_MSK);
  
  NIOS2_WRITE_STATUS (status);
#else
  NIOS2_WRITE_STATUS (context);
  80149c:	e0bffa17 	ldw	r2,-24(fp)
  8014a0:	1001703a 	wrctl	status,r2

  alt_irq_enable_all(status);

  return 0;
  8014a4:	0005883a 	mov	r2,zero
    return alt_irq_disable(irq);
}
  8014a8:	e037883a 	mov	sp,fp
  8014ac:	df000017 	ldw	fp,0(sp)
  8014b0:	dec00104 	addi	sp,sp,4
  8014b4:	f800283a 	ret

008014b8 <alt_ic_irq_enabled>:
  * @param irq              IRQ number
  * @return                 Zero if corresponding interrupt is disabled and
  *                         non-zero otherwise.
  */
alt_u32 alt_ic_irq_enabled(alt_u32 ic_id, alt_u32 irq)
{
  8014b8:	defffc04 	addi	sp,sp,-16
  8014bc:	df000315 	stw	fp,12(sp)
  8014c0:	df000304 	addi	fp,sp,12
  8014c4:	e13ffe15 	stw	r4,-8(fp)
  8014c8:	e17fff15 	stw	r5,-4(fp)
    alt_u32 irq_enabled;

    NIOS2_READ_IENABLE(irq_enabled);
  8014cc:	000530fa 	rdctl	r2,ienable
  8014d0:	e0bffd15 	stw	r2,-12(fp)

    return (irq_enabled & (1 << irq)) ? 1: 0;
  8014d4:	e0ffff17 	ldw	r3,-4(fp)
  8014d8:	00800044 	movi	r2,1
  8014dc:	10c4983a 	sll	r2,r2,r3
  8014e0:	1007883a 	mov	r3,r2
  8014e4:	e0bffd17 	ldw	r2,-12(fp)
  8014e8:	1884703a 	and	r2,r3,r2
  8014ec:	1004c03a 	cmpne	r2,r2,zero
}
  8014f0:	e037883a 	mov	sp,fp
  8014f4:	df000017 	ldw	fp,0(sp)
  8014f8:	dec00104 	addi	sp,sp,4
  8014fc:	f800283a 	ret

00801500 <alt_iic_isr_register>:
  * @param flags            
  * @return                 0 if successful, else error (-1)
  */
int alt_iic_isr_register(alt_u32 ic_id, alt_u32 irq, alt_isr_func isr, 
  void *isr_context, void *flags)
{
  801500:	defff404 	addi	sp,sp,-48
  801504:	dfc00b15 	stw	ra,44(sp)
  801508:	df000a15 	stw	fp,40(sp)
  80150c:	df000a04 	addi	fp,sp,40
  801510:	e13ffb15 	stw	r4,-20(fp)
  801514:	e17ffc15 	stw	r5,-16(fp)
  801518:	e1bffd15 	stw	r6,-12(fp)
  80151c:	e1fffe15 	stw	r7,-8(fp)
  int rc = -EINVAL;  
  801520:	00bffa84 	movi	r2,-22
  801524:	e0bffa15 	stw	r2,-24(fp)
  int id = irq;             /* IRQ interpreted as the interrupt ID. */
  801528:	e0bffc17 	ldw	r2,-16(fp)
  80152c:	e0bff915 	stw	r2,-28(fp)
  alt_irq_context status;

  if (id < ALT_NIRQ)
  801530:	e0bff917 	ldw	r2,-28(fp)
  801534:	10800808 	cmpgei	r2,r2,32
  801538:	1000291e 	bne	r2,zero,8015e0 <alt_iic_isr_register+0xe0>
static ALT_INLINE alt_irq_context ALT_ALWAYS_INLINE 
       alt_irq_disable_all (void)
{
  alt_irq_context context;

  NIOS2_READ_STATUS (context);
  80153c:	0005303a 	rdctl	r2,status
  801540:	e0bff715 	stw	r2,-36(fp)

  NIOS2_WRITE_STATUS (context & ~NIOS2_STATUS_PIE_MSK);
  801544:	e0fff717 	ldw	r3,-36(fp)
  801548:	00bfff84 	movi	r2,-2
  80154c:	1884703a 	and	r2,r3,r2
  801550:	1001703a 	wrctl	status,r2
  
  return context;
  801554:	e0bff717 	ldw	r2,-36(fp)
     * interrupts are disabled while the handler tables are updated to ensure
     * that an interrupt doesn't occur while the tables are in an inconsistant
     * state.
     */

    status = alt_irq_disable_all();
  801558:	e0bff815 	stw	r2,-32(fp)

    alt_irq[id].handler = isr;
  80155c:	e0bff917 	ldw	r2,-28(fp)
  801560:	00c02074 	movhi	r3,129
  801564:	18d37804 	addi	r3,r3,19936
  801568:	100490fa 	slli	r2,r2,3
  80156c:	10c7883a 	add	r3,r2,r3
  801570:	e0bffd17 	ldw	r2,-12(fp)
  801574:	18800015 	stw	r2,0(r3)
    alt_irq[id].context = isr_context;
  801578:	e0bff917 	ldw	r2,-28(fp)
  80157c:	00c02074 	movhi	r3,129
  801580:	18d37804 	addi	r3,r3,19936
  801584:	100490fa 	slli	r2,r2,3
  801588:	10c5883a 	add	r2,r2,r3
  80158c:	10c00104 	addi	r3,r2,4
  801590:	e0bffe17 	ldw	r2,-8(fp)
  801594:	18800015 	stw	r2,0(r3)

    rc = (isr) ? alt_ic_irq_enable(ic_id, id) : alt_ic_irq_disable(ic_id, id);
  801598:	e0bffd17 	ldw	r2,-12(fp)
  80159c:	1005003a 	cmpeq	r2,r2,zero
  8015a0:	1000051e 	bne	r2,zero,8015b8 <alt_iic_isr_register+0xb8>
  8015a4:	e17ff917 	ldw	r5,-28(fp)
  8015a8:	e13ffb17 	ldw	r4,-20(fp)
  8015ac:	080137c0 	call	80137c <alt_ic_irq_enable>
  8015b0:	e0bfff15 	stw	r2,-4(fp)
  8015b4:	00000406 	br	8015c8 <alt_iic_isr_register+0xc8>
  8015b8:	e17ff917 	ldw	r5,-28(fp)
  8015bc:	e13ffb17 	ldw	r4,-20(fp)
  8015c0:	08014180 	call	801418 <alt_ic_irq_disable>
  8015c4:	e0bfff15 	stw	r2,-4(fp)
  8015c8:	e0bfff17 	ldw	r2,-4(fp)
  8015cc:	e0bffa15 	stw	r2,-24(fp)
  8015d0:	e0bff817 	ldw	r2,-32(fp)
  8015d4:	e0bff615 	stw	r2,-40(fp)
  status &= ~NIOS2_STATUS_PIE_MSK;
  status |= (context & NIOS2_STATUS_PIE_MSK);
  
  NIOS2_WRITE_STATUS (status);
#else
  NIOS2_WRITE_STATUS (context);
  8015d8:	e0bff617 	ldw	r2,-40(fp)
  8015dc:	1001703a 	wrctl	status,r2

    alt_irq_enable_all(status);
  }

  return rc; 
  8015e0:	e0bffa17 	ldw	r2,-24(fp)
}
  8015e4:	e037883a 	mov	sp,fp
  8015e8:	dfc00117 	ldw	ra,4(sp)
  8015ec:	df000017 	ldw	fp,0(sp)
  8015f0:	dec00204 	addi	sp,sp,8
  8015f4:	f800283a 	ret

008015f8 <alt_load>:
 * there is no bootloader, so this application is responsible for loading to
 * RAM any sections that are required.
 */  

void alt_load (void)
{
  8015f8:	defffe04 	addi	sp,sp,-8
  8015fc:	dfc00115 	stw	ra,4(sp)
  801600:	df000015 	stw	fp,0(sp)
  801604:	d839883a 	mov	fp,sp
  /* 
   * Copy the .rwdata section. 
   */

  alt_load_section (&__flash_rwdata_start, 
  801608:	01002074 	movhi	r4,129
  80160c:	21048804 	addi	r4,r4,4640
  801610:	01402074 	movhi	r5,129
  801614:	297dc904 	addi	r5,r5,-2268
  801618:	01802074 	movhi	r6,129
  80161c:	31848804 	addi	r6,r6,4640
  801620:	08016780 	call	801678 <alt_load_section>

  /*
   * Copy the exception handler.
   */

  alt_load_section (&__flash_exceptions_start, 
  801624:	01002034 	movhi	r4,128
  801628:	21000004 	addi	r4,r4,0
  80162c:	01404434 	movhi	r5,272
  801630:	29500804 	addi	r5,r5,16416
  801634:	01804434 	movhi	r6,272
  801638:	31906f04 	addi	r6,r6,16828
  80163c:	08016780 	call	801678 <alt_load_section>

  /*
   * Copy the .rodata section.
   */

  alt_load_section (&__flash_rodata_start, 
  801640:	01002074 	movhi	r4,129
  801644:	213d0204 	addi	r4,r4,-3064
  801648:	01402074 	movhi	r5,129
  80164c:	297d0204 	addi	r5,r5,-3064
  801650:	01802074 	movhi	r6,129
  801654:	31bdc904 	addi	r6,r6,-2268
  801658:	08016780 	call	801678 <alt_load_section>
  
  /*
   * Now ensure that the caches are in synch.
   */
  
  alt_dcache_flush_all();
  80165c:	080b7300 	call	80b730 <alt_dcache_flush_all>
  alt_icache_flush_all();
  801660:	080b9e80 	call	80b9e8 <alt_icache_flush_all>
}
  801664:	e037883a 	mov	sp,fp
  801668:	dfc00117 	ldw	ra,4(sp)
  80166c:	df000017 	ldw	fp,0(sp)
  801670:	dec00204 	addi	sp,sp,8
  801674:	f800283a 	ret

00801678 <alt_load_section>:
 */

static void ALT_INLINE alt_load_section (alt_u32* from, 
                                         alt_u32* to, 
                                         alt_u32* end)
{
  801678:	defffc04 	addi	sp,sp,-16
  80167c:	df000315 	stw	fp,12(sp)
  801680:	df000304 	addi	fp,sp,12
  801684:	e13ffd15 	stw	r4,-12(fp)
  801688:	e17ffe15 	stw	r5,-8(fp)
  80168c:	e1bfff15 	stw	r6,-4(fp)
  if (to != from)
  801690:	e0fffe17 	ldw	r3,-8(fp)
  801694:	e0bffd17 	ldw	r2,-12(fp)
  801698:	18800e26 	beq	r3,r2,8016d4 <alt_load_section+0x5c>
  {
    while( to != end )
  80169c:	00000a06 	br	8016c8 <alt_load_section+0x50>
    {
      *to++ = *from++;
  8016a0:	e0bffd17 	ldw	r2,-12(fp)
  8016a4:	10c00017 	ldw	r3,0(r2)
  8016a8:	e0bffe17 	ldw	r2,-8(fp)
  8016ac:	10c00015 	stw	r3,0(r2)
  8016b0:	e0bffe17 	ldw	r2,-8(fp)
  8016b4:	10800104 	addi	r2,r2,4
  8016b8:	e0bffe15 	stw	r2,-8(fp)
  8016bc:	e0bffd17 	ldw	r2,-12(fp)
  8016c0:	10800104 	addi	r2,r2,4
  8016c4:	e0bffd15 	stw	r2,-12(fp)
                                         alt_u32* to, 
                                         alt_u32* end)
{
  if (to != from)
  {
    while( to != end )
  8016c8:	e0fffe17 	ldw	r3,-8(fp)
  8016cc:	e0bfff17 	ldw	r2,-4(fp)
  8016d0:	18bff31e 	bne	r3,r2,8016a0 <alt_load_section+0x28>
    {
      *to++ = *from++;
    }
  }
}
  8016d4:	e037883a 	mov	sp,fp
  8016d8:	df000017 	ldw	fp,0(sp)
  8016dc:	dec00104 	addi	sp,sp,4
  8016e0:	f800283a 	ret

008016e4 <alt_main>:
 * devices/filesystems/components in the system; and call the entry point for
 * the users application, i.e. main().
 */

void alt_main (void)
{
  8016e4:	defffb04 	addi	sp,sp,-20
  8016e8:	dfc00415 	stw	ra,16(sp)
  8016ec:	df000315 	stw	fp,12(sp)
  8016f0:	df000304 	addi	fp,sp,12
#endif

  /* ALT LOG - please see HAL/sys/alt_log_printf.h for details */
  ALT_LOG_PRINT_BOOT("[alt_main.c] Entering alt_main, calling alt_irq_init.\r\n");
  /* Initialize the interrupt controller. */
  alt_irq_init (NULL);
  8016f4:	0009883a 	mov	r4,zero
  8016f8:	080a0100 	call	80a010 <alt_irq_init>

  /* Initialize the operating system */
  ALT_LOG_PRINT_BOOT("[alt_main.c] Done alt_irq_init, calling alt_os_init.\r\n");
  ALT_OS_INIT();
  8016fc:	080264c0 	call	80264c <OSInit>
  801700:	01000044 	movi	r4,1
  801704:	08075140 	call	807514 <OSSemCreate>
  801708:	1007883a 	mov	r3,r2
  80170c:	00802074 	movhi	r2,129
  801710:	108b4d04 	addi	r2,r2,11572
  801714:	10c00015 	stw	r3,0(r2)
  801718:	01000044 	movi	r4,1
  80171c:	08075140 	call	807514 <OSSemCreate>
  801720:	1007883a 	mov	r3,r2
  801724:	00802074 	movhi	r2,129
  801728:	108b4f04 	addi	r2,r2,11580
  80172c:	10c00015 	stw	r3,0(r2)
  801730:	00802074 	movhi	r2,129
  801734:	108b6404 	addi	r2,r2,11664
  801738:	e0bffd15 	stw	r2,-12(fp)
  80173c:	00800044 	movi	r2,1
  801740:	e0bffe0d 	sth	r2,-8(fp)
 */

static ALT_INLINE int ALT_ALWAYS_INLINE alt_sem_create (OS_EVENT** sem, 
              INT16U value)
{
  *sem = OSSemCreate (value);
  801744:	e13ffe0b 	ldhu	r4,-8(fp)
  801748:	08075140 	call	807514 <OSSemCreate>
  80174c:	1007883a 	mov	r3,r2
  801750:	e0bffd17 	ldw	r2,-12(fp)
  801754:	10c00015 	stw	r3,0(r2)
  ALT_LOG_PRINT_BOOT("[alt_main.c] Done OS Init, calling alt_sem_create.\r\n");
  ALT_SEM_CREATE (&alt_fd_list_lock, 1);

  /* Initialize the device drivers/software components. */
  ALT_LOG_PRINT_BOOT("[alt_main.c] Calling alt_sys_init.\r\n");
  alt_sys_init();
  801758:	080a0440 	call	80a044 <alt_sys_init>
   * devices be present (not equal to /dev/null) and if direct drivers
   * aren't being used.
   */

    ALT_LOG_PRINT_BOOT("[alt_main.c] Redirecting IO.\r\n");
    alt_io_redirect(ALT_STDOUT, ALT_STDIN, ALT_STDERR);
  80175c:	01002074 	movhi	r4,129
  801760:	213d6c04 	addi	r4,r4,-2640
  801764:	01402074 	movhi	r5,129
  801768:	297d6c04 	addi	r5,r5,-2640
  80176c:	01802074 	movhi	r6,129
  801770:	31bd6c04 	addi	r6,r6,-2640
  801774:	080badc0 	call	80badc <alt_io_redirect>
  /* 
   * Call the C++ constructors 
   */

  ALT_LOG_PRINT_BOOT("[alt_main.c] Calling C++ constructors.\r\n");
  _do_ctors ();
  801778:	080b88c0 	call	80b88c <_do_ctors>
   * redefined as _exit()). This is in the interest of reducing code footprint,
   * in that the atexit() overhead is removed when it's not needed.
   */

  ALT_LOG_PRINT_BOOT("[alt_main.c] Calling atexit.\r\n");
  atexit (_do_dtors);
  80177c:	01002074 	movhi	r4,129
  801780:	212e3c04 	addi	r4,r4,-18192
  801784:	080c7840 	call	80c784 <atexit>
  ALT_LOG_PRINT_BOOT("[alt_main.c] Calling main.\r\n");

#ifdef ALT_NO_EXIT
  main (alt_argc, alt_argv, alt_envp);
#else
  result = main (alt_argc, alt_argv, alt_envp);
  801788:	d126ee17 	ldw	r4,-25672(gp)
  80178c:	d166ef17 	ldw	r5,-25668(gp)
  801790:	d1a6f017 	ldw	r6,-25664(gp)
  801794:	08005cc0 	call	8005cc <main>
  801798:	e0bfff15 	stw	r2,-4(fp)
  close(STDOUT_FILENO);
  80179c:	01000044 	movi	r4,1
  8017a0:	080b5d00 	call	80b5d0 <close>
  exit (result);
  8017a4:	e13fff17 	ldw	r4,-4(fp)
  8017a8:	080c7980 	call	80c798 <exit>

008017ac <alt_printf>:
/* 
 * ALT printf function 
 */
void 
alt_printf(const char* fmt, ... )
{
  8017ac:	defff204 	addi	sp,sp,-56
  8017b0:	dfc00a15 	stw	ra,40(sp)
  8017b4:	df000915 	stw	fp,36(sp)
  8017b8:	df000904 	addi	fp,sp,36
  8017bc:	e1400215 	stw	r5,8(fp)
  8017c0:	e1800315 	stw	r6,12(fp)
  8017c4:	e1c00415 	stw	r7,16(fp)
  8017c8:	e13fff15 	stw	r4,-4(fp)
	va_list args;
	va_start(args, fmt);
  8017cc:	e0800204 	addi	r2,fp,8
  8017d0:	e0bffe15 	stw	r2,-8(fp)
    const char *w;
    char c;

    /* Process format string. */
    w = fmt;
  8017d4:	e0bfff17 	ldw	r2,-4(fp)
  8017d8:	e0bffd15 	stw	r2,-12(fp)
    while ((c = *w++) != 0)
  8017dc:	00007806 	br	8019c0 <alt_printf+0x214>
    {
        /* If not a format escape character, just print  */
        /* character.  Otherwise, process format string. */
        if (c != '%')
  8017e0:	e0bffc07 	ldb	r2,-16(fp)
  8017e4:	10800960 	cmpeqi	r2,r2,37
  8017e8:	1000031e 	bne	r2,zero,8017f8 <alt_printf+0x4c>
        {
            alt_putchar(c);
  8017ec:	e13ffc07 	ldb	r4,-16(fp)
  8017f0:	0801a040 	call	801a04 <alt_putchar>
  8017f4:	00007206 	br	8019c0 <alt_printf+0x214>
        }
        else
        {
            /* Get format character.  If none     */
            /* available, processing is complete. */
            if ((c = *w++) != 0)
  8017f8:	e0bffd17 	ldw	r2,-12(fp)
  8017fc:	10800003 	ldbu	r2,0(r2)
  801800:	e0bffc05 	stb	r2,-16(fp)
  801804:	e0bffc07 	ldb	r2,-16(fp)
  801808:	1004c03a 	cmpne	r2,r2,zero
  80180c:	1007883a 	mov	r3,r2
  801810:	e0bffd17 	ldw	r2,-12(fp)
  801814:	10800044 	addi	r2,r2,1
  801818:	e0bffd15 	stw	r2,-12(fp)
  80181c:	18803fcc 	andi	r2,r3,255
  801820:	1005003a 	cmpeq	r2,r2,zero
  801824:	1000721e 	bne	r2,zero,8019f0 <alt_printf+0x244>
            {
                if (c == '%')
  801828:	e0bffc07 	ldb	r2,-16(fp)
  80182c:	10800958 	cmpnei	r2,r2,37
  801830:	1000031e 	bne	r2,zero,801840 <alt_printf+0x94>
                {
                    /* Process "%" escape sequence. */
                    alt_putchar(c);
  801834:	e13ffc07 	ldb	r4,-16(fp)
  801838:	0801a040 	call	801a04 <alt_putchar>
  80183c:	00006006 	br	8019c0 <alt_printf+0x214>
                } 
                else if (c == 'c')
  801840:	e0bffc07 	ldb	r2,-16(fp)
  801844:	108018d8 	cmpnei	r2,r2,99
  801848:	1000091e 	bne	r2,zero,801870 <alt_printf+0xc4>
                {
                    int v = va_arg(args, int);
  80184c:	e0fffe17 	ldw	r3,-8(fp)
  801850:	18800104 	addi	r2,r3,4
  801854:	e0bffe15 	stw	r2,-8(fp)
  801858:	1805883a 	mov	r2,r3
  80185c:	10800017 	ldw	r2,0(r2)
  801860:	e0bffb15 	stw	r2,-20(fp)
                    alt_putchar(v);
  801864:	e13ffb17 	ldw	r4,-20(fp)
  801868:	0801a040 	call	801a04 <alt_putchar>
  80186c:	00005406 	br	8019c0 <alt_printf+0x214>
                }
                else if (c == 'x')
  801870:	e0bffc07 	ldb	r2,-16(fp)
  801874:	10801e18 	cmpnei	r2,r2,120
  801878:	1000371e 	bne	r2,zero,801958 <alt_printf+0x1ac>
                {
                    /* Process hexadecimal number format. */
                    unsigned long v = va_arg(args, unsigned long);
  80187c:	e0fffe17 	ldw	r3,-8(fp)
  801880:	18800104 	addi	r2,r3,4
  801884:	e0bffe15 	stw	r2,-8(fp)
  801888:	1805883a 	mov	r2,r3
  80188c:	10800017 	ldw	r2,0(r2)
  801890:	e0bffa15 	stw	r2,-24(fp)
                    unsigned long digit;
                    int digit_shift;

                    /* If the number value is zero, just print and continue. */
                    if (v == 0)
  801894:	e0bffa17 	ldw	r2,-24(fp)
  801898:	1004c03a 	cmpne	r2,r2,zero
  80189c:	1000031e 	bne	r2,zero,8018ac <alt_printf+0x100>
                    {
                        alt_putchar('0');
  8018a0:	01000c04 	movi	r4,48
  8018a4:	0801a040 	call	801a04 <alt_putchar>
                        continue;
  8018a8:	00004506 	br	8019c0 <alt_printf+0x214>
                    }

                    /* Find first non-zero digit. */
                    digit_shift = 28;
  8018ac:	00800704 	movi	r2,28
  8018b0:	e0bff815 	stw	r2,-32(fp)
                    while (!(v & (0xF << digit_shift)))
  8018b4:	00000306 	br	8018c4 <alt_printf+0x118>
                        digit_shift -= 4;
  8018b8:	e0bff817 	ldw	r2,-32(fp)
  8018bc:	10bfff04 	addi	r2,r2,-4
  8018c0:	e0bff815 	stw	r2,-32(fp)
                        continue;
                    }

                    /* Find first non-zero digit. */
                    digit_shift = 28;
                    while (!(v & (0xF << digit_shift)))
  8018c4:	00c003c4 	movi	r3,15
  8018c8:	e0bff817 	ldw	r2,-32(fp)
  8018cc:	1884983a 	sll	r2,r3,r2
  8018d0:	1007883a 	mov	r3,r2
  8018d4:	e0bffa17 	ldw	r2,-24(fp)
  8018d8:	1884703a 	and	r2,r3,r2
  8018dc:	1005003a 	cmpeq	r2,r2,zero
  8018e0:	103ff51e 	bne	r2,zero,8018b8 <alt_printf+0x10c>
                        digit_shift -= 4;

                    /* Print digits. */
                    for (; digit_shift >= 0; digit_shift -= 4)
  8018e4:	00001806 	br	801948 <alt_printf+0x19c>
                    {
                        digit = (v & (0xF << digit_shift)) >> digit_shift;
  8018e8:	00c003c4 	movi	r3,15
  8018ec:	e0bff817 	ldw	r2,-32(fp)
  8018f0:	1884983a 	sll	r2,r3,r2
  8018f4:	1007883a 	mov	r3,r2
  8018f8:	e0bffa17 	ldw	r2,-24(fp)
  8018fc:	1886703a 	and	r3,r3,r2
  801900:	e0bff817 	ldw	r2,-32(fp)
  801904:	1884d83a 	srl	r2,r3,r2
  801908:	e0bff915 	stw	r2,-28(fp)
                        if (digit <= 9)
  80190c:	e0bff917 	ldw	r2,-28(fp)
  801910:	108002a8 	cmpgeui	r2,r2,10
  801914:	1000041e 	bne	r2,zero,801928 <alt_printf+0x17c>
                            c = '0' + digit;
  801918:	e0bff917 	ldw	r2,-28(fp)
  80191c:	10800c04 	addi	r2,r2,48
  801920:	e0bffc05 	stb	r2,-16(fp)
  801924:	00000306 	br	801934 <alt_printf+0x188>
                        else
                            c = 'a' + digit - 10;
  801928:	e0bff917 	ldw	r2,-28(fp)
  80192c:	108015c4 	addi	r2,r2,87
  801930:	e0bffc05 	stb	r2,-16(fp)
                        alt_putchar(c);
  801934:	e13ffc07 	ldb	r4,-16(fp)
  801938:	0801a040 	call	801a04 <alt_putchar>
                    digit_shift = 28;
                    while (!(v & (0xF << digit_shift)))
                        digit_shift -= 4;

                    /* Print digits. */
                    for (; digit_shift >= 0; digit_shift -= 4)
  80193c:	e0bff817 	ldw	r2,-32(fp)
  801940:	10bfff04 	addi	r2,r2,-4
  801944:	e0bff815 	stw	r2,-32(fp)
  801948:	e0bff817 	ldw	r2,-32(fp)
  80194c:	1004403a 	cmpge	r2,r2,zero
  801950:	103fe51e 	bne	r2,zero,8018e8 <alt_printf+0x13c>
  801954:	00001a06 	br	8019c0 <alt_printf+0x214>
                        else
                            c = 'a' + digit - 10;
                        alt_putchar(c);
                    }
                }
                else if (c == 's')
  801958:	e0bffc07 	ldb	r2,-16(fp)
  80195c:	10801cd8 	cmpnei	r2,r2,115
  801960:	1000171e 	bne	r2,zero,8019c0 <alt_printf+0x214>
                {
                    /* Process string format. */
                    char *s = va_arg(args, char *);
  801964:	e0fffe17 	ldw	r3,-8(fp)
  801968:	18800104 	addi	r2,r3,4
  80196c:	e0bffe15 	stw	r2,-8(fp)
  801970:	1805883a 	mov	r2,r3
  801974:	10800017 	ldw	r2,0(r2)
  801978:	e0bff715 	stw	r2,-36(fp)

                    while(*s)
  80197c:	00000906 	br	8019a4 <alt_printf+0x1f8>
                      alt_putchar(*s++);
  801980:	e0bff717 	ldw	r2,-36(fp)
  801984:	10800003 	ldbu	r2,0(r2)
  801988:	11003fcc 	andi	r4,r2,255
  80198c:	2100201c 	xori	r4,r4,128
  801990:	213fe004 	addi	r4,r4,-128
  801994:	e0bff717 	ldw	r2,-36(fp)
  801998:	10800044 	addi	r2,r2,1
  80199c:	e0bff715 	stw	r2,-36(fp)
  8019a0:	0801a040 	call	801a04 <alt_putchar>
                else if (c == 's')
                {
                    /* Process string format. */
                    char *s = va_arg(args, char *);

                    while(*s)
  8019a4:	e0bff717 	ldw	r2,-36(fp)
  8019a8:	10800003 	ldbu	r2,0(r2)
  8019ac:	10803fcc 	andi	r2,r2,255
  8019b0:	1080201c 	xori	r2,r2,128
  8019b4:	10bfe004 	addi	r2,r2,-128
  8019b8:	1004c03a 	cmpne	r2,r2,zero
  8019bc:	103ff01e 	bne	r2,zero,801980 <alt_printf+0x1d4>
    const char *w;
    char c;

    /* Process format string. */
    w = fmt;
    while ((c = *w++) != 0)
  8019c0:	e0bffd17 	ldw	r2,-12(fp)
  8019c4:	10800003 	ldbu	r2,0(r2)
  8019c8:	e0bffc05 	stb	r2,-16(fp)
  8019cc:	e0bffc07 	ldb	r2,-16(fp)
  8019d0:	1004c03a 	cmpne	r2,r2,zero
  8019d4:	1007883a 	mov	r3,r2
  8019d8:	e0bffd17 	ldw	r2,-12(fp)
  8019dc:	10800044 	addi	r2,r2,1
  8019e0:	e0bffd15 	stw	r2,-12(fp)
  8019e4:	18803fcc 	andi	r2,r3,255
  8019e8:	1004c03a 	cmpne	r2,r2,zero
  8019ec:	103f7c1e 	bne	r2,zero,8017e0 <alt_printf+0x34>
            {
                break;
            }
        }
    }
}
  8019f0:	e037883a 	mov	sp,fp
  8019f4:	dfc00117 	ldw	ra,4(sp)
  8019f8:	df000017 	ldw	fp,0(sp)
  8019fc:	dec00504 	addi	sp,sp,20
  801a00:	f800283a 	ret

00801a04 <alt_putchar>:
 * Uses the ALT_DRIVER_WRITE() macro to call directly to driver if available.
 * Otherwise, uses newlib provided putchar() routine.
 */
int 
alt_putchar(int c)
{
  801a04:	defffd04 	addi	sp,sp,-12
  801a08:	dfc00215 	stw	ra,8(sp)
  801a0c:	df000115 	stw	fp,4(sp)
  801a10:	df000104 	addi	fp,sp,4
  801a14:	e13fff15 	stw	r4,-4(fp)
    if (ALT_DRIVER_WRITE(ALT_STDOUT_DEV, &c1, 1, 0) == -1) {
        return -1;
    }
    return c;
#else
    return putchar(c);
  801a18:	00802074 	movhi	r2,129
  801a1c:	10848304 	addi	r2,r2,4620
  801a20:	10800017 	ldw	r2,0(r2)
  801a24:	11400217 	ldw	r5,8(r2)
  801a28:	e13fff17 	ldw	r4,-4(fp)
  801a2c:	080c97c0 	call	80c97c <putc>
#endif
}
  801a30:	e037883a 	mov	sp,fp
  801a34:	dfc00117 	ldw	ra,4(sp)
  801a38:	df000017 	ldw	fp,0(sp)
  801a3c:	dec00204 	addi	sp,sp,8
  801a40:	f800283a 	ret

00801a44 <__env_lock>:
/*
 *
 */

void __env_lock ( struct _reent *_r )
{
  801a44:	deffdf04 	addi	sp,sp,-132
  801a48:	dfc02015 	stw	ra,128(sp)
  801a4c:	df001f15 	stw	fp,124(sp)
  801a50:	df001f04 	addi	fp,sp,124
  801a54:	e13fff15 	stw	r4,-4(fp)
  INT8U err;
  int id;

  /* use our priority as a task id */

  err = OSTaskQuery( OS_PRIO_SELF, &tcb );
  801a58:	e17fe204 	addi	r5,fp,-120
  801a5c:	01003fc4 	movi	r4,255
  801a60:	080989c0 	call	80989c <OSTaskQuery>
  801a64:	e0bffe85 	stb	r2,-6(fp)
  if (err != OS_NO_ERR)
  801a68:	e0bffe83 	ldbu	r2,-6(fp)
  801a6c:	10803fcc 	andi	r2,r2,255
  801a70:	1004c03a 	cmpne	r2,r2,zero
  801a74:	1000191e 	bne	r2,zero,801adc <__env_lock+0x98>
    return;

  id = tcb.OSTCBPrio;
  801a78:	e0bfee83 	ldbu	r2,-70(fp)
  801a7c:	10803fcc 	andi	r2,r2,255
  801a80:	e0bfe115 	stw	r2,-124(fp)
   
  /* see if we own the environment already */

  OSSemQuery( alt_envsem, &semdata );
  801a84:	d126f217 	ldw	r4,-25656(gp)
  801a88:	e17ffd04 	addi	r5,fp,-12
  801a8c:	0807de80 	call	807de8 <OSSemQuery>
  if( semdata.OSEventGrp && id == lockid ) 
  801a90:	e0bffe43 	ldbu	r2,-7(fp)
  801a94:	10803fcc 	andi	r2,r2,255
  801a98:	1005003a 	cmpeq	r2,r2,zero
  801a9c:	1000071e 	bne	r2,zero,801abc <__env_lock+0x78>
  801aa0:	d0e00117 	ldw	r3,-32764(gp)
  801aa4:	e0bfe117 	ldw	r2,-124(fp)
  801aa8:	10c0041e 	bne	r2,r3,801abc <__env_lock+0x78>
  {
    /* we do; just count the recursion */

    locks++;
  801aac:	d0a6f117 	ldw	r2,-25660(gp)
  801ab0:	10800044 	addi	r2,r2,1
  801ab4:	d0a6f115 	stw	r2,-25660(gp)
  id = tcb.OSTCBPrio;
   
  /* see if we own the environment already */

  OSSemQuery( alt_envsem, &semdata );
  if( semdata.OSEventGrp && id == lockid ) 
  801ab8:	00000806 	br	801adc <__env_lock+0x98>
  }
  else 
  {
    /* wait on the other task to yield, then claim ownership */

    OSSemPend( alt_envsem, 0, &err );
  801abc:	d126f217 	ldw	r4,-25656(gp)
  801ac0:	e1bffe84 	addi	r6,fp,-6
  801ac4:	000b883a 	mov	r5,zero
  801ac8:	08078c80 	call	8078c8 <OSSemPend>
    locks  = 1;
  801acc:	00800044 	movi	r2,1
  801ad0:	d0a6f115 	stw	r2,-25660(gp)
    lockid = id;
  801ad4:	e0bfe117 	ldw	r2,-124(fp)
  801ad8:	d0a00115 	stw	r2,-32764(gp)
  }

#endif /* OS_THREAD_SAFE_NEWLIB */
  return;
}
  801adc:	e037883a 	mov	sp,fp
  801ae0:	dfc00117 	ldw	ra,4(sp)
  801ae4:	df000017 	ldw	fp,0(sp)
  801ae8:	dec00204 	addi	sp,sp,8
  801aec:	f800283a 	ret

00801af0 <__env_unlock>:
/*
 *
 */

void __env_unlock ( struct _reent *_r )
{
  801af0:	defffd04 	addi	sp,sp,-12
  801af4:	dfc00215 	stw	ra,8(sp)
  801af8:	df000115 	stw	fp,4(sp)
  801afc:	df000104 	addi	fp,sp,4
  801b00:	e13fff15 	stw	r4,-4(fp)
#if OS_THREAD_SAFE_NEWLIB
  if (locks == 0)
  801b04:	d0a6f117 	ldw	r2,-25660(gp)
  801b08:	1005003a 	cmpeq	r2,r2,zero
  801b0c:	10000a1e 	bne	r2,zero,801b38 <__env_unlock+0x48>
   /* 
    * release the environment once the number of locks == the number 
    * of unlocks 
    */

  if( (--locks) == 0 ) 
  801b10:	d0a6f117 	ldw	r2,-25660(gp)
  801b14:	10bfffc4 	addi	r2,r2,-1
  801b18:	d0a6f115 	stw	r2,-25660(gp)
  801b1c:	d0a6f117 	ldw	r2,-25660(gp)
  801b20:	1004c03a 	cmpne	r2,r2,zero
  801b24:	1000041e 	bne	r2,zero,801b38 <__env_unlock+0x48>
  {
    lockid = -1;
  801b28:	00bfffc4 	movi	r2,-1
  801b2c:	d0a00115 	stw	r2,-32764(gp)
    OSSemPost( alt_envsem );
  801b30:	d126f217 	ldw	r4,-25656(gp)
  801b34:	0807cc00 	call	807cc0 <OSSemPost>
  }
#endif /* OS_THREAD_SAFE_NEWLIB */
}
  801b38:	e037883a 	mov	sp,fp
  801b3c:	dfc00117 	ldw	ra,4(sp)
  801b40:	df000017 	ldw	fp,0(sp)
  801b44:	dec00204 	addi	sp,sp,8
  801b48:	f800283a 	ret

00801b4c <__malloc_lock>:
/*
 *
 */

void __malloc_lock ( struct _reent *_r )
{
  801b4c:	deffdb04 	addi	sp,sp,-148
  801b50:	dfc02415 	stw	ra,144(sp)
  801b54:	df002315 	stw	fp,140(sp)
  801b58:	df002304 	addi	fp,sp,140
  801b5c:	e13fff15 	stw	r4,-4(fp)
  OS_TCB tcb;
  OS_SEM_DATA semdata;
  INT8U err;
  int id;
#if OS_CRITICAL_METHOD == 3                      /* Allocate storage for CPU status register           */
    OS_CPU_SR  cpu_sr = 0;
  801b60:	e03fe015 	stw	zero,-128(fp)
#endif  
  
  if (OSRunning != OS_TRUE)
  801b64:	00802074 	movhi	r2,129
  801b68:	108b5044 	addi	r2,r2,11585
  801b6c:	10800003 	ldbu	r2,0(r2)
  801b70:	10803fcc 	andi	r2,r2,255
  801b74:	10800058 	cmpnei	r2,r2,1
  801b78:	1000311e 	bne	r2,zero,801c40 <__malloc_lock+0xf4>
      return;

  /* use our priority as a task id */

  err = OSTaskQuery( OS_PRIO_SELF, &tcb );
  801b7c:	e17fe204 	addi	r5,fp,-120
  801b80:	01003fc4 	movi	r4,255
  801b84:	080989c0 	call	80989c <OSTaskQuery>
  801b88:	e0bffe85 	stb	r2,-6(fp)
  if (err != OS_NO_ERR)
  801b8c:	e0bffe83 	ldbu	r2,-6(fp)
  801b90:	10803fcc 	andi	r2,r2,255
  801b94:	1004c03a 	cmpne	r2,r2,zero
  801b98:	1000291e 	bne	r2,zero,801c40 <__malloc_lock+0xf4>
    return;

  id = tcb.OSTCBPrio;
  801b9c:	e0bfee83 	ldbu	r2,-70(fp)
  801ba0:	10803fcc 	andi	r2,r2,255
  801ba4:	e0bfe115 	stw	r2,-124(fp)
   
  /* see if we own the heap already */

  OSSemQuery( alt_heapsem, &semdata );
  801ba8:	d126f417 	ldw	r4,-25648(gp)
  801bac:	e17ffd04 	addi	r5,fp,-12
  801bb0:	0807de80 	call	807de8 <OSSemQuery>
static ALT_INLINE alt_irq_context ALT_ALWAYS_INLINE 
       alt_irq_disable_all (void)
{
  alt_irq_context context;

  NIOS2_READ_STATUS (context);
  801bb4:	0005303a 	rdctl	r2,status
  801bb8:	e0bfdf15 	stw	r2,-132(fp)

  NIOS2_WRITE_STATUS (context & ~NIOS2_STATUS_PIE_MSK);
  801bbc:	e0ffdf17 	ldw	r3,-132(fp)
  801bc0:	00bfff84 	movi	r2,-2
  801bc4:	1884703a 	and	r2,r3,r2
  801bc8:	1001703a 	wrctl	status,r2
  
  return context;
  801bcc:	e0bfdf17 	ldw	r2,-132(fp)
  
  OS_ENTER_CRITICAL();
  801bd0:	e0bfe015 	stw	r2,-128(fp)

  if( !semdata.OSCnt && id == lockid ) 
  801bd4:	e0bffd0b 	ldhu	r2,-12(fp)
  801bd8:	10bfffcc 	andi	r2,r2,65535
  801bdc:	1004c03a 	cmpne	r2,r2,zero
  801be0:	10000b1e 	bne	r2,zero,801c10 <__malloc_lock+0xc4>
  801be4:	d0e00217 	ldw	r3,-32760(gp)
  801be8:	e0bfe117 	ldw	r2,-124(fp)
  801bec:	10c0081e 	bne	r2,r3,801c10 <__malloc_lock+0xc4>
  {
    /* we do; just count the recursion */
    locks++;
  801bf0:	d0a6f317 	ldw	r2,-25652(gp)
  801bf4:	10800044 	addi	r2,r2,1
  801bf8:	d0a6f315 	stw	r2,-25652(gp)
  801bfc:	e0bfe017 	ldw	r2,-128(fp)
  801c00:	e0bfde15 	stw	r2,-136(fp)
  status &= ~NIOS2_STATUS_PIE_MSK;
  status |= (context & NIOS2_STATUS_PIE_MSK);
  
  NIOS2_WRITE_STATUS (status);
#else
  NIOS2_WRITE_STATUS (context);
  801c04:	e0bfde17 	ldw	r2,-136(fp)
  801c08:	1001703a 	wrctl	status,r2

  OSSemQuery( alt_heapsem, &semdata );
  
  OS_ENTER_CRITICAL();

  if( !semdata.OSCnt && id == lockid ) 
  801c0c:	00000c06 	br	801c40 <__malloc_lock+0xf4>
  801c10:	e0bfe017 	ldw	r2,-128(fp)
  801c14:	e0bfdd15 	stw	r2,-140(fp)
  801c18:	e0bfdd17 	ldw	r2,-140(fp)
  801c1c:	1001703a 	wrctl	status,r2
  else 
  {
    /* wait on the other task to yield the heap, then claim ownership of it */
    OS_EXIT_CRITICAL();

    OSSemPend( alt_heapsem, 0, &err );
  801c20:	d126f417 	ldw	r4,-25648(gp)
  801c24:	e1bffe84 	addi	r6,fp,-6
  801c28:	000b883a 	mov	r5,zero
  801c2c:	08078c80 	call	8078c8 <OSSemPend>
    locks  = 1;
  801c30:	00800044 	movi	r2,1
  801c34:	d0a6f315 	stw	r2,-25652(gp)
    lockid = id;
  801c38:	e0bfe117 	ldw	r2,-124(fp)
  801c3c:	d0a00215 	stw	r2,-32760(gp)
  }

#endif /* OS_THREAD_SAFE_NEWLIB */
  return;
}
  801c40:	e037883a 	mov	sp,fp
  801c44:	dfc00117 	ldw	ra,4(sp)
  801c48:	df000017 	ldw	fp,0(sp)
  801c4c:	dec00204 	addi	sp,sp,8
  801c50:	f800283a 	ret

00801c54 <__malloc_unlock>:
/*
 *
 */

void __malloc_unlock ( struct _reent *_r )
{
  801c54:	defff804 	addi	sp,sp,-32
  801c58:	dfc00715 	stw	ra,28(sp)
  801c5c:	df000615 	stw	fp,24(sp)
  801c60:	df000604 	addi	fp,sp,24
  801c64:	e13fff15 	stw	r4,-4(fp)
#if OS_THREAD_SAFE_NEWLIB

#if OS_CRITICAL_METHOD == 3                      /* Allocate storage for CPU status register           */
    OS_CPU_SR  cpu_sr = 0;
  801c68:	e03ffe15 	stw	zero,-8(fp)
#endif 

  if (OSRunning != OS_TRUE)
  801c6c:	00802074 	movhi	r2,129
  801c70:	108b5044 	addi	r2,r2,11585
  801c74:	10800003 	ldbu	r2,0(r2)
  801c78:	10803fcc 	andi	r2,r2,255
  801c7c:	10800058 	cmpnei	r2,r2,1
  801c80:	1000231e 	bne	r2,zero,801d10 <__malloc_unlock+0xbc>
static ALT_INLINE alt_irq_context ALT_ALWAYS_INLINE 
       alt_irq_disable_all (void)
{
  alt_irq_context context;

  NIOS2_READ_STATUS (context);
  801c84:	0005303a 	rdctl	r2,status
  801c88:	e0bffd15 	stw	r2,-12(fp)

  NIOS2_WRITE_STATUS (context & ~NIOS2_STATUS_PIE_MSK);
  801c8c:	e0fffd17 	ldw	r3,-12(fp)
  801c90:	00bfff84 	movi	r2,-2
  801c94:	1884703a 	and	r2,r3,r2
  801c98:	1001703a 	wrctl	status,r2
  
  return context;
  801c9c:	e0bffd17 	ldw	r2,-12(fp)
      return;

  OS_ENTER_CRITICAL();
  801ca0:	e0bffe15 	stw	r2,-8(fp)
  if (locks == 0)
  801ca4:	d0a6f317 	ldw	r2,-25652(gp)
  801ca8:	1004c03a 	cmpne	r2,r2,zero
  801cac:	1000051e 	bne	r2,zero,801cc4 <__malloc_unlock+0x70>
  801cb0:	e0bffe17 	ldw	r2,-8(fp)
  801cb4:	e0bffc15 	stw	r2,-16(fp)
  status &= ~NIOS2_STATUS_PIE_MSK;
  status |= (context & NIOS2_STATUS_PIE_MSK);
  
  NIOS2_WRITE_STATUS (status);
#else
  NIOS2_WRITE_STATUS (context);
  801cb8:	e0bffc17 	ldw	r2,-16(fp)
  801cbc:	1001703a 	wrctl	status,r2
  {
      OS_EXIT_CRITICAL();
      return;
  801cc0:	00001306 	br	801d10 <__malloc_unlock+0xbc>
  }

  /* release the heap once the number of locks == the number of unlocks */
  if( (--locks) == 0 ) 
  801cc4:	d0a6f317 	ldw	r2,-25652(gp)
  801cc8:	10bfffc4 	addi	r2,r2,-1
  801ccc:	d0a6f315 	stw	r2,-25652(gp)
  801cd0:	d0a6f317 	ldw	r2,-25652(gp)
  801cd4:	1004c03a 	cmpne	r2,r2,zero
  801cd8:	1000091e 	bne	r2,zero,801d00 <__malloc_unlock+0xac>
  {
    lockid = -1;
  801cdc:	00bfffc4 	movi	r2,-1
  801ce0:	d0a00215 	stw	r2,-32760(gp)
  801ce4:	e0bffe17 	ldw	r2,-8(fp)
  801ce8:	e0bffb15 	stw	r2,-20(fp)
  801cec:	e0bffb17 	ldw	r2,-20(fp)
  801cf0:	1001703a 	wrctl	status,r2
    OS_EXIT_CRITICAL();
    OSSemPost( alt_heapsem );
  801cf4:	d126f417 	ldw	r4,-25648(gp)
  801cf8:	0807cc00 	call	807cc0 <OSSemPost>
  801cfc:	00000406 	br	801d10 <__malloc_unlock+0xbc>
  801d00:	e0bffe17 	ldw	r2,-8(fp)
  801d04:	e0bffa15 	stw	r2,-24(fp)
  801d08:	e0bffa17 	ldw	r2,-24(fp)
  801d0c:	1001703a 	wrctl	status,r2
  {
      OS_EXIT_CRITICAL();
  }
  
#endif /* OS_THREAD_SAFE_NEWLIB */
}
  801d10:	e037883a 	mov	sp,fp
  801d14:	dfc00117 	ldw	ra,4(sp)
  801d18:	df000017 	ldw	fp,0(sp)
  801d1c:	dec00204 	addi	sp,sp,8
  801d20:	f800283a 	ret

00801d24 <OSEventNameGet>:
*********************************************************************************************************
*/

#if (OS_EVENT_EN) && (OS_EVENT_NAME_SIZE > 1)
INT8U  OSEventNameGet (OS_EVENT *pevent, INT8U *pname, INT8U *perr)
{
  801d24:	defff604 	addi	sp,sp,-40
  801d28:	dfc00915 	stw	ra,36(sp)
  801d2c:	df000815 	stw	fp,32(sp)
  801d30:	df000804 	addi	fp,sp,32
  801d34:	e13ffc15 	stw	r4,-16(fp)
  801d38:	e17ffd15 	stw	r5,-12(fp)
  801d3c:	e1bffe15 	stw	r6,-8(fp)
    INT8U      len;
#if OS_CRITICAL_METHOD == 3                      /* Allocate storage for CPU status register           */
    OS_CPU_SR  cpu_sr = 0;
  801d40:	e03ffa15 	stw	zero,-24(fp)
#endif



#if OS_ARG_CHK_EN > 0
    if (perr == (INT8U *)0) {                    /* Validate 'perr'                                    */
  801d44:	e0bffe17 	ldw	r2,-8(fp)
  801d48:	1004c03a 	cmpne	r2,r2,zero
  801d4c:	1000021e 	bne	r2,zero,801d58 <OSEventNameGet+0x34>
        return (0);
  801d50:	e03fff15 	stw	zero,-4(fp)
  801d54:	00003906 	br	801e3c <OSEventNameGet+0x118>
    }
    if (pevent == (OS_EVENT *)0) {               /* Is 'pevent' a NULL pointer?                        */
  801d58:	e0bffc17 	ldw	r2,-16(fp)
  801d5c:	1004c03a 	cmpne	r2,r2,zero
  801d60:	1000051e 	bne	r2,zero,801d78 <OSEventNameGet+0x54>
        *perr = OS_ERR_PEVENT_NULL;
  801d64:	e0fffe17 	ldw	r3,-8(fp)
  801d68:	00800104 	movi	r2,4
  801d6c:	18800005 	stb	r2,0(r3)
        return (0);
  801d70:	e03fff15 	stw	zero,-4(fp)
  801d74:	00003106 	br	801e3c <OSEventNameGet+0x118>
    }
    if (pname == (INT8U *)0) {                   /* Is 'pname' a NULL pointer?                         */
  801d78:	e0bffd17 	ldw	r2,-12(fp)
  801d7c:	1004c03a 	cmpne	r2,r2,zero
  801d80:	1000051e 	bne	r2,zero,801d98 <OSEventNameGet+0x74>
        *perr = OS_ERR_PNAME_NULL;
  801d84:	e0fffe17 	ldw	r3,-8(fp)
  801d88:	00800304 	movi	r2,12
  801d8c:	18800005 	stb	r2,0(r3)
        return (0);
  801d90:	e03fff15 	stw	zero,-4(fp)
  801d94:	00002906 	br	801e3c <OSEventNameGet+0x118>
    }
#endif
    if (OSIntNesting > 0) {                      /* See if trying to call from an ISR                  */
  801d98:	d0a70303 	ldbu	r2,-25588(gp)
  801d9c:	10803fcc 	andi	r2,r2,255
  801da0:	1005003a 	cmpeq	r2,r2,zero
  801da4:	1000051e 	bne	r2,zero,801dbc <OSEventNameGet+0x98>
        *perr  = OS_ERR_NAME_GET_ISR;
  801da8:	e0fffe17 	ldw	r3,-8(fp)
  801dac:	00800444 	movi	r2,17
  801db0:	18800005 	stb	r2,0(r3)
        return (0);
  801db4:	e03fff15 	stw	zero,-4(fp)
  801db8:	00002006 	br	801e3c <OSEventNameGet+0x118>
    }
    switch (pevent->OSEventType) {
  801dbc:	e0bffc17 	ldw	r2,-16(fp)
  801dc0:	10800003 	ldbu	r2,0(r2)
  801dc4:	10803fcc 	andi	r2,r2,255
  801dc8:	10bfffc4 	addi	r2,r2,-1
  801dcc:	10800128 	cmpgeui	r2,r2,4
  801dd0:	1000161e 	bne	r2,zero,801e2c <OSEventNameGet+0x108>
static ALT_INLINE alt_irq_context ALT_ALWAYS_INLINE 
       alt_irq_disable_all (void)
{
  alt_irq_context context;

  NIOS2_READ_STATUS (context);
  801dd4:	0005303a 	rdctl	r2,status
  801dd8:	e0bff915 	stw	r2,-28(fp)

  NIOS2_WRITE_STATUS (context & ~NIOS2_STATUS_PIE_MSK);
  801ddc:	e0fff917 	ldw	r3,-28(fp)
  801de0:	00bfff84 	movi	r2,-2
  801de4:	1884703a 	and	r2,r3,r2
  801de8:	1001703a 	wrctl	status,r2
  
  return context;
  801dec:	e0bff917 	ldw	r2,-28(fp)

        default:
             *perr = OS_ERR_EVENT_TYPE;
             return (0);
    }
    OS_ENTER_CRITICAL();
  801df0:	e0bffa15 	stw	r2,-24(fp)
    len   = OS_StrCopy(pname, pevent->OSEventName);   /* Copy name from OS_EVENT                       */
  801df4:	e0bffc17 	ldw	r2,-16(fp)
  801df8:	11400384 	addi	r5,r2,14
  801dfc:	e13ffd17 	ldw	r4,-12(fp)
  801e00:	08038a80 	call	8038a8 <OS_StrCopy>
  801e04:	e0bffb05 	stb	r2,-20(fp)
  801e08:	e0bffa17 	ldw	r2,-24(fp)
  801e0c:	e0bff815 	stw	r2,-32(fp)
  status &= ~NIOS2_STATUS_PIE_MSK;
  status |= (context & NIOS2_STATUS_PIE_MSK);
  
  NIOS2_WRITE_STATUS (status);
#else
  NIOS2_WRITE_STATUS (context);
  801e10:	e0bff817 	ldw	r2,-32(fp)
  801e14:	1001703a 	wrctl	status,r2
    OS_EXIT_CRITICAL();
    *perr = OS_ERR_NONE;
  801e18:	e0bffe17 	ldw	r2,-8(fp)
  801e1c:	10000005 	stb	zero,0(r2)
    return (len);
  801e20:	e0bffb03 	ldbu	r2,-20(fp)
  801e24:	e0bfff15 	stw	r2,-4(fp)
  801e28:	00000406 	br	801e3c <OSEventNameGet+0x118>
        case OS_EVENT_TYPE_MBOX:
        case OS_EVENT_TYPE_Q:
             break;

        default:
             *perr = OS_ERR_EVENT_TYPE;
  801e2c:	e0fffe17 	ldw	r3,-8(fp)
  801e30:	00800044 	movi	r2,1
  801e34:	18800005 	stb	r2,0(r3)
             return (0);
  801e38:	e03fff15 	stw	zero,-4(fp)
  801e3c:	e0bfff17 	ldw	r2,-4(fp)
    OS_ENTER_CRITICAL();
    len   = OS_StrCopy(pname, pevent->OSEventName);   /* Copy name from OS_EVENT                       */
    OS_EXIT_CRITICAL();
    *perr = OS_ERR_NONE;
    return (len);
}
  801e40:	e037883a 	mov	sp,fp
  801e44:	dfc00117 	ldw	ra,4(sp)
  801e48:	df000017 	ldw	fp,0(sp)
  801e4c:	dec00204 	addi	sp,sp,8
  801e50:	f800283a 	ret

00801e54 <OSEventNameSet>:
*********************************************************************************************************
*/

#if (OS_EVENT_EN) && (OS_EVENT_NAME_SIZE > 1)
void  OSEventNameSet (OS_EVENT *pevent, INT8U *pname, INT8U *perr)
{
  801e54:	defff604 	addi	sp,sp,-40
  801e58:	dfc00915 	stw	ra,36(sp)
  801e5c:	df000815 	stw	fp,32(sp)
  801e60:	df000804 	addi	fp,sp,32
  801e64:	e13ffd15 	stw	r4,-12(fp)
  801e68:	e17ffe15 	stw	r5,-8(fp)
  801e6c:	e1bfff15 	stw	r6,-4(fp)
    INT8U      len;
#if OS_CRITICAL_METHOD == 3                      /* Allocate storage for CPU status register           */
    OS_CPU_SR  cpu_sr = 0;
  801e70:	e03ffb15 	stw	zero,-20(fp)
#endif



#if OS_ARG_CHK_EN > 0
    if (perr == (INT8U *)0) {                    /* Validate 'perr'                                    */
  801e74:	e0bfff17 	ldw	r2,-4(fp)
  801e78:	1005003a 	cmpeq	r2,r2,zero
  801e7c:	1000411e 	bne	r2,zero,801f84 <OSEventNameSet+0x130>
        return;
    }
    if (pevent == (OS_EVENT *)0) {               /* Is 'pevent' a NULL pointer?                        */
  801e80:	e0bffd17 	ldw	r2,-12(fp)
  801e84:	1004c03a 	cmpne	r2,r2,zero
  801e88:	1000041e 	bne	r2,zero,801e9c <OSEventNameSet+0x48>
        *perr = OS_ERR_PEVENT_NULL;
  801e8c:	e0ffff17 	ldw	r3,-4(fp)
  801e90:	00800104 	movi	r2,4
  801e94:	18800005 	stb	r2,0(r3)
        return;
  801e98:	00003a06 	br	801f84 <OSEventNameSet+0x130>
    }
    if (pname == (INT8U *)0) {                   /* Is 'pname' a NULL pointer?                         */
  801e9c:	e0bffe17 	ldw	r2,-8(fp)
  801ea0:	1004c03a 	cmpne	r2,r2,zero
  801ea4:	1000041e 	bne	r2,zero,801eb8 <OSEventNameSet+0x64>
        *perr = OS_ERR_PNAME_NULL;
  801ea8:	e0ffff17 	ldw	r3,-4(fp)
  801eac:	00800304 	movi	r2,12
  801eb0:	18800005 	stb	r2,0(r3)
        return;
  801eb4:	00003306 	br	801f84 <OSEventNameSet+0x130>
    }
#endif
    if (OSIntNesting > 0) {                      /* See if trying to call from an ISR                  */
  801eb8:	d0a70303 	ldbu	r2,-25588(gp)
  801ebc:	10803fcc 	andi	r2,r2,255
  801ec0:	1005003a 	cmpeq	r2,r2,zero
  801ec4:	1000041e 	bne	r2,zero,801ed8 <OSEventNameSet+0x84>
        *perr = OS_ERR_NAME_SET_ISR;
  801ec8:	e0ffff17 	ldw	r3,-4(fp)
  801ecc:	00800484 	movi	r2,18
  801ed0:	18800005 	stb	r2,0(r3)
        return;
  801ed4:	00002b06 	br	801f84 <OSEventNameSet+0x130>
    }
    switch (pevent->OSEventType) {
  801ed8:	e0bffd17 	ldw	r2,-12(fp)
  801edc:	10800003 	ldbu	r2,0(r2)
  801ee0:	10803fcc 	andi	r2,r2,255
  801ee4:	10bfffc4 	addi	r2,r2,-1
  801ee8:	10800128 	cmpgeui	r2,r2,4
  801eec:	10000f1e 	bne	r2,zero,801f2c <OSEventNameSet+0xd8>
static ALT_INLINE alt_irq_context ALT_ALWAYS_INLINE 
       alt_irq_disable_all (void)
{
  alt_irq_context context;

  NIOS2_READ_STATUS (context);
  801ef0:	0005303a 	rdctl	r2,status
  801ef4:	e0bffa15 	stw	r2,-24(fp)

  NIOS2_WRITE_STATUS (context & ~NIOS2_STATUS_PIE_MSK);
  801ef8:	e0fffa17 	ldw	r3,-24(fp)
  801efc:	00bfff84 	movi	r2,-2
  801f00:	1884703a 	and	r2,r3,r2
  801f04:	1001703a 	wrctl	status,r2
  
  return context;
  801f08:	e0bffa17 	ldw	r2,-24(fp)

        default:
             *perr = OS_ERR_EVENT_TYPE;
             return;
    }
    OS_ENTER_CRITICAL();
  801f0c:	e0bffb15 	stw	r2,-20(fp)
    len = OS_StrLen(pname);                           /* Can we fit the string in the storage area?    */
  801f10:	e13ffe17 	ldw	r4,-8(fp)
  801f14:	08039280 	call	803928 <OS_StrLen>
  801f18:	e0bffc05 	stb	r2,-16(fp)
    if (len > (OS_EVENT_NAME_SIZE - 1)) {             /* No                                            */
  801f1c:	e0bffc03 	ldbu	r2,-16(fp)
  801f20:	10800828 	cmpgeui	r2,r2,32
  801f24:	1000051e 	bne	r2,zero,801f3c <OSEventNameSet+0xe8>
  801f28:	00000c06 	br	801f5c <OSEventNameSet+0x108>
        case OS_EVENT_TYPE_MBOX:
        case OS_EVENT_TYPE_Q:
             break;

        default:
             *perr = OS_ERR_EVENT_TYPE;
  801f2c:	e0ffff17 	ldw	r3,-4(fp)
  801f30:	00800044 	movi	r2,1
  801f34:	18800005 	stb	r2,0(r3)
             return;
  801f38:	00001206 	br	801f84 <OSEventNameSet+0x130>
  801f3c:	e0bffb17 	ldw	r2,-20(fp)
  801f40:	e0bff915 	stw	r2,-28(fp)
  status &= ~NIOS2_STATUS_PIE_MSK;
  status |= (context & NIOS2_STATUS_PIE_MSK);
  
  NIOS2_WRITE_STATUS (status);
#else
  NIOS2_WRITE_STATUS (context);
  801f44:	e0bff917 	ldw	r2,-28(fp)
  801f48:	1001703a 	wrctl	status,r2
    }
    OS_ENTER_CRITICAL();
    len = OS_StrLen(pname);                           /* Can we fit the string in the storage area?    */
    if (len > (OS_EVENT_NAME_SIZE - 1)) {             /* No                                            */
        OS_EXIT_CRITICAL();
        *perr = OS_ERR_EVENT_NAME_TOO_LONG;
  801f4c:	e0ffff17 	ldw	r3,-4(fp)
  801f50:	008002c4 	movi	r2,11
  801f54:	18800005 	stb	r2,0(r3)
        return;
  801f58:	00000a06 	br	801f84 <OSEventNameSet+0x130>
    }
    (void)OS_StrCopy(pevent->OSEventName, pname);     /* Yes, copy name to the event control block     */
  801f5c:	e0bffd17 	ldw	r2,-12(fp)
  801f60:	11000384 	addi	r4,r2,14
  801f64:	e17ffe17 	ldw	r5,-8(fp)
  801f68:	08038a80 	call	8038a8 <OS_StrCopy>
  801f6c:	e0bffb17 	ldw	r2,-20(fp)
  801f70:	e0bff815 	stw	r2,-32(fp)
  801f74:	e0bff817 	ldw	r2,-32(fp)
  801f78:	1001703a 	wrctl	status,r2
    OS_EXIT_CRITICAL();
    *perr = OS_ERR_NONE;
  801f7c:	e0bfff17 	ldw	r2,-4(fp)
  801f80:	10000005 	stb	zero,0(r2)
}
  801f84:	e037883a 	mov	sp,fp
  801f88:	dfc00117 	ldw	ra,4(sp)
  801f8c:	df000017 	ldw	fp,0(sp)
  801f90:	dec00204 	addi	sp,sp,8
  801f94:	f800283a 	ret

00801f98 <OSEventPendMulti>:
*********************************************************************************************************
*/
/*$PAGE*/
#if ((OS_EVENT_EN) && (OS_EVENT_MULTI_EN > 0))
INT16U  OSEventPendMulti (OS_EVENT **pevents_pend, OS_EVENT **pevents_rdy, void **pmsgs_rdy, INT16U timeout, INT8U *perr)
{
  801f98:	deffe704 	addi	sp,sp,-100
  801f9c:	dfc01815 	stw	ra,96(sp)
  801fa0:	df001715 	stw	fp,92(sp)
  801fa4:	df001704 	addi	fp,sp,92
  801fa8:	e13ff615 	stw	r4,-40(fp)
  801fac:	e17ff715 	stw	r5,-36(fp)
  801fb0:	e1bff815 	stw	r6,-32(fp)
  801fb4:	e1fff90d 	sth	r7,-28(fp)
#endif
    BOOLEAN     events_rdy;
    INT16U      events_rdy_nbr;
    INT8U       events_stat;
#if (OS_CRITICAL_METHOD == 3)                           /* Allocate storage for CPU status register    */
    OS_CPU_SR   cpu_sr = 0;
  801fb8:	e03ff015 	stw	zero,-64(fp)
#endif



#if (OS_ARG_CHK_EN > 0)
    if (perr == (INT8U *)0) {                           /* Validate 'perr'                             */
  801fbc:	e0800217 	ldw	r2,8(fp)
  801fc0:	1004c03a 	cmpne	r2,r2,zero
  801fc4:	1000021e 	bne	r2,zero,801fd0 <OSEventPendMulti+0x38>
        return (0);
  801fc8:	e03fff15 	stw	zero,-4(fp)
  801fcc:	00019906 	br	802634 <OSEventPendMulti+0x69c>
    }
    if (pevents_pend == (OS_EVENT **)0) {               /* Validate 'pevents_pend'                     */
  801fd0:	e0bff617 	ldw	r2,-40(fp)
  801fd4:	1004c03a 	cmpne	r2,r2,zero
  801fd8:	1000051e 	bne	r2,zero,801ff0 <OSEventPendMulti+0x58>
       *perr =  OS_ERR_PEVENT_NULL;
  801fdc:	e0c00217 	ldw	r3,8(fp)
  801fe0:	00800104 	movi	r2,4
  801fe4:	18800005 	stb	r2,0(r3)
        return (0);
  801fe8:	e03fff15 	stw	zero,-4(fp)
  801fec:	00019106 	br	802634 <OSEventPendMulti+0x69c>
    }
    if (pevents_rdy  == (OS_EVENT **)0) {               /* Validate 'pevents_rdy'                      */
  801ff0:	e0bff717 	ldw	r2,-36(fp)
  801ff4:	1004c03a 	cmpne	r2,r2,zero
  801ff8:	1000051e 	bne	r2,zero,802010 <OSEventPendMulti+0x78>
       *perr =  OS_ERR_PEVENT_NULL;
  801ffc:	e0c00217 	ldw	r3,8(fp)
  802000:	00800104 	movi	r2,4
  802004:	18800005 	stb	r2,0(r3)
        return (0);
  802008:	e03fff15 	stw	zero,-4(fp)
  80200c:	00018906 	br	802634 <OSEventPendMulti+0x69c>
    }
    if (pmsgs_rdy == (void **)0) {                      /* Validate 'pmsgs_rdy'                        */
  802010:	e0bff817 	ldw	r2,-32(fp)
  802014:	1004c03a 	cmpne	r2,r2,zero
  802018:	1000051e 	bne	r2,zero,802030 <OSEventPendMulti+0x98>
       *perr =  OS_ERR_PEVENT_NULL;
  80201c:	e0c00217 	ldw	r3,8(fp)
  802020:	00800104 	movi	r2,4
  802024:	18800005 	stb	r2,0(r3)
        return (0);
  802028:	e03fff15 	stw	zero,-4(fp)
  80202c:	00018106 	br	802634 <OSEventPendMulti+0x69c>
    }
#endif

   *pevents_rdy = (OS_EVENT *)0;                        /* Init array to NULL in case of errors        */
  802030:	e0bff717 	ldw	r2,-36(fp)
  802034:	10000015 	stw	zero,0(r2)

    pevents     =  pevents_pend;
  802038:	e0bff617 	ldw	r2,-40(fp)
  80203c:	e0bff515 	stw	r2,-44(fp)
    pevent      = *pevents;
  802040:	e0bff517 	ldw	r2,-44(fp)
  802044:	10800017 	ldw	r2,0(r2)
  802048:	e0bff415 	stw	r2,-48(fp)
    while  (pevent != (OS_EVENT *)0) {
  80204c:	00001806 	br	8020b0 <OSEventPendMulti+0x118>
        switch (pevent->OSEventType) {                  /* Validate event block types                  */
  802050:	e0bff417 	ldw	r2,-48(fp)
  802054:	10800003 	ldbu	r2,0(r2)
  802058:	10803fcc 	andi	r2,r2,255
  80205c:	e0bffe15 	stw	r2,-8(fp)
  802060:	e0fffe17 	ldw	r3,-8(fp)
  802064:	188000a0 	cmpeqi	r2,r3,2
  802068:	10000b1e 	bne	r2,zero,802098 <OSEventPendMulti+0x100>
  80206c:	e0fffe17 	ldw	r3,-8(fp)
  802070:	188000e0 	cmpeqi	r2,r3,3
  802074:	1000081e 	bne	r2,zero,802098 <OSEventPendMulti+0x100>
  802078:	e0fffe17 	ldw	r3,-8(fp)
  80207c:	18800060 	cmpeqi	r2,r3,1
  802080:	1000051e 	bne	r2,zero,802098 <OSEventPendMulti+0x100>
#endif

            case OS_EVENT_TYPE_MUTEX:                                            
            case OS_EVENT_TYPE_FLAG:
            default:           
                *perr = OS_ERR_EVENT_TYPE;
  802084:	e0c00217 	ldw	r3,8(fp)
  802088:	00800044 	movi	r2,1
  80208c:	18800005 	stb	r2,0(r3)
                 return (0);
  802090:	e03fff15 	stw	zero,-4(fp)
  802094:	00016706 	br	802634 <OSEventPendMulti+0x69c>
        }
        pevents++;
  802098:	e0bff517 	ldw	r2,-44(fp)
  80209c:	10800104 	addi	r2,r2,4
  8020a0:	e0bff515 	stw	r2,-44(fp)
        pevent = *pevents;
  8020a4:	e0bff517 	ldw	r2,-44(fp)
  8020a8:	10800017 	ldw	r2,0(r2)
  8020ac:	e0bff415 	stw	r2,-48(fp)

   *pevents_rdy = (OS_EVENT *)0;                        /* Init array to NULL in case of errors        */

    pevents     =  pevents_pend;
    pevent      = *pevents;
    while  (pevent != (OS_EVENT *)0) {
  8020b0:	e0bff417 	ldw	r2,-48(fp)
  8020b4:	1004c03a 	cmpne	r2,r2,zero
  8020b8:	103fe51e 	bne	r2,zero,802050 <OSEventPendMulti+0xb8>
        }
        pevents++;
        pevent = *pevents;
    }

    if (OSIntNesting  > 0) {                            /* See if called from ISR ...                  */
  8020bc:	d0a70303 	ldbu	r2,-25588(gp)
  8020c0:	10803fcc 	andi	r2,r2,255
  8020c4:	1005003a 	cmpeq	r2,r2,zero
  8020c8:	1000051e 	bne	r2,zero,8020e0 <OSEventPendMulti+0x148>
       *perr =  OS_ERR_PEND_ISR;                        /* ... can't PEND from an ISR                  */
  8020cc:	e0c00217 	ldw	r3,8(fp)
  8020d0:	00800084 	movi	r2,2
  8020d4:	18800005 	stb	r2,0(r3)
        return (0);
  8020d8:	e03fff15 	stw	zero,-4(fp)
  8020dc:	00015506 	br	802634 <OSEventPendMulti+0x69c>
    }
    if (OSLockNesting > 0) {                            /* See if called with scheduler locked ...     */
  8020e0:	d0a6f503 	ldbu	r2,-25644(gp)
  8020e4:	10803fcc 	andi	r2,r2,255
  8020e8:	1005003a 	cmpeq	r2,r2,zero
  8020ec:	1000051e 	bne	r2,zero,802104 <OSEventPendMulti+0x16c>
       *perr =  OS_ERR_PEND_LOCKED;                     /* ... can't PEND when locked                  */
  8020f0:	e0c00217 	ldw	r3,8(fp)
  8020f4:	00800344 	movi	r2,13
  8020f8:	18800005 	stb	r2,0(r3)
        return (0);
  8020fc:	e03fff15 	stw	zero,-4(fp)
  802100:	00014c06 	br	802634 <OSEventPendMulti+0x69c>
static ALT_INLINE alt_irq_context ALT_ALWAYS_INLINE 
       alt_irq_disable_all (void)
{
  alt_irq_context context;

  NIOS2_READ_STATUS (context);
  802104:	0005303a 	rdctl	r2,status
  802108:	e0bfef15 	stw	r2,-68(fp)

  NIOS2_WRITE_STATUS (context & ~NIOS2_STATUS_PIE_MSK);
  80210c:	e0ffef17 	ldw	r3,-68(fp)
  802110:	00bfff84 	movi	r2,-2
  802114:	1884703a 	and	r2,r3,r2
  802118:	1001703a 	wrctl	status,r2
  
  return context;
  80211c:	e0bfef17 	ldw	r2,-68(fp)
    }

/*$PAGE*/
    OS_ENTER_CRITICAL();
  802120:	e0bff015 	stw	r2,-64(fp)
    events_rdy     =  OS_FALSE;
  802124:	e03ff205 	stb	zero,-56(fp)
    events_rdy_nbr =  0;
  802128:	e03ff18d 	sth	zero,-58(fp)
    events_stat    =  OS_STAT_RDY;
  80212c:	e03ff105 	stb	zero,-60(fp)
    pevents        =  pevents_pend;
  802130:	e0bff617 	ldw	r2,-40(fp)
  802134:	e0bff515 	stw	r2,-44(fp)
    pevent         = *pevents;
  802138:	e0bff517 	ldw	r2,-44(fp)
  80213c:	10800017 	ldw	r2,0(r2)
  802140:	e0bff415 	stw	r2,-48(fp)
    while (pevent != (OS_EVENT *)0) {                   /* See if any events already available         */
  802144:	00008f06 	br	802384 <OSEventPendMulti+0x3ec>
        switch (pevent->OSEventType) {
  802148:	e0bff417 	ldw	r2,-48(fp)
  80214c:	10800003 	ldbu	r2,0(r2)
  802150:	10803fcc 	andi	r2,r2,255
  802154:	e0bffd15 	stw	r2,-12(fp)
  802158:	e0fffd17 	ldw	r3,-12(fp)
  80215c:	188000a0 	cmpeqi	r2,r3,2
  802160:	1000441e 	bne	r2,zero,802274 <OSEventPendMulti+0x2dc>
  802164:	e0fffd17 	ldw	r3,-12(fp)
  802168:	188000e0 	cmpeqi	r2,r3,3
  80216c:	1000041e 	bne	r2,zero,802180 <OSEventPendMulti+0x1e8>
  802170:	e0fffd17 	ldw	r3,-12(fp)
  802174:	18800060 	cmpeqi	r2,r3,1
  802178:	1000211e 	bne	r2,zero,802200 <OSEventPendMulti+0x268>
  80217c:	00006f06 	br	80233c <OSEventPendMulti+0x3a4>
#if (OS_SEM_EN > 0)
            case OS_EVENT_TYPE_SEM:
                 if (pevent->OSEventCnt > 0) {          /* If semaphore count > 0, resource available; */
  802180:	e0bff417 	ldw	r2,-48(fp)
  802184:	1080020b 	ldhu	r2,8(r2)
  802188:	10bfffcc 	andi	r2,r2,65535
  80218c:	1005003a 	cmpeq	r2,r2,zero
  802190:	1000171e 	bne	r2,zero,8021f0 <OSEventPendMulti+0x258>
                     pevent->OSEventCnt--;              /* ... decrement semaphore,                ... */
  802194:	e0bff417 	ldw	r2,-48(fp)
  802198:	1080020b 	ldhu	r2,8(r2)
  80219c:	10bfffc4 	addi	r2,r2,-1
  8021a0:	1007883a 	mov	r3,r2
  8021a4:	e0bff417 	ldw	r2,-48(fp)
  8021a8:	10c0020d 	sth	r3,8(r2)
                    *pevents_rdy++ =  pevent;           /* ... and return available semaphore event    */
  8021ac:	e0fff717 	ldw	r3,-36(fp)
  8021b0:	e0bff417 	ldw	r2,-48(fp)
  8021b4:	18800015 	stw	r2,0(r3)
  8021b8:	e0bff717 	ldw	r2,-36(fp)
  8021bc:	10800104 	addi	r2,r2,4
  8021c0:	e0bff715 	stw	r2,-36(fp)
                      events_rdy   =  OS_TRUE;
  8021c4:	00800044 	movi	r2,1
  8021c8:	e0bff205 	stb	r2,-56(fp)
                    *pmsgs_rdy++   = (void *)0;         /* NO message returned  for semaphores         */
  8021cc:	e0bff817 	ldw	r2,-32(fp)
  8021d0:	10000015 	stw	zero,0(r2)
  8021d4:	e0bff817 	ldw	r2,-32(fp)
  8021d8:	10800104 	addi	r2,r2,4
  8021dc:	e0bff815 	stw	r2,-32(fp)
                      events_rdy_nbr++;
  8021e0:	e0bff18b 	ldhu	r2,-58(fp)
  8021e4:	10800044 	addi	r2,r2,1
  8021e8:	e0bff18d 	sth	r2,-58(fp)
  8021ec:	00005f06 	br	80236c <OSEventPendMulti+0x3d4>

                 } else {
                      events_stat |=  OS_STAT_SEM;      /* Configure multi-pend for semaphore events   */
  8021f0:	e0bff103 	ldbu	r2,-60(fp)
  8021f4:	10800054 	ori	r2,r2,1
  8021f8:	e0bff105 	stb	r2,-60(fp)
                 }
                 break;
  8021fc:	00005b06 	br	80236c <OSEventPendMulti+0x3d4>
#endif

#if (OS_MBOX_EN > 0)
            case OS_EVENT_TYPE_MBOX:
                 if (pevent->OSEventPtr != (void *)0) { /* If mailbox NOT empty;                   ... */
  802200:	e0bff417 	ldw	r2,-48(fp)
  802204:	10800117 	ldw	r2,4(r2)
  802208:	1005003a 	cmpeq	r2,r2,zero
  80220c:	1000151e 	bne	r2,zero,802264 <OSEventPendMulti+0x2cc>
                                                        /* ... return available message,           ... */
                    *pmsgs_rdy++         = (void *)pevent->OSEventPtr;
  802210:	e0bff417 	ldw	r2,-48(fp)
  802214:	10c00117 	ldw	r3,4(r2)
  802218:	e0bff817 	ldw	r2,-32(fp)
  80221c:	10c00015 	stw	r3,0(r2)
  802220:	e0bff817 	ldw	r2,-32(fp)
  802224:	10800104 	addi	r2,r2,4
  802228:	e0bff815 	stw	r2,-32(fp)
                     pevent->OSEventPtr  = (void *)0;
  80222c:	e0bff417 	ldw	r2,-48(fp)
  802230:	10000115 	stw	zero,4(r2)
                    *pevents_rdy++       =  pevent;     /* ... and return available mailbox event      */
  802234:	e0fff717 	ldw	r3,-36(fp)
  802238:	e0bff417 	ldw	r2,-48(fp)
  80223c:	18800015 	stw	r2,0(r3)
  802240:	e0bff717 	ldw	r2,-36(fp)
  802244:	10800104 	addi	r2,r2,4
  802248:	e0bff715 	stw	r2,-36(fp)
                      events_rdy         =  OS_TRUE;
  80224c:	00800044 	movi	r2,1
  802250:	e0bff205 	stb	r2,-56(fp)
                      events_rdy_nbr++;
  802254:	e0bff18b 	ldhu	r2,-58(fp)
  802258:	10800044 	addi	r2,r2,1
  80225c:	e0bff18d 	sth	r2,-58(fp)
  802260:	00004206 	br	80236c <OSEventPendMulti+0x3d4>

                 } else {
                      events_stat |= OS_STAT_MBOX;      /* Configure multi-pend for mailbox events     */
  802264:	e0bff103 	ldbu	r2,-60(fp)
  802268:	10800094 	ori	r2,r2,2
  80226c:	e0bff105 	stb	r2,-60(fp)
                 }
                 break;
  802270:	00003e06 	br	80236c <OSEventPendMulti+0x3d4>
#endif

#if ((OS_Q_EN > 0) && (OS_MAX_QS > 0))
            case OS_EVENT_TYPE_Q:
                 pq = (OS_Q *)pevent->OSEventPtr;
  802274:	e0bff417 	ldw	r2,-48(fp)
  802278:	10800117 	ldw	r2,4(r2)
  80227c:	e0bff315 	stw	r2,-52(fp)
                 if (pq->OSQEntries > 0) {              /* If queue NOT empty;                     ... */
  802280:	e0bff317 	ldw	r2,-52(fp)
  802284:	1080058b 	ldhu	r2,22(r2)
  802288:	10bfffcc 	andi	r2,r2,65535
  80228c:	1005003a 	cmpeq	r2,r2,zero
  802290:	1000261e 	bne	r2,zero,80232c <OSEventPendMulti+0x394>
                                                        /* ... return available message,           ... */
                    *pmsgs_rdy++ = (void *)*pq->OSQOut++;
  802294:	e0bff317 	ldw	r2,-52(fp)
  802298:	11000417 	ldw	r4,16(r2)
  80229c:	20c00017 	ldw	r3,0(r4)
  8022a0:	e0bff817 	ldw	r2,-32(fp)
  8022a4:	10c00015 	stw	r3,0(r2)
  8022a8:	e0bff817 	ldw	r2,-32(fp)
  8022ac:	10800104 	addi	r2,r2,4
  8022b0:	e0bff815 	stw	r2,-32(fp)
  8022b4:	20c00104 	addi	r3,r4,4
  8022b8:	e0bff317 	ldw	r2,-52(fp)
  8022bc:	10c00415 	stw	r3,16(r2)
                     if (pq->OSQOut == pq->OSQEnd) {    /* If OUT ptr at queue end, ...                */
  8022c0:	e0bff317 	ldw	r2,-52(fp)
  8022c4:	10c00417 	ldw	r3,16(r2)
  8022c8:	e0bff317 	ldw	r2,-52(fp)
  8022cc:	10800217 	ldw	r2,8(r2)
  8022d0:	1880041e 	bne	r3,r2,8022e4 <OSEventPendMulti+0x34c>
                         pq->OSQOut  = pq->OSQStart;    /* ... wrap   to queue start                   */
  8022d4:	e0bff317 	ldw	r2,-52(fp)
  8022d8:	10c00117 	ldw	r3,4(r2)
  8022dc:	e0bff317 	ldw	r2,-52(fp)
  8022e0:	10c00415 	stw	r3,16(r2)
                     }
                     pq->OSQEntries--;                  /* Update number of queue entries              */
  8022e4:	e0bff317 	ldw	r2,-52(fp)
  8022e8:	1080058b 	ldhu	r2,22(r2)
  8022ec:	10bfffc4 	addi	r2,r2,-1
  8022f0:	1007883a 	mov	r3,r2
  8022f4:	e0bff317 	ldw	r2,-52(fp)
  8022f8:	10c0058d 	sth	r3,22(r2)
                    *pevents_rdy++ = pevent;            /* ... and return available queue event        */
  8022fc:	e0fff717 	ldw	r3,-36(fp)
  802300:	e0bff417 	ldw	r2,-48(fp)
  802304:	18800015 	stw	r2,0(r3)
  802308:	e0bff717 	ldw	r2,-36(fp)
  80230c:	10800104 	addi	r2,r2,4
  802310:	e0bff715 	stw	r2,-36(fp)
                      events_rdy   = OS_TRUE;
  802314:	00800044 	movi	r2,1
  802318:	e0bff205 	stb	r2,-56(fp)
                      events_rdy_nbr++;
  80231c:	e0bff18b 	ldhu	r2,-58(fp)
  802320:	10800044 	addi	r2,r2,1
  802324:	e0bff18d 	sth	r2,-58(fp)
  802328:	00001006 	br	80236c <OSEventPendMulti+0x3d4>

                 } else {
                      events_stat |= OS_STAT_Q;         /* Configure multi-pend for queue events       */
  80232c:	e0bff103 	ldbu	r2,-60(fp)
  802330:	10800114 	ori	r2,r2,4
  802334:	e0bff105 	stb	r2,-60(fp)
                 }
                 break;
  802338:	00000c06 	br	80236c <OSEventPendMulti+0x3d4>
  80233c:	e0bff017 	ldw	r2,-64(fp)
  802340:	e0bfee15 	stw	r2,-72(fp)
  status &= ~NIOS2_STATUS_PIE_MSK;
  status |= (context & NIOS2_STATUS_PIE_MSK);
  
  NIOS2_WRITE_STATUS (status);
#else
  NIOS2_WRITE_STATUS (context);
  802344:	e0bfee17 	ldw	r2,-72(fp)
  802348:	1001703a 	wrctl	status,r2

            case OS_EVENT_TYPE_MUTEX:                                            
            case OS_EVENT_TYPE_FLAG:
            default:           
                 OS_EXIT_CRITICAL();
                *pevents_rdy = (OS_EVENT *)0;           /* NULL terminate return event array           */
  80234c:	e0bff717 	ldw	r2,-36(fp)
  802350:	10000015 	stw	zero,0(r2)
                *perr        =  OS_ERR_EVENT_TYPE;
  802354:	e0c00217 	ldw	r3,8(fp)
  802358:	00800044 	movi	r2,1
  80235c:	18800005 	stb	r2,0(r3)
                 return (events_rdy_nbr);
  802360:	e0bff18b 	ldhu	r2,-58(fp)
  802364:	e0bfff15 	stw	r2,-4(fp)
  802368:	0000b206 	br	802634 <OSEventPendMulti+0x69c>
        }
        pevents++;
  80236c:	e0bff517 	ldw	r2,-44(fp)
  802370:	10800104 	addi	r2,r2,4
  802374:	e0bff515 	stw	r2,-44(fp)
        pevent = *pevents;
  802378:	e0bff517 	ldw	r2,-44(fp)
  80237c:	10800017 	ldw	r2,0(r2)
  802380:	e0bff415 	stw	r2,-48(fp)
    events_rdy     =  OS_FALSE;
    events_rdy_nbr =  0;
    events_stat    =  OS_STAT_RDY;
    pevents        =  pevents_pend;
    pevent         = *pevents;
    while (pevent != (OS_EVENT *)0) {                   /* See if any events already available         */
  802384:	e0bff417 	ldw	r2,-48(fp)
  802388:	1004c03a 	cmpne	r2,r2,zero
  80238c:	103f6e1e 	bne	r2,zero,802148 <OSEventPendMulti+0x1b0>
        }
        pevents++;
        pevent = *pevents;
    }

    if ( events_rdy == OS_TRUE) {                       /* Return any events already available         */
  802390:	e0bff203 	ldbu	r2,-56(fp)
  802394:	10800058 	cmpnei	r2,r2,1
  802398:	10000b1e 	bne	r2,zero,8023c8 <OSEventPendMulti+0x430>
       *pevents_rdy = (OS_EVENT *)0;                    /* NULL terminate return event array           */
  80239c:	e0bff717 	ldw	r2,-36(fp)
  8023a0:	10000015 	stw	zero,0(r2)
  8023a4:	e0bff017 	ldw	r2,-64(fp)
  8023a8:	e0bfed15 	stw	r2,-76(fp)
  8023ac:	e0bfed17 	ldw	r2,-76(fp)
  8023b0:	1001703a 	wrctl	status,r2
        OS_EXIT_CRITICAL();
       *perr        =  OS_ERR_NONE;
  8023b4:	e0800217 	ldw	r2,8(fp)
  8023b8:	10000005 	stb	zero,0(r2)
        return (events_rdy_nbr);
  8023bc:	e0fff18b 	ldhu	r3,-58(fp)
  8023c0:	e0ffff15 	stw	r3,-4(fp)
  8023c4:	00009b06 	br	802634 <OSEventPendMulti+0x69c>
    }
/*$PAGE*/
                                                        /* Otherwise, must wait until any event occurs */
    OSTCBCur->OSTCBStat     |= events_stat  |           /* Resource not available, ...                 */
  8023c8:	d1270417 	ldw	r4,-25584(gp)
  8023cc:	d0a70417 	ldw	r2,-25584(gp)
  8023d0:	10c00c03 	ldbu	r3,48(r2)
  8023d4:	e0bff103 	ldbu	r2,-60(fp)
  8023d8:	1884b03a 	or	r2,r3,r2
  8023dc:	1007883a 	mov	r3,r2
  8023e0:	00bfe004 	movi	r2,-128
  8023e4:	1884b03a 	or	r2,r3,r2
  8023e8:	20800c05 	stb	r2,48(r4)
                               OS_STAT_MULTI;           /* ... pend on multiple events                 */
    OSTCBCur->OSTCBStatPend  = OS_STAT_PEND_OK;
  8023ec:	d0a70417 	ldw	r2,-25584(gp)
  8023f0:	10000c45 	stb	zero,49(r2)
    OSTCBCur->OSTCBDly       = timeout;                 /* Store pend timeout in TCB                   */
  8023f4:	d0e70417 	ldw	r3,-25584(gp)
  8023f8:	e0bff90b 	ldhu	r2,-28(fp)
  8023fc:	18800b8d 	sth	r2,46(r3)
    OS_EventTaskWaitMulti(pevents_pend);                /* Suspend task until events or timeout occurs */
  802400:	e13ff617 	ldw	r4,-40(fp)
  802404:	0802fc80 	call	802fc8 <OS_EventTaskWaitMulti>
  802408:	e0bff017 	ldw	r2,-64(fp)
  80240c:	e0bfec15 	stw	r2,-80(fp)
  802410:	e0bfec17 	ldw	r2,-80(fp)
  802414:	1001703a 	wrctl	status,r2

    OS_EXIT_CRITICAL();
    OS_Sched();                                         /* Find next highest priority task ready       */
  802418:	08037640 	call	803764 <OS_Sched>
static ALT_INLINE alt_irq_context ALT_ALWAYS_INLINE 
       alt_irq_disable_all (void)
{
  alt_irq_context context;

  NIOS2_READ_STATUS (context);
  80241c:	0005303a 	rdctl	r2,status
  802420:	e0bfeb15 	stw	r2,-84(fp)

  NIOS2_WRITE_STATUS (context & ~NIOS2_STATUS_PIE_MSK);
  802424:	e0ffeb17 	ldw	r3,-84(fp)
  802428:	00bfff84 	movi	r2,-2
  80242c:	1884703a 	and	r2,r3,r2
  802430:	1001703a 	wrctl	status,r2
  
  return context;
  802434:	e0bfeb17 	ldw	r2,-84(fp)
    OS_ENTER_CRITICAL();
  802438:	e0bff015 	stw	r2,-64(fp)

    switch (OSTCBCur->OSTCBStatPend) {                  /* Handle event posted, aborted, or timed-out  */
  80243c:	d0a70417 	ldw	r2,-25584(gp)
  802440:	10800c43 	ldbu	r2,49(r2)
  802444:	10803fcc 	andi	r2,r2,255
  802448:	e0bffc15 	stw	r2,-16(fp)
  80244c:	e0fffc17 	ldw	r3,-16(fp)
  802450:	1805003a 	cmpeq	r2,r3,zero
  802454:	1000041e 	bne	r2,zero,802468 <OSEventPendMulti+0x4d0>
  802458:	e0fffc17 	ldw	r3,-16(fp)
  80245c:	188000a0 	cmpeqi	r2,r3,2
  802460:	1000011e 	bne	r2,zero,802468 <OSEventPendMulti+0x4d0>
  802464:	00001906 	br	8024cc <OSEventPendMulti+0x534>
        case OS_STAT_PEND_OK:
        case OS_STAT_PEND_ABORT:
             pevent = OSTCBCur->OSTCBEventPtr;
  802468:	d0a70417 	ldw	r2,-25584(gp)
  80246c:	10800717 	ldw	r2,28(r2)
  802470:	e0bff415 	stw	r2,-48(fp)
             if (pevent != (OS_EVENT *)0) {             /* If task event ptr != NULL, ...              */
  802474:	e0bff417 	ldw	r2,-48(fp)
  802478:	1005003a 	cmpeq	r2,r2,zero
  80247c:	10000c1e 	bne	r2,zero,8024b0 <OSEventPendMulti+0x518>
                *pevents_rdy++ =  pevent;               /* ... return available event ...              */
  802480:	e0fff717 	ldw	r3,-36(fp)
  802484:	e0bff417 	ldw	r2,-48(fp)
  802488:	18800015 	stw	r2,0(r3)
  80248c:	e0bff717 	ldw	r2,-36(fp)
  802490:	10800104 	addi	r2,r2,4
  802494:	e0bff715 	stw	r2,-36(fp)
                *pevents_rdy   = (OS_EVENT *)0;         /* ... & NULL terminate return event array     */
  802498:	e0bff717 	ldw	r2,-36(fp)
  80249c:	10000015 	stw	zero,0(r2)
                  events_rdy_nbr++;
  8024a0:	e0bff18b 	ldhu	r2,-58(fp)
  8024a4:	10800044 	addi	r2,r2,1
  8024a8:	e0bff18d 	sth	r2,-58(fp)
  8024ac:	00000a06 	br	8024d8 <OSEventPendMulti+0x540>

             } else {                                   /* Else NO event available, handle as timeout  */
                 OSTCBCur->OSTCBStatPend = OS_STAT_PEND_TO;
  8024b0:	d0a70417 	ldw	r2,-25584(gp)
  8024b4:	00c00044 	movi	r3,1
  8024b8:	10c00c45 	stb	r3,49(r2)
                 OS_EventTaskRemoveMulti(OSTCBCur, pevents_pend);
  8024bc:	d1270417 	ldw	r4,-25584(gp)
  8024c0:	e17ff617 	ldw	r5,-40(fp)
  8024c4:	08031d40 	call	8031d4 <OS_EventTaskRemoveMulti>
             }
			 break;
  8024c8:	00000306 	br	8024d8 <OSEventPendMulti+0x540>

        case OS_STAT_PEND_TO:
        default:                                        /* ... remove task from events' wait lists     */
             OS_EventTaskRemoveMulti(OSTCBCur, pevents_pend);
  8024cc:	d1270417 	ldw	r4,-25584(gp)
  8024d0:	e17ff617 	ldw	r5,-40(fp)
  8024d4:	08031d40 	call	8031d4 <OS_EventTaskRemoveMulti>
             break;
    }

    switch (OSTCBCur->OSTCBStatPend) {
  8024d8:	d0a70417 	ldw	r2,-25584(gp)
  8024dc:	10800c43 	ldbu	r2,49(r2)
  8024e0:	10803fcc 	andi	r2,r2,255
  8024e4:	e0bffb15 	stw	r2,-20(fp)
  8024e8:	e0fffb17 	ldw	r3,-20(fp)
  8024ec:	1805003a 	cmpeq	r2,r3,zero
  8024f0:	1000041e 	bne	r2,zero,802504 <OSEventPendMulti+0x56c>
  8024f4:	e0fffb17 	ldw	r3,-20(fp)
  8024f8:	188000a0 	cmpeqi	r2,r3,2
  8024fc:	10002c1e 	bne	r2,zero,8025b0 <OSEventPendMulti+0x618>
  802500:	00003406 	br	8025d4 <OSEventPendMulti+0x63c>
        case OS_STAT_PEND_OK:
             switch (pevent->OSEventType) {             /* Return event's message                      */
  802504:	e0bff417 	ldw	r2,-48(fp)
  802508:	10800003 	ldbu	r2,0(r2)
  80250c:	10803fcc 	andi	r2,r2,255
  802510:	e0bffa15 	stw	r2,-24(fp)
  802514:	e0fffa17 	ldw	r3,-24(fp)
  802518:	18800050 	cmplti	r2,r3,1
  80251c:	1000151e 	bne	r2,zero,802574 <OSEventPendMulti+0x5dc>
  802520:	e0fffa17 	ldw	r3,-24(fp)
  802524:	188000d0 	cmplti	r2,r3,3
  802528:	10000a1e 	bne	r2,zero,802554 <OSEventPendMulti+0x5bc>
  80252c:	e0fffa17 	ldw	r3,-24(fp)
  802530:	188000e0 	cmpeqi	r2,r3,3
  802534:	1000011e 	bne	r2,zero,80253c <OSEventPendMulti+0x5a4>
  802538:	00000e06 	br	802574 <OSEventPendMulti+0x5dc>
#if (OS_SEM_EN > 0)
                 case OS_EVENT_TYPE_SEM:
                     *pmsgs_rdy++ = (void *)0;          /* NO message returned for semaphores          */
  80253c:	e0bff817 	ldw	r2,-32(fp)
  802540:	10000015 	stw	zero,0(r2)
  802544:	e0bff817 	ldw	r2,-32(fp)
  802548:	10800104 	addi	r2,r2,4
  80254c:	e0bff815 	stw	r2,-32(fp)
                      break;
  802550:	00001406 	br	8025a4 <OSEventPendMulti+0x60c>

#if ((OS_MBOX_EN > 0) ||                 \
    ((OS_Q_EN    > 0) && (OS_MAX_QS > 0)))
                 case OS_EVENT_TYPE_MBOX:
                 case OS_EVENT_TYPE_Q:
                     *pmsgs_rdy++ = (void *)OSTCBCur->OSTCBMsg;     /* Return received message         */
  802554:	d0a70417 	ldw	r2,-25584(gp)
  802558:	10c00917 	ldw	r3,36(r2)
  80255c:	e0bff817 	ldw	r2,-32(fp)
  802560:	10c00015 	stw	r3,0(r2)
  802564:	e0bff817 	ldw	r2,-32(fp)
  802568:	10800104 	addi	r2,r2,4
  80256c:	e0bff815 	stw	r2,-32(fp)
                      break;
  802570:	00000c06 	br	8025a4 <OSEventPendMulti+0x60c>
  802574:	e0bff017 	ldw	r2,-64(fp)
  802578:	e0bfea15 	stw	r2,-88(fp)
  status &= ~NIOS2_STATUS_PIE_MSK;
  status |= (context & NIOS2_STATUS_PIE_MSK);
  
  NIOS2_WRITE_STATUS (status);
#else
  NIOS2_WRITE_STATUS (context);
  80257c:	e0bfea17 	ldw	r2,-88(fp)
  802580:	1001703a 	wrctl	status,r2

                 case OS_EVENT_TYPE_MUTEX:                                       
                 case OS_EVENT_TYPE_FLAG:
                 default:           
                      OS_EXIT_CRITICAL();
                     *pevents_rdy = (OS_EVENT *)0;      /* NULL terminate return event array           */
  802584:	e0bff717 	ldw	r2,-36(fp)
  802588:	10000015 	stw	zero,0(r2)
                     *perr        =  OS_ERR_EVENT_TYPE;
  80258c:	e0c00217 	ldw	r3,8(fp)
  802590:	00800044 	movi	r2,1
  802594:	18800005 	stb	r2,0(r3)
                      return (events_rdy_nbr);
  802598:	e0bff18b 	ldhu	r2,-58(fp)
  80259c:	e0bfff15 	stw	r2,-4(fp)
  8025a0:	00002406 	br	802634 <OSEventPendMulti+0x69c>
             }
            *perr = OS_ERR_NONE;
  8025a4:	e0800217 	ldw	r2,8(fp)
  8025a8:	10000005 	stb	zero,0(r2)
             break;
  8025ac:	00001106 	br	8025f4 <OSEventPendMulti+0x65c>

        case OS_STAT_PEND_ABORT:
            *pmsgs_rdy++ = (void *)0;                   /* NO message returned for abort               */
  8025b0:	e0bff817 	ldw	r2,-32(fp)
  8025b4:	10000015 	stw	zero,0(r2)
  8025b8:	e0bff817 	ldw	r2,-32(fp)
  8025bc:	10800104 	addi	r2,r2,4
  8025c0:	e0bff815 	stw	r2,-32(fp)
            *perr        =  OS_ERR_PEND_ABORT;          /* Indicate that event  aborted                */
  8025c4:	e0c00217 	ldw	r3,8(fp)
  8025c8:	00800384 	movi	r2,14
  8025cc:	18800005 	stb	r2,0(r3)
             break;
  8025d0:	00000806 	br	8025f4 <OSEventPendMulti+0x65c>
                                                        
        case OS_STAT_PEND_TO:                                                
        default:        
            *pmsgs_rdy++ = (void *)0;                   /* NO message returned for timeout             */
  8025d4:	e0bff817 	ldw	r2,-32(fp)
  8025d8:	10000015 	stw	zero,0(r2)
  8025dc:	e0bff817 	ldw	r2,-32(fp)
  8025e0:	10800104 	addi	r2,r2,4
  8025e4:	e0bff815 	stw	r2,-32(fp)
            *perr        =  OS_ERR_TIMEOUT;             /* Indicate that events timed out              */
  8025e8:	e0c00217 	ldw	r3,8(fp)
  8025ec:	00800284 	movi	r2,10
  8025f0:	18800005 	stb	r2,0(r3)
             break;
    }

    OSTCBCur->OSTCBStat          =  OS_STAT_RDY;        /* Set   task  status to ready                 */
  8025f4:	d0a70417 	ldw	r2,-25584(gp)
  8025f8:	10000c05 	stb	zero,48(r2)
    OSTCBCur->OSTCBStatPend      =  OS_STAT_PEND_OK;    /* Clear pend  status                          */
  8025fc:	d0a70417 	ldw	r2,-25584(gp)
  802600:	10000c45 	stb	zero,49(r2)
    OSTCBCur->OSTCBEventPtr      = (OS_EVENT  *)0;      /* Clear event pointers                        */
  802604:	d0a70417 	ldw	r2,-25584(gp)
  802608:	10000715 	stw	zero,28(r2)
    OSTCBCur->OSTCBEventMultiPtr = (OS_EVENT **)0;
  80260c:	d0a70417 	ldw	r2,-25584(gp)
  802610:	10000815 	stw	zero,32(r2)
    OSTCBCur->OSTCBMsg           = (void      *)0;      /* Clear task  message                         */
  802614:	d0a70417 	ldw	r2,-25584(gp)
  802618:	10000915 	stw	zero,36(r2)
  80261c:	e0bff017 	ldw	r2,-64(fp)
  802620:	e0bfe915 	stw	r2,-92(fp)
  802624:	e0bfe917 	ldw	r2,-92(fp)
  802628:	1001703a 	wrctl	status,r2
    OS_EXIT_CRITICAL();

    return (events_rdy_nbr);
  80262c:	e0fff18b 	ldhu	r3,-58(fp)
  802630:	e0ffff15 	stw	r3,-4(fp)
  802634:	e0bfff17 	ldw	r2,-4(fp)
}
  802638:	e037883a 	mov	sp,fp
  80263c:	dfc00117 	ldw	ra,4(sp)
  802640:	df000017 	ldw	fp,0(sp)
  802644:	dec00204 	addi	sp,sp,8
  802648:	f800283a 	ret

0080264c <OSInit>:
* Returns    : none
*********************************************************************************************************
*/

void  OSInit (void)
{
  80264c:	defffe04 	addi	sp,sp,-8
  802650:	dfc00115 	stw	ra,4(sp)
  802654:	df000015 	stw	fp,0(sp)
  802658:	d839883a 	mov	fp,sp
    OSInitHookBegin();                                           /* Call port specific initialization code   */
  80265c:	080c4ec0 	call	80c4ec <OSInitHookBegin>

    OS_InitMisc();                                               /* Initialize miscellaneous variables       */
  802660:	080341c0 	call	80341c <OS_InitMisc>

    OS_InitRdyList();                                            /* Initialize the Ready List                */
  802664:	08034600 	call	803460 <OS_InitRdyList>

    OS_InitTCBList();                                            /* Initialize the free list of OS_TCBs      */
  802668:	08035c40 	call	8035c4 <OS_InitTCBList>

    OS_InitEventList();                                          /* Initialize the free list of OS_EVENTs    */
  80266c:	08033400 	call	803340 <OS_InitEventList>

#if (OS_FLAG_EN > 0) && (OS_MAX_FLAGS > 0)
    OS_FlagInit();                                               /* Initialize the event flag structures     */
  802670:	08056740 	call	805674 <OS_FlagInit>
#endif

#if (OS_MEM_EN > 0) && (OS_MAX_MEM_PART > 0)
    OS_MemInit();                                                /* Initialize the memory manager            */
  802674:	080604c0 	call	80604c <OS_MemInit>
#endif

#if (OS_Q_EN > 0) && (OS_MAX_QS > 0)
    OS_QInit();                                                  /* Initialize the message queue structures  */
  802678:	08073a80 	call	8073a8 <OS_QInit>
#endif

    OS_InitTaskIdle();                                           /* Create the Idle Task                     */
  80267c:	08034cc0 	call	8034cc <OS_InitTaskIdle>
#if OS_TASK_STAT_EN > 0
    OS_InitTaskStat();                                           /* Create the Statistic Task                */
  802680:	08035480 	call	803548 <OS_InitTaskStat>

#if OS_TMR_EN > 0
    OSTmr_Init();                                                /* Initialize the Timer Manager             */
#endif

    OSInitHookEnd();                                             /* Call port specific init. code            */
  802684:	080c5080 	call	80c508 <OSInitHookEnd>

#if OS_DEBUG_EN > 0
    OSDebugInit();
  802688:	0803e4c0 	call	803e4c <OSDebugInit>
#endif
}
  80268c:	e037883a 	mov	sp,fp
  802690:	dfc00117 	ldw	ra,4(sp)
  802694:	df000017 	ldw	fp,0(sp)
  802698:	dec00204 	addi	sp,sp,8
  80269c:	f800283a 	ret

008026a0 <OSIntEnter>:
*              5) You are allowed to nest interrupts up to 255 levels deep.
*********************************************************************************************************
*/

void  OSIntEnter (void)
{
  8026a0:	defffc04 	addi	sp,sp,-16
  8026a4:	df000315 	stw	fp,12(sp)
  8026a8:	df000304 	addi	fp,sp,12
#if OS_CRITICAL_METHOD == 3                                /* Allocate storage for CPU status register */
    OS_CPU_SR  cpu_sr = 0;
  8026ac:	e03fff15 	stw	zero,-4(fp)
#endif

    if (OSRunning == OS_TRUE) {
  8026b0:	d0a6f543 	ldbu	r2,-25643(gp)
  8026b4:	10803fcc 	andi	r2,r2,255
  8026b8:	10800058 	cmpnei	r2,r2,1
  8026bc:	1000131e 	bne	r2,zero,80270c <OSIntEnter+0x6c>
static ALT_INLINE alt_irq_context ALT_ALWAYS_INLINE 
       alt_irq_disable_all (void)
{
  alt_irq_context context;

  NIOS2_READ_STATUS (context);
  8026c0:	0005303a 	rdctl	r2,status
  8026c4:	e0bffe15 	stw	r2,-8(fp)

  NIOS2_WRITE_STATUS (context & ~NIOS2_STATUS_PIE_MSK);
  8026c8:	e0fffe17 	ldw	r3,-8(fp)
  8026cc:	00bfff84 	movi	r2,-2
  8026d0:	1884703a 	and	r2,r3,r2
  8026d4:	1001703a 	wrctl	status,r2
  
  return context;
  8026d8:	e0bffe17 	ldw	r2,-8(fp)
        OS_ENTER_CRITICAL();
  8026dc:	e0bfff15 	stw	r2,-4(fp)
        if (OSIntNesting < 255u) {
  8026e0:	d0a70303 	ldbu	r2,-25588(gp)
  8026e4:	10803fcc 	andi	r2,r2,255
  8026e8:	10803fe0 	cmpeqi	r2,r2,255
  8026ec:	1000031e 	bne	r2,zero,8026fc <OSIntEnter+0x5c>
            OSIntNesting++;                      /* Increment ISR nesting level                        */
  8026f0:	d0a70303 	ldbu	r2,-25588(gp)
  8026f4:	10800044 	addi	r2,r2,1
  8026f8:	d0a70305 	stb	r2,-25588(gp)
  8026fc:	e0bfff17 	ldw	r2,-4(fp)
  802700:	e0bffd15 	stw	r2,-12(fp)
  status &= ~NIOS2_STATUS_PIE_MSK;
  status |= (context & NIOS2_STATUS_PIE_MSK);
  
  NIOS2_WRITE_STATUS (status);
#else
  NIOS2_WRITE_STATUS (context);
  802704:	e0bffd17 	ldw	r2,-12(fp)
  802708:	1001703a 	wrctl	status,r2
        }
        OS_EXIT_CRITICAL();
    }
}
  80270c:	e037883a 	mov	sp,fp
  802710:	df000017 	ldw	fp,0(sp)
  802714:	dec00104 	addi	sp,sp,4
  802718:	f800283a 	ret

0080271c <OSIntExit>:
*              2) Rescheduling is prevented when the scheduler is locked (see OS_SchedLock())
*********************************************************************************************************
*/

void  OSIntExit (void)
{
  80271c:	defffb04 	addi	sp,sp,-20
  802720:	dfc00415 	stw	ra,16(sp)
  802724:	df000315 	stw	fp,12(sp)
  802728:	df000304 	addi	fp,sp,12
#if OS_CRITICAL_METHOD == 3                                /* Allocate storage for CPU status register */
    OS_CPU_SR  cpu_sr = 0;
  80272c:	e03fff15 	stw	zero,-4(fp)
#endif



    if (OSRunning == OS_TRUE) {
  802730:	d0a6f543 	ldbu	r2,-25643(gp)
  802734:	10803fcc 	andi	r2,r2,255
  802738:	10800058 	cmpnei	r2,r2,1
  80273c:	1000321e 	bne	r2,zero,802808 <OSIntExit+0xec>
static ALT_INLINE alt_irq_context ALT_ALWAYS_INLINE 
       alt_irq_disable_all (void)
{
  alt_irq_context context;

  NIOS2_READ_STATUS (context);
  802740:	0005303a 	rdctl	r2,status
  802744:	e0bffe15 	stw	r2,-8(fp)

  NIOS2_WRITE_STATUS (context & ~NIOS2_STATUS_PIE_MSK);
  802748:	e0fffe17 	ldw	r3,-8(fp)
  80274c:	00bfff84 	movi	r2,-2
  802750:	1884703a 	and	r2,r3,r2
  802754:	1001703a 	wrctl	status,r2
  
  return context;
  802758:	e0bffe17 	ldw	r2,-8(fp)
        OS_ENTER_CRITICAL();
  80275c:	e0bfff15 	stw	r2,-4(fp)
        if (OSIntNesting > 0) {                            /* Prevent OSIntNesting from wrapping       */
  802760:	d0a70303 	ldbu	r2,-25588(gp)
  802764:	10803fcc 	andi	r2,r2,255
  802768:	1005003a 	cmpeq	r2,r2,zero
  80276c:	1000031e 	bne	r2,zero,80277c <OSIntExit+0x60>
            OSIntNesting--;
  802770:	d0a70303 	ldbu	r2,-25588(gp)
  802774:	10bfffc4 	addi	r2,r2,-1
  802778:	d0a70305 	stb	r2,-25588(gp)
        }
        if (OSIntNesting == 0) {                           /* Reschedule only if all ISRs complete ... */
  80277c:	d0a70303 	ldbu	r2,-25588(gp)
  802780:	10803fcc 	andi	r2,r2,255
  802784:	1004c03a 	cmpne	r2,r2,zero
  802788:	10001b1e 	bne	r2,zero,8027f8 <OSIntExit+0xdc>
            if (OSLockNesting == 0) {                      /* ... and not locked.                      */
  80278c:	d0a6f503 	ldbu	r2,-25644(gp)
  802790:	10803fcc 	andi	r2,r2,255
  802794:	1004c03a 	cmpne	r2,r2,zero
  802798:	1000171e 	bne	r2,zero,8027f8 <OSIntExit+0xdc>
                OS_SchedNew();
  80279c:	08038380 	call	803838 <OS_SchedNew>
                if (OSPrioHighRdy != OSPrioCur) {          /* No Ctx Sw if current task is highest rdy */
  8027a0:	d0a6f703 	ldbu	r2,-25636(gp)
  8027a4:	d0e6f743 	ldbu	r3,-25635(gp)
  8027a8:	11003fcc 	andi	r4,r2,255
  8027ac:	18803fcc 	andi	r2,r3,255
  8027b0:	20801126 	beq	r4,r2,8027f8 <OSIntExit+0xdc>
                    OSTCBHighRdy  = OSTCBPrioTbl[OSPrioHighRdy];
  8027b4:	d0a6f703 	ldbu	r2,-25636(gp)
  8027b8:	10803fcc 	andi	r2,r2,255
  8027bc:	00c020b4 	movhi	r3,130
  8027c0:	18e02c04 	addi	r3,r3,-32592
  8027c4:	1085883a 	add	r2,r2,r2
  8027c8:	1085883a 	add	r2,r2,r2
  8027cc:	10c5883a 	add	r2,r2,r3
  8027d0:	10800017 	ldw	r2,0(r2)
  8027d4:	d0a6ff15 	stw	r2,-25604(gp)
#if OS_TASK_PROFILE_EN > 0
                    OSTCBHighRdy->OSTCBCtxSwCtr++;         /* Inc. # of context switches to this task  */
  8027d8:	d0e6ff17 	ldw	r3,-25604(gp)
  8027dc:	18800e17 	ldw	r2,56(r3)
  8027e0:	10800044 	addi	r2,r2,1
  8027e4:	18800e15 	stw	r2,56(r3)
#endif
                    OSCtxSwCtr++;                          /* Keep track of the number of ctx switches */
  8027e8:	d0a6fa17 	ldw	r2,-25624(gp)
  8027ec:	10800044 	addi	r2,r2,1
  8027f0:	d0a6fa15 	stw	r2,-25624(gp)
                    OSIntCtxSw();                          /* Perform interrupt level ctx switch       */
  8027f4:	080c0780 	call	80c078 <OSCtxSw>
  8027f8:	e0bfff17 	ldw	r2,-4(fp)
  8027fc:	e0bffd15 	stw	r2,-12(fp)
  status &= ~NIOS2_STATUS_PIE_MSK;
  status |= (context & NIOS2_STATUS_PIE_MSK);
  
  NIOS2_WRITE_STATUS (status);
#else
  NIOS2_WRITE_STATUS (context);
  802800:	e0bffd17 	ldw	r2,-12(fp)
  802804:	1001703a 	wrctl	status,r2
                }
            }
        }
        OS_EXIT_CRITICAL();
    }
}
  802808:	e037883a 	mov	sp,fp
  80280c:	dfc00117 	ldw	ra,4(sp)
  802810:	df000017 	ldw	fp,0(sp)
  802814:	dec00204 	addi	sp,sp,8
  802818:	f800283a 	ret

0080281c <OSSchedLock>:
*********************************************************************************************************
*/

#if OS_SCHED_LOCK_EN > 0
void  OSSchedLock (void)
{
  80281c:	defffc04 	addi	sp,sp,-16
  802820:	df000315 	stw	fp,12(sp)
  802824:	df000304 	addi	fp,sp,12
#if OS_CRITICAL_METHOD == 3                      /* Allocate storage for CPU status register           */
    OS_CPU_SR  cpu_sr = 0;
  802828:	e03fff15 	stw	zero,-4(fp)
#endif



    if (OSRunning == OS_TRUE) {                  /* Make sure multitasking is running                  */
  80282c:	d0a6f543 	ldbu	r2,-25643(gp)
  802830:	10803fcc 	andi	r2,r2,255
  802834:	10800058 	cmpnei	r2,r2,1
  802838:	1000171e 	bne	r2,zero,802898 <OSSchedLock+0x7c>
static ALT_INLINE alt_irq_context ALT_ALWAYS_INLINE 
       alt_irq_disable_all (void)
{
  alt_irq_context context;

  NIOS2_READ_STATUS (context);
  80283c:	0005303a 	rdctl	r2,status
  802840:	e0bffe15 	stw	r2,-8(fp)

  NIOS2_WRITE_STATUS (context & ~NIOS2_STATUS_PIE_MSK);
  802844:	e0fffe17 	ldw	r3,-8(fp)
  802848:	00bfff84 	movi	r2,-2
  80284c:	1884703a 	and	r2,r3,r2
  802850:	1001703a 	wrctl	status,r2
  
  return context;
  802854:	e0bffe17 	ldw	r2,-8(fp)
        OS_ENTER_CRITICAL();
  802858:	e0bfff15 	stw	r2,-4(fp)
        if (OSIntNesting == 0) {                 /* Can't call from an ISR                             */
  80285c:	d0a70303 	ldbu	r2,-25588(gp)
  802860:	10803fcc 	andi	r2,r2,255
  802864:	1004c03a 	cmpne	r2,r2,zero
  802868:	1000071e 	bne	r2,zero,802888 <OSSchedLock+0x6c>
            if (OSLockNesting < 255u) {          /* Prevent OSLockNesting from wrapping back to 0      */
  80286c:	d0a6f503 	ldbu	r2,-25644(gp)
  802870:	10803fcc 	andi	r2,r2,255
  802874:	10803fe0 	cmpeqi	r2,r2,255
  802878:	1000031e 	bne	r2,zero,802888 <OSSchedLock+0x6c>
                OSLockNesting++;                 /* Increment lock nesting level                       */
  80287c:	d0a6f503 	ldbu	r2,-25644(gp)
  802880:	10800044 	addi	r2,r2,1
  802884:	d0a6f505 	stb	r2,-25644(gp)
  802888:	e0bfff17 	ldw	r2,-4(fp)
  80288c:	e0bffd15 	stw	r2,-12(fp)
  status &= ~NIOS2_STATUS_PIE_MSK;
  status |= (context & NIOS2_STATUS_PIE_MSK);
  
  NIOS2_WRITE_STATUS (status);
#else
  NIOS2_WRITE_STATUS (context);
  802890:	e0bffd17 	ldw	r2,-12(fp)
  802894:	1001703a 	wrctl	status,r2
            }
        }
        OS_EXIT_CRITICAL();
    }
}
  802898:	e037883a 	mov	sp,fp
  80289c:	df000017 	ldw	fp,0(sp)
  8028a0:	dec00104 	addi	sp,sp,4
  8028a4:	f800283a 	ret

008028a8 <OSSchedUnlock>:
*********************************************************************************************************
*/

#if OS_SCHED_LOCK_EN > 0
void  OSSchedUnlock (void)
{
  8028a8:	defff804 	addi	sp,sp,-32
  8028ac:	dfc00715 	stw	ra,28(sp)
  8028b0:	df000615 	stw	fp,24(sp)
  8028b4:	df000604 	addi	fp,sp,24
#if OS_CRITICAL_METHOD == 3                                /* Allocate storage for CPU status register */
    OS_CPU_SR  cpu_sr = 0;
  8028b8:	e03fff15 	stw	zero,-4(fp)
#endif



    if (OSRunning == OS_TRUE) {                            /* Make sure multitasking is running        */
  8028bc:	d0a6f543 	ldbu	r2,-25643(gp)
  8028c0:	10803fcc 	andi	r2,r2,255
  8028c4:	10800058 	cmpnei	r2,r2,1
  8028c8:	10002b1e 	bne	r2,zero,802978 <OSSchedUnlock+0xd0>
static ALT_INLINE alt_irq_context ALT_ALWAYS_INLINE 
       alt_irq_disable_all (void)
{
  alt_irq_context context;

  NIOS2_READ_STATUS (context);
  8028cc:	0005303a 	rdctl	r2,status
  8028d0:	e0bffe15 	stw	r2,-8(fp)

  NIOS2_WRITE_STATUS (context & ~NIOS2_STATUS_PIE_MSK);
  8028d4:	e0fffe17 	ldw	r3,-8(fp)
  8028d8:	00bfff84 	movi	r2,-2
  8028dc:	1884703a 	and	r2,r3,r2
  8028e0:	1001703a 	wrctl	status,r2
  
  return context;
  8028e4:	e0bffe17 	ldw	r2,-8(fp)
        OS_ENTER_CRITICAL();
  8028e8:	e0bfff15 	stw	r2,-4(fp)
        if (OSLockNesting > 0) {                           /* Do not decrement if already 0            */
  8028ec:	d0a6f503 	ldbu	r2,-25644(gp)
  8028f0:	10803fcc 	andi	r2,r2,255
  8028f4:	1005003a 	cmpeq	r2,r2,zero
  8028f8:	10001b1e 	bne	r2,zero,802968 <OSSchedUnlock+0xc0>
            OSLockNesting--;                               /* Decrement lock nesting level             */
  8028fc:	d0a6f503 	ldbu	r2,-25644(gp)
  802900:	10bfffc4 	addi	r2,r2,-1
  802904:	d0a6f505 	stb	r2,-25644(gp)
            if (OSLockNesting == 0) {                      /* See if scheduler is enabled and ...      */
  802908:	d0a6f503 	ldbu	r2,-25644(gp)
  80290c:	10803fcc 	andi	r2,r2,255
  802910:	1004c03a 	cmpne	r2,r2,zero
  802914:	10000f1e 	bne	r2,zero,802954 <OSSchedUnlock+0xac>
                if (OSIntNesting == 0) {                   /* ... not in an ISR                        */
  802918:	d0a70303 	ldbu	r2,-25588(gp)
  80291c:	10803fcc 	andi	r2,r2,255
  802920:	1004c03a 	cmpne	r2,r2,zero
  802924:	1000061e 	bne	r2,zero,802940 <OSSchedUnlock+0x98>
  802928:	e0bfff17 	ldw	r2,-4(fp)
  80292c:	e0bffd15 	stw	r2,-12(fp)
  status &= ~NIOS2_STATUS_PIE_MSK;
  status |= (context & NIOS2_STATUS_PIE_MSK);
  
  NIOS2_WRITE_STATUS (status);
#else
  NIOS2_WRITE_STATUS (context);
  802930:	e0bffd17 	ldw	r2,-12(fp)
  802934:	1001703a 	wrctl	status,r2
                    OS_EXIT_CRITICAL();
                    OS_Sched();                            /* See if a HPT is ready                    */
  802938:	08037640 	call	803764 <OS_Sched>
  80293c:	00000e06 	br	802978 <OSSchedUnlock+0xd0>
  802940:	e0bfff17 	ldw	r2,-4(fp)
  802944:	e0bffc15 	stw	r2,-16(fp)
  802948:	e0bffc17 	ldw	r2,-16(fp)
  80294c:	1001703a 	wrctl	status,r2
  802950:	00000906 	br	802978 <OSSchedUnlock+0xd0>
  802954:	e0bfff17 	ldw	r2,-4(fp)
  802958:	e0bffb15 	stw	r2,-20(fp)
  80295c:	e0bffb17 	ldw	r2,-20(fp)
  802960:	1001703a 	wrctl	status,r2
  802964:	00000406 	br	802978 <OSSchedUnlock+0xd0>
  802968:	e0bfff17 	ldw	r2,-4(fp)
  80296c:	e0bffa15 	stw	r2,-24(fp)
  802970:	e0bffa17 	ldw	r2,-24(fp)
  802974:	1001703a 	wrctl	status,r2
            }
        } else {
            OS_EXIT_CRITICAL();
        }
    }
}
  802978:	e037883a 	mov	sp,fp
  80297c:	dfc00117 	ldw	ra,4(sp)
  802980:	df000017 	ldw	fp,0(sp)
  802984:	dec00204 	addi	sp,sp,8
  802988:	f800283a 	ret

0080298c <OSStart>:
*                 d_ Execute the task.
*********************************************************************************************************
*/

void  OSStart (void)
{
  80298c:	defffe04 	addi	sp,sp,-8
  802990:	dfc00115 	stw	ra,4(sp)
  802994:	df000015 	stw	fp,0(sp)
  802998:	d839883a 	mov	fp,sp
    if (OSRunning == OS_FALSE) {
  80299c:	d0a6f543 	ldbu	r2,-25643(gp)
  8029a0:	10803fcc 	andi	r2,r2,255
  8029a4:	1004c03a 	cmpne	r2,r2,zero
  8029a8:	10000f1e 	bne	r2,zero,8029e8 <OSStart+0x5c>
        OS_SchedNew();                               /* Find highest priority's task priority number   */
  8029ac:	08038380 	call	803838 <OS_SchedNew>
        OSPrioCur     = OSPrioHighRdy;
  8029b0:	d0a6f703 	ldbu	r2,-25636(gp)
  8029b4:	d0a6f745 	stb	r2,-25635(gp)
        OSTCBHighRdy  = OSTCBPrioTbl[OSPrioHighRdy]; /* Point to highest priority task ready to run    */
  8029b8:	d0a6f703 	ldbu	r2,-25636(gp)
  8029bc:	10803fcc 	andi	r2,r2,255
  8029c0:	00c020b4 	movhi	r3,130
  8029c4:	18e02c04 	addi	r3,r3,-32592
  8029c8:	1085883a 	add	r2,r2,r2
  8029cc:	1085883a 	add	r2,r2,r2
  8029d0:	10c5883a 	add	r2,r2,r3
  8029d4:	10800017 	ldw	r2,0(r2)
  8029d8:	d0a6ff15 	stw	r2,-25604(gp)
        OSTCBCur      = OSTCBHighRdy;
  8029dc:	d0a6ff17 	ldw	r2,-25604(gp)
  8029e0:	d0a70415 	stw	r2,-25584(gp)
        OSStartHighRdy();                            /* Execute target specific code to start task     */
  8029e4:	080c1040 	call	80c104 <OSStartHighRdy>
    }
}
  8029e8:	e037883a 	mov	sp,fp
  8029ec:	dfc00117 	ldw	ra,4(sp)
  8029f0:	df000017 	ldw	fp,0(sp)
  8029f4:	dec00204 	addi	sp,sp,8
  8029f8:	f800283a 	ret

008029fc <OSStatInit>:
*********************************************************************************************************
*/

#if OS_TASK_STAT_EN > 0
void  OSStatInit (void)
{
  8029fc:	defff904 	addi	sp,sp,-28
  802a00:	dfc00615 	stw	ra,24(sp)
  802a04:	df000515 	stw	fp,20(sp)
  802a08:	df000504 	addi	fp,sp,20
#if OS_CRITICAL_METHOD == 3                      /* Allocate storage for CPU status register           */
    OS_CPU_SR  cpu_sr = 0;
  802a0c:	e03fff15 	stw	zero,-4(fp)
#endif



    OSTimeDly(2);                                /* Synchronize with clock tick                        */
  802a10:	01000084 	movi	r4,2
  802a14:	0809a5c0 	call	809a5c <OSTimeDly>
static ALT_INLINE alt_irq_context ALT_ALWAYS_INLINE 
       alt_irq_disable_all (void)
{
  alt_irq_context context;

  NIOS2_READ_STATUS (context);
  802a18:	0005303a 	rdctl	r2,status
  802a1c:	e0bffe15 	stw	r2,-8(fp)

  NIOS2_WRITE_STATUS (context & ~NIOS2_STATUS_PIE_MSK);
  802a20:	e0fffe17 	ldw	r3,-8(fp)
  802a24:	00bfff84 	movi	r2,-2
  802a28:	1884703a 	and	r2,r3,r2
  802a2c:	1001703a 	wrctl	status,r2
  
  return context;
  802a30:	e0bffe17 	ldw	r2,-8(fp)
    OS_ENTER_CRITICAL();
  802a34:	e0bfff15 	stw	r2,-4(fp)
    OSIdleCtr    = 0L;                           /* Clear idle counter                                 */
  802a38:	d026f615 	stw	zero,-25640(gp)
  802a3c:	e0bfff17 	ldw	r2,-4(fp)
  802a40:	e0bffd15 	stw	r2,-12(fp)
  status &= ~NIOS2_STATUS_PIE_MSK;
  status |= (context & NIOS2_STATUS_PIE_MSK);
  
  NIOS2_WRITE_STATUS (status);
#else
  NIOS2_WRITE_STATUS (context);
  802a44:	e0bffd17 	ldw	r2,-12(fp)
  802a48:	1001703a 	wrctl	status,r2
    OS_EXIT_CRITICAL();
    OSTimeDly(OS_TICKS_PER_SEC / 10);            /* Determine MAX. idle counter value for 1/10 second  */
  802a4c:	01001904 	movi	r4,100
  802a50:	0809a5c0 	call	809a5c <OSTimeDly>
static ALT_INLINE alt_irq_context ALT_ALWAYS_INLINE 
       alt_irq_disable_all (void)
{
  alt_irq_context context;

  NIOS2_READ_STATUS (context);
  802a54:	0005303a 	rdctl	r2,status
  802a58:	e0bffc15 	stw	r2,-16(fp)

  NIOS2_WRITE_STATUS (context & ~NIOS2_STATUS_PIE_MSK);
  802a5c:	e0fffc17 	ldw	r3,-16(fp)
  802a60:	00bfff84 	movi	r2,-2
  802a64:	1884703a 	and	r2,r3,r2
  802a68:	1001703a 	wrctl	status,r2
  
  return context;
  802a6c:	e0bffc17 	ldw	r2,-16(fp)
    OS_ENTER_CRITICAL();
  802a70:	e0bfff15 	stw	r2,-4(fp)
    OSIdleCtrMax = OSIdleCtr;                    /* Store maximum idle counter count in 1/10 second    */
  802a74:	d0a6f617 	ldw	r2,-25640(gp)
  802a78:	d0a6fb15 	stw	r2,-25620(gp)
    OSStatRdy    = OS_TRUE;
  802a7c:	00800044 	movi	r2,1
  802a80:	d0a70705 	stb	r2,-25572(gp)
  802a84:	e0bfff17 	ldw	r2,-4(fp)
  802a88:	e0bffb15 	stw	r2,-20(fp)
  status &= ~NIOS2_STATUS_PIE_MSK;
  status |= (context & NIOS2_STATUS_PIE_MSK);
  
  NIOS2_WRITE_STATUS (status);
#else
  NIOS2_WRITE_STATUS (context);
  802a8c:	e0bffb17 	ldw	r2,-20(fp)
  802a90:	1001703a 	wrctl	status,r2
    OS_EXIT_CRITICAL();
}
  802a94:	e037883a 	mov	sp,fp
  802a98:	dfc00117 	ldw	ra,4(sp)
  802a9c:	df000017 	ldw	fp,0(sp)
  802aa0:	dec00204 	addi	sp,sp,8
  802aa4:	f800283a 	ret

00802aa8 <OSTimeTick>:
* Returns    : none
*********************************************************************************************************
*/

void  OSTimeTick (void)
{
  802aa8:	defff604 	addi	sp,sp,-40
  802aac:	dfc00915 	stw	ra,36(sp)
  802ab0:	df000815 	stw	fp,32(sp)
  802ab4:	df000804 	addi	fp,sp,32
    OS_TCB    *ptcb;
#if OS_TICK_STEP_EN > 0
    BOOLEAN    step;
#endif
#if OS_CRITICAL_METHOD == 3                                /* Allocate storage for CPU status register     */
    OS_CPU_SR  cpu_sr = 0;
  802ab8:	e03ffc15 	stw	zero,-16(fp)
#endif



#if OS_TIME_TICK_HOOK_EN > 0
    OSTimeTickHook();                                      /* Call user definable hook                     */
  802abc:	080c4d00 	call	80c4d0 <OSTimeTickHook>
static ALT_INLINE alt_irq_context ALT_ALWAYS_INLINE 
       alt_irq_disable_all (void)
{
  alt_irq_context context;

  NIOS2_READ_STATUS (context);
  802ac0:	0005303a 	rdctl	r2,status
  802ac4:	e0bffb15 	stw	r2,-20(fp)

  NIOS2_WRITE_STATUS (context & ~NIOS2_STATUS_PIE_MSK);
  802ac8:	e0fffb17 	ldw	r3,-20(fp)
  802acc:	00bfff84 	movi	r2,-2
  802ad0:	1884703a 	and	r2,r3,r2
  802ad4:	1001703a 	wrctl	status,r2
  
  return context;
  802ad8:	e0bffb17 	ldw	r2,-20(fp)
#endif
#if OS_TIME_GET_SET_EN > 0
    OS_ENTER_CRITICAL();                                   /* Update the 32-bit tick counter               */
  802adc:	e0bffc15 	stw	r2,-16(fp)
    OSTime++;
  802ae0:	d0a70517 	ldw	r2,-25580(gp)
  802ae4:	10800044 	addi	r2,r2,1
  802ae8:	d0a70515 	stw	r2,-25580(gp)
  802aec:	e0bffc17 	ldw	r2,-16(fp)
  802af0:	e0bffa15 	stw	r2,-24(fp)
  status &= ~NIOS2_STATUS_PIE_MSK;
  status |= (context & NIOS2_STATUS_PIE_MSK);
  
  NIOS2_WRITE_STATUS (status);
#else
  NIOS2_WRITE_STATUS (context);
  802af4:	e0bffa17 	ldw	r2,-24(fp)
  802af8:	1001703a 	wrctl	status,r2
    OS_EXIT_CRITICAL();
#endif
    if (OSRunning == OS_TRUE) {
  802afc:	d0a6f543 	ldbu	r2,-25643(gp)
  802b00:	10803fcc 	andi	r2,r2,255
  802b04:	10800058 	cmpnei	r2,r2,1
  802b08:	1000721e 	bne	r2,zero,802cd4 <OSTimeTick+0x22c>
#if OS_TICK_STEP_EN > 0
        switch (OSTickStepState) {                         /* Determine whether we need to process a tick  */
  802b0c:	d0a6f903 	ldbu	r2,-25628(gp)
  802b10:	10803fcc 	andi	r2,r2,255
  802b14:	e0bfff15 	stw	r2,-4(fp)
  802b18:	e0ffff17 	ldw	r3,-4(fp)
  802b1c:	18800060 	cmpeqi	r2,r3,1
  802b20:	10000a1e 	bne	r2,zero,802b4c <OSTimeTick+0xa4>
  802b24:	e0ffff17 	ldw	r3,-4(fp)
  802b28:	188000a0 	cmpeqi	r2,r3,2
  802b2c:	1000091e 	bne	r2,zero,802b54 <OSTimeTick+0xac>
  802b30:	e0ffff17 	ldw	r3,-4(fp)
  802b34:	1805003a 	cmpeq	r2,r3,zero
  802b38:	1000011e 	bne	r2,zero,802b40 <OSTimeTick+0x98>
  802b3c:	00000a06 	br	802b68 <OSTimeTick+0xc0>
            case OS_TICK_STEP_DIS:                         /* Yes, stepping is disabled                    */
                 step = OS_TRUE;
  802b40:	00800044 	movi	r2,1
  802b44:	e0bffd05 	stb	r2,-12(fp)
                 break;
  802b48:	00000a06 	br	802b74 <OSTimeTick+0xcc>

            case OS_TICK_STEP_WAIT:                        /* No,  waiting for uC/OS-View to set ...       */
                 step = OS_FALSE;                          /*      .. OSTickStepState to OS_TICK_STEP_ONCE */
  802b4c:	e03ffd05 	stb	zero,-12(fp)
                 break;
  802b50:	00000806 	br	802b74 <OSTimeTick+0xcc>

            case OS_TICK_STEP_ONCE:                        /* Yes, process tick once and wait for next ... */
                 step            = OS_TRUE;                /*      ... step command from uC/OS-View        */
  802b54:	00800044 	movi	r2,1
  802b58:	e0bffd05 	stb	r2,-12(fp)
                 OSTickStepState = OS_TICK_STEP_WAIT;
  802b5c:	00800044 	movi	r2,1
  802b60:	d0a6f905 	stb	r2,-25628(gp)
                 break;
  802b64:	00000306 	br	802b74 <OSTimeTick+0xcc>

            default:                                       /* Invalid case, correct situation              */
                 step            = OS_TRUE;
  802b68:	00800044 	movi	r2,1
  802b6c:	e0bffd05 	stb	r2,-12(fp)
                 OSTickStepState = OS_TICK_STEP_DIS;
  802b70:	d026f905 	stb	zero,-25628(gp)
                 break;
        }
        if (step == OS_FALSE) {                            /* Return if waiting for step command           */
  802b74:	e0bffd03 	ldbu	r2,-12(fp)
  802b78:	1005003a 	cmpeq	r2,r2,zero
  802b7c:	1000551e 	bne	r2,zero,802cd4 <OSTimeTick+0x22c>
            return;
        }
#endif
        ptcb = OSTCBList;                                  /* Point at first TCB in TCB list               */
  802b80:	d0a6f817 	ldw	r2,-25632(gp)
  802b84:	e0bffe15 	stw	r2,-8(fp)
        while (ptcb->OSTCBPrio != OS_TASK_IDLE_PRIO) {     /* Go through all TCBs in TCB list              */
  802b88:	00004d06 	br	802cc0 <OSTimeTick+0x218>
static ALT_INLINE alt_irq_context ALT_ALWAYS_INLINE 
       alt_irq_disable_all (void)
{
  alt_irq_context context;

  NIOS2_READ_STATUS (context);
  802b8c:	0005303a 	rdctl	r2,status
  802b90:	e0bff915 	stw	r2,-28(fp)

  NIOS2_WRITE_STATUS (context & ~NIOS2_STATUS_PIE_MSK);
  802b94:	e0fff917 	ldw	r3,-28(fp)
  802b98:	00bfff84 	movi	r2,-2
  802b9c:	1884703a 	and	r2,r3,r2
  802ba0:	1001703a 	wrctl	status,r2
  
  return context;
  802ba4:	e0bff917 	ldw	r2,-28(fp)
            OS_ENTER_CRITICAL();
  802ba8:	e0bffc15 	stw	r2,-16(fp)
            if (ptcb->OSTCBDly != 0) {                     /* No, Delayed or waiting for event with TO     */
  802bac:	e0bffe17 	ldw	r2,-8(fp)
  802bb0:	10800b8b 	ldhu	r2,46(r2)
  802bb4:	10bfffcc 	andi	r2,r2,65535
  802bb8:	1005003a 	cmpeq	r2,r2,zero
  802bbc:	1000391e 	bne	r2,zero,802ca4 <OSTimeTick+0x1fc>
                if (--ptcb->OSTCBDly == 0) {               /* Decrement nbr of ticks to end of delay       */
  802bc0:	e0bffe17 	ldw	r2,-8(fp)
  802bc4:	10800b8b 	ldhu	r2,46(r2)
  802bc8:	10bfffc4 	addi	r2,r2,-1
  802bcc:	1007883a 	mov	r3,r2
  802bd0:	e0bffe17 	ldw	r2,-8(fp)
  802bd4:	10c00b8d 	sth	r3,46(r2)
  802bd8:	e0bffe17 	ldw	r2,-8(fp)
  802bdc:	10800b8b 	ldhu	r2,46(r2)
  802be0:	10bfffcc 	andi	r2,r2,65535
  802be4:	1004c03a 	cmpne	r2,r2,zero
  802be8:	10002e1e 	bne	r2,zero,802ca4 <OSTimeTick+0x1fc>
                                                           /* Check for timeout                            */
                    if ((ptcb->OSTCBStat & OS_STAT_PEND_ANY) != OS_STAT_RDY) {
  802bec:	e0bffe17 	ldw	r2,-8(fp)
  802bf0:	10800c03 	ldbu	r2,48(r2)
  802bf4:	10803fcc 	andi	r2,r2,255
  802bf8:	10800dcc 	andi	r2,r2,55
  802bfc:	1005003a 	cmpeq	r2,r2,zero
  802c00:	10000b1e 	bne	r2,zero,802c30 <OSTimeTick+0x188>
                        ptcb->OSTCBStat  &= ~(INT8U)OS_STAT_PEND_ANY;          /* Yes, Clear status flag   */
  802c04:	e0bffe17 	ldw	r2,-8(fp)
  802c08:	10c00c03 	ldbu	r3,48(r2)
  802c0c:	00bff204 	movi	r2,-56
  802c10:	1884703a 	and	r2,r3,r2
  802c14:	1007883a 	mov	r3,r2
  802c18:	e0bffe17 	ldw	r2,-8(fp)
  802c1c:	10c00c05 	stb	r3,48(r2)
                        ptcb->OSTCBStatPend = OS_STAT_PEND_TO;                 /* Indicate PEND timeout    */
  802c20:	e0fffe17 	ldw	r3,-8(fp)
  802c24:	00800044 	movi	r2,1
  802c28:	18800c45 	stb	r2,49(r3)
  802c2c:	00000206 	br	802c38 <OSTimeTick+0x190>
                    } else {
                        ptcb->OSTCBStatPend = OS_STAT_PEND_OK;
  802c30:	e0bffe17 	ldw	r2,-8(fp)
  802c34:	10000c45 	stb	zero,49(r2)
                    }

                    if ((ptcb->OSTCBStat & OS_STAT_SUSPEND) == OS_STAT_RDY) {  /* Is task suspended?       */
  802c38:	e0bffe17 	ldw	r2,-8(fp)
  802c3c:	10800c03 	ldbu	r2,48(r2)
  802c40:	10803fcc 	andi	r2,r2,255
  802c44:	1080020c 	andi	r2,r2,8
  802c48:	1004c03a 	cmpne	r2,r2,zero
  802c4c:	1000151e 	bne	r2,zero,802ca4 <OSTimeTick+0x1fc>
                        OSRdyGrp               |= ptcb->OSTCBBitY;             /* No,  Make ready          */
  802c50:	e0bffe17 	ldw	r2,-8(fp)
  802c54:	10c00d83 	ldbu	r3,54(r2)
  802c58:	d0a70103 	ldbu	r2,-25596(gp)
  802c5c:	1884b03a 	or	r2,r3,r2
  802c60:	d0a70105 	stb	r2,-25596(gp)
                        OSRdyTbl[ptcb->OSTCBY] |= ptcb->OSTCBBitX;
  802c64:	e0bffe17 	ldw	r2,-8(fp)
  802c68:	10800d03 	ldbu	r2,52(r2)
  802c6c:	11003fcc 	andi	r4,r2,255
  802c70:	e0bffe17 	ldw	r2,-8(fp)
  802c74:	10800d03 	ldbu	r2,52(r2)
  802c78:	10c03fcc 	andi	r3,r2,255
  802c7c:	d0a70144 	addi	r2,gp,-25595
  802c80:	1885883a 	add	r2,r3,r2
  802c84:	10c00003 	ldbu	r3,0(r2)
  802c88:	e0bffe17 	ldw	r2,-8(fp)
  802c8c:	10800d43 	ldbu	r2,53(r2)
  802c90:	1884b03a 	or	r2,r3,r2
  802c94:	1007883a 	mov	r3,r2
  802c98:	d0a70144 	addi	r2,gp,-25595
  802c9c:	2085883a 	add	r2,r4,r2
  802ca0:	10c00005 	stb	r3,0(r2)
                    }
                }
            }
            ptcb = ptcb->OSTCBNext;                        /* Point at next TCB in TCB list                */
  802ca4:	e0bffe17 	ldw	r2,-8(fp)
  802ca8:	10800517 	ldw	r2,20(r2)
  802cac:	e0bffe15 	stw	r2,-8(fp)
  802cb0:	e0bffc17 	ldw	r2,-16(fp)
  802cb4:	e0bff815 	stw	r2,-32(fp)
  status &= ~NIOS2_STATUS_PIE_MSK;
  status |= (context & NIOS2_STATUS_PIE_MSK);
  
  NIOS2_WRITE_STATUS (status);
#else
  NIOS2_WRITE_STATUS (context);
  802cb8:	e0bff817 	ldw	r2,-32(fp)
  802cbc:	1001703a 	wrctl	status,r2
        if (step == OS_FALSE) {                            /* Return if waiting for step command           */
            return;
        }
#endif
        ptcb = OSTCBList;                                  /* Point at first TCB in TCB list               */
        while (ptcb->OSTCBPrio != OS_TASK_IDLE_PRIO) {     /* Go through all TCBs in TCB list              */
  802cc0:	e0bffe17 	ldw	r2,-8(fp)
  802cc4:	10800c83 	ldbu	r2,50(r2)
  802cc8:	10803fcc 	andi	r2,r2,255
  802ccc:	10800518 	cmpnei	r2,r2,20
  802cd0:	103fae1e 	bne	r2,zero,802b8c <OSTimeTick+0xe4>
            }
            ptcb = ptcb->OSTCBNext;                        /* Point at next TCB in TCB list                */
            OS_EXIT_CRITICAL();
        }
    }
}
  802cd4:	e037883a 	mov	sp,fp
  802cd8:	dfc00117 	ldw	ra,4(sp)
  802cdc:	df000017 	ldw	fp,0(sp)
  802ce0:	dec00204 	addi	sp,sp,8
  802ce4:	f800283a 	ret

00802ce8 <OSVersion>:
* Returns    : the version number of uC/OS-II multiplied by 100.
*********************************************************************************************************
*/

INT16U  OSVersion (void)
{
  802ce8:	deffff04 	addi	sp,sp,-4
  802cec:	df000015 	stw	fp,0(sp)
  802cf0:	d839883a 	mov	fp,sp
    return (OS_VERSION);
  802cf4:	00804784 	movi	r2,286
}
  802cf8:	e037883a 	mov	sp,fp
  802cfc:	df000017 	ldw	fp,0(sp)
  802d00:	dec00104 	addi	sp,sp,4
  802d04:	f800283a 	ret

00802d08 <OS_Dummy>:
*********************************************************************************************************
*/

#if OS_TASK_DEL_EN > 0
void  OS_Dummy (void)
{
  802d08:	deffff04 	addi	sp,sp,-4
  802d0c:	df000015 	stw	fp,0(sp)
  802d10:	d839883a 	mov	fp,sp
}
  802d14:	e037883a 	mov	sp,fp
  802d18:	df000017 	ldw	fp,0(sp)
  802d1c:	dec00104 	addi	sp,sp,4
  802d20:	f800283a 	ret

00802d24 <OS_EventTaskRdy>:
* Note       : This function is INTERNAL to uC/OS-II and your application should not call it.
*********************************************************************************************************
*/
#if (OS_EVENT_EN)
INT8U  OS_EventTaskRdy (OS_EVENT *pevent, void *pmsg, INT8U msk, INT8U pend_stat)
{
  802d24:	defff804 	addi	sp,sp,-32
  802d28:	dfc00715 	stw	ra,28(sp)
  802d2c:	df000615 	stw	fp,24(sp)
  802d30:	df000604 	addi	fp,sp,24
  802d34:	e13ffc15 	stw	r4,-16(fp)
  802d38:	e17ffd15 	stw	r5,-12(fp)
  802d3c:	e1bffe05 	stb	r6,-8(fp)
  802d40:	e1ffff05 	stb	r7,-4(fp)
    INT16U  *ptbl;
#endif


#if OS_LOWEST_PRIO <= 63
    y    = OSUnMapTbl[pevent->OSEventGrp];              /* Find HPT waiting for message                */
  802d44:	e0bffc17 	ldw	r2,-16(fp)
  802d48:	10800283 	ldbu	r2,10(r2)
  802d4c:	10c03fcc 	andi	r3,r2,255
  802d50:	00802074 	movhi	r2,129
  802d54:	10bd7104 	addi	r2,r2,-2620
  802d58:	10c5883a 	add	r2,r2,r3
  802d5c:	10800003 	ldbu	r2,0(r2)
  802d60:	e0bffa85 	stb	r2,-22(fp)
    x    = OSUnMapTbl[pevent->OSEventTbl[y]];
  802d64:	e0fffa83 	ldbu	r3,-22(fp)
  802d68:	e0bffc17 	ldw	r2,-16(fp)
  802d6c:	1885883a 	add	r2,r3,r2
  802d70:	10800204 	addi	r2,r2,8
  802d74:	108000c3 	ldbu	r2,3(r2)
  802d78:	10c03fcc 	andi	r3,r2,255
  802d7c:	00802074 	movhi	r2,129
  802d80:	10bd7104 	addi	r2,r2,-2620
  802d84:	10c5883a 	add	r2,r2,r3
  802d88:	10800003 	ldbu	r2,0(r2)
  802d8c:	e0bffa45 	stb	r2,-23(fp)
    prio = (INT8U)((y << 3) + x);                       /* Find priority of task getting the msg       */
  802d90:	e0bffa83 	ldbu	r2,-22(fp)
  802d94:	100490fa 	slli	r2,r2,3
  802d98:	1007883a 	mov	r3,r2
  802d9c:	e0bffa43 	ldbu	r2,-23(fp)
  802da0:	1885883a 	add	r2,r3,r2
  802da4:	e0bffa05 	stb	r2,-24(fp)
        x = OSUnMapTbl[(*ptbl >> 8) & 0xFF] + 8;
    }
    prio = (INT8U)((y << 4) + x);                       /* Find priority of task getting the msg       */
#endif

    ptcb                  =  OSTCBPrioTbl[prio];        /* Point to this task's OS_TCB                 */
  802da8:	e0bffa03 	ldbu	r2,-24(fp)
  802dac:	00c020b4 	movhi	r3,130
  802db0:	18e02c04 	addi	r3,r3,-32592
  802db4:	1085883a 	add	r2,r2,r2
  802db8:	1085883a 	add	r2,r2,r2
  802dbc:	10c5883a 	add	r2,r2,r3
  802dc0:	10800017 	ldw	r2,0(r2)
  802dc4:	e0bffb15 	stw	r2,-20(fp)
    ptcb->OSTCBDly        =  0;                         /* Prevent OSTimeTick() from readying task     */
  802dc8:	e0bffb17 	ldw	r2,-20(fp)
  802dcc:	10000b8d 	sth	zero,46(r2)
#if ((OS_Q_EN > 0) && (OS_MAX_QS > 0)) || (OS_MBOX_EN > 0)
    ptcb->OSTCBMsg        =  pmsg;                      /* Send message directly to waiting task       */
  802dd0:	e0fffb17 	ldw	r3,-20(fp)
  802dd4:	e0bffd17 	ldw	r2,-12(fp)
  802dd8:	18800915 	stw	r2,36(r3)
#else
    pmsg                  =  pmsg;                      /* Prevent compiler warning if not used        */
#endif
    ptcb->OSTCBStat      &= ~msk;                       /* Clear bit associated with event type        */
  802ddc:	e0bffb17 	ldw	r2,-20(fp)
  802de0:	10800c03 	ldbu	r2,48(r2)
  802de4:	1007883a 	mov	r3,r2
  802de8:	e0bffe03 	ldbu	r2,-8(fp)
  802dec:	0084303a 	nor	r2,zero,r2
  802df0:	1884703a 	and	r2,r3,r2
  802df4:	1007883a 	mov	r3,r2
  802df8:	e0bffb17 	ldw	r2,-20(fp)
  802dfc:	10c00c05 	stb	r3,48(r2)
    ptcb->OSTCBStatPend   =  pend_stat;                 /* Set pend status of post or abort            */
  802e00:	e0fffb17 	ldw	r3,-20(fp)
  802e04:	e0bfff03 	ldbu	r2,-4(fp)
  802e08:	18800c45 	stb	r2,49(r3)
                                                        /* See if task is ready (could be susp'd)      */
    if ((ptcb->OSTCBStat &   OS_STAT_SUSPEND) == OS_STAT_RDY) {
  802e0c:	e0bffb17 	ldw	r2,-20(fp)
  802e10:	10800c03 	ldbu	r2,48(r2)
  802e14:	10803fcc 	andi	r2,r2,255
  802e18:	1080020c 	andi	r2,r2,8
  802e1c:	1004c03a 	cmpne	r2,r2,zero
  802e20:	1000111e 	bne	r2,zero,802e68 <OS_EventTaskRdy+0x144>
        OSRdyGrp         |=  ptcb->OSTCBBitY;           /* Put task in the ready to run list           */
  802e24:	e0bffb17 	ldw	r2,-20(fp)
  802e28:	10c00d83 	ldbu	r3,54(r2)
  802e2c:	d0a70103 	ldbu	r2,-25596(gp)
  802e30:	1884b03a 	or	r2,r3,r2
  802e34:	d0a70105 	stb	r2,-25596(gp)
        OSRdyTbl[y]      |=  ptcb->OSTCBBitX;
  802e38:	e13ffa83 	ldbu	r4,-22(fp)
  802e3c:	e0fffa83 	ldbu	r3,-22(fp)
  802e40:	d0a70144 	addi	r2,gp,-25595
  802e44:	1885883a 	add	r2,r3,r2
  802e48:	10c00003 	ldbu	r3,0(r2)
  802e4c:	e0bffb17 	ldw	r2,-20(fp)
  802e50:	10800d43 	ldbu	r2,53(r2)
  802e54:	1884b03a 	or	r2,r3,r2
  802e58:	1007883a 	mov	r3,r2
  802e5c:	d0a70144 	addi	r2,gp,-25595
  802e60:	2085883a 	add	r2,r4,r2
  802e64:	10c00005 	stb	r3,0(r2)
    }

    OS_EventTaskRemove(ptcb, pevent);                   /* Remove this task from event   wait list     */
  802e68:	e13ffb17 	ldw	r4,-20(fp)
  802e6c:	e17ffc17 	ldw	r5,-16(fp)
  802e70:	080311c0 	call	80311c <OS_EventTaskRemove>
#if (OS_EVENT_MULTI_EN > 0)
    if (ptcb->OSTCBEventMultiPtr != (OS_EVENT **)0) {   /* Remove this task from events' wait lists    */
  802e74:	e0bffb17 	ldw	r2,-20(fp)
  802e78:	10800817 	ldw	r2,32(r2)
  802e7c:	1005003a 	cmpeq	r2,r2,zero
  802e80:	1000071e 	bne	r2,zero,802ea0 <OS_EventTaskRdy+0x17c>
        OS_EventTaskRemoveMulti(ptcb, ptcb->OSTCBEventMultiPtr);
  802e84:	e0bffb17 	ldw	r2,-20(fp)
  802e88:	11400817 	ldw	r5,32(r2)
  802e8c:	e13ffb17 	ldw	r4,-20(fp)
  802e90:	08031d40 	call	8031d4 <OS_EventTaskRemoveMulti>
        ptcb->OSTCBEventPtr       = (OS_EVENT  *)pevent;/* Return event as first multi-pend event ready*/
  802e94:	e0fffb17 	ldw	r3,-20(fp)
  802e98:	e0bffc17 	ldw	r2,-16(fp)
  802e9c:	18800715 	stw	r2,28(r3)
    }
#endif

    return (prio);
  802ea0:	e0bffa03 	ldbu	r2,-24(fp)
}
  802ea4:	e037883a 	mov	sp,fp
  802ea8:	dfc00117 	ldw	ra,4(sp)
  802eac:	df000017 	ldw	fp,0(sp)
  802eb0:	dec00204 	addi	sp,sp,8
  802eb4:	f800283a 	ret

00802eb8 <OS_EventTaskWait>:
* Note       : This function is INTERNAL to uC/OS-II and your application should not call it.
*********************************************************************************************************
*/
#if (OS_EVENT_EN)
void  OS_EventTaskWait (OS_EVENT *pevent)
{
  802eb8:	defffd04 	addi	sp,sp,-12
  802ebc:	df000215 	stw	fp,8(sp)
  802ec0:	df000204 	addi	fp,sp,8
  802ec4:	e13fff15 	stw	r4,-4(fp)
    INT8U  y;


    OSTCBCur->OSTCBEventPtr               = pevent;                 /* Store ptr to ECB in TCB         */
  802ec8:	d0e70417 	ldw	r3,-25584(gp)
  802ecc:	e0bfff17 	ldw	r2,-4(fp)
  802ed0:	18800715 	stw	r2,28(r3)

    pevent->OSEventTbl[OSTCBCur->OSTCBY] |= OSTCBCur->OSTCBBitX;    /* Put task in waiting list        */
  802ed4:	d0a70417 	ldw	r2,-25584(gp)
  802ed8:	10800d03 	ldbu	r2,52(r2)
  802edc:	11003fcc 	andi	r4,r2,255
  802ee0:	d0a70417 	ldw	r2,-25584(gp)
  802ee4:	10800d03 	ldbu	r2,52(r2)
  802ee8:	10c03fcc 	andi	r3,r2,255
  802eec:	e0bfff17 	ldw	r2,-4(fp)
  802ef0:	1885883a 	add	r2,r3,r2
  802ef4:	10800204 	addi	r2,r2,8
  802ef8:	10c000c3 	ldbu	r3,3(r2)
  802efc:	d0a70417 	ldw	r2,-25584(gp)
  802f00:	10800d43 	ldbu	r2,53(r2)
  802f04:	1884b03a 	or	r2,r3,r2
  802f08:	1007883a 	mov	r3,r2
  802f0c:	e0bfff17 	ldw	r2,-4(fp)
  802f10:	2085883a 	add	r2,r4,r2
  802f14:	10800204 	addi	r2,r2,8
  802f18:	10c000c5 	stb	r3,3(r2)
    pevent->OSEventGrp                   |= OSTCBCur->OSTCBBitY;
  802f1c:	e0bfff17 	ldw	r2,-4(fp)
  802f20:	10c00283 	ldbu	r3,10(r2)
  802f24:	d0a70417 	ldw	r2,-25584(gp)
  802f28:	10800d83 	ldbu	r2,54(r2)
  802f2c:	1884b03a 	or	r2,r3,r2
  802f30:	1007883a 	mov	r3,r2
  802f34:	e0bfff17 	ldw	r2,-4(fp)
  802f38:	10c00285 	stb	r3,10(r2)

    y             =  OSTCBCur->OSTCBY;            /* Task no longer ready                              */
  802f3c:	d0a70417 	ldw	r2,-25584(gp)
  802f40:	10800d03 	ldbu	r2,52(r2)
  802f44:	e0bffe05 	stb	r2,-8(fp)
    OSRdyTbl[y]  &= ~OSTCBCur->OSTCBBitX;
  802f48:	e13ffe03 	ldbu	r4,-8(fp)
  802f4c:	e0fffe03 	ldbu	r3,-8(fp)
  802f50:	d0a70144 	addi	r2,gp,-25595
  802f54:	1885883a 	add	r2,r3,r2
  802f58:	10800003 	ldbu	r2,0(r2)
  802f5c:	1007883a 	mov	r3,r2
  802f60:	d0a70417 	ldw	r2,-25584(gp)
  802f64:	10800d43 	ldbu	r2,53(r2)
  802f68:	0084303a 	nor	r2,zero,r2
  802f6c:	1884703a 	and	r2,r3,r2
  802f70:	1007883a 	mov	r3,r2
  802f74:	d0a70144 	addi	r2,gp,-25595
  802f78:	2085883a 	add	r2,r4,r2
  802f7c:	10c00005 	stb	r3,0(r2)
    if (OSRdyTbl[y] == 0) {
  802f80:	e0fffe03 	ldbu	r3,-8(fp)
  802f84:	d0a70144 	addi	r2,gp,-25595
  802f88:	1885883a 	add	r2,r3,r2
  802f8c:	10800003 	ldbu	r2,0(r2)
  802f90:	10803fcc 	andi	r2,r2,255
  802f94:	1004c03a 	cmpne	r2,r2,zero
  802f98:	1000071e 	bne	r2,zero,802fb8 <OS_EventTaskWait+0x100>
        OSRdyGrp &= ~OSTCBCur->OSTCBBitY;         /* Clear event grp bit if this was only task pending */
  802f9c:	d0a70417 	ldw	r2,-25584(gp)
  802fa0:	10800d83 	ldbu	r2,54(r2)
  802fa4:	0084303a 	nor	r2,zero,r2
  802fa8:	1007883a 	mov	r3,r2
  802fac:	d0a70103 	ldbu	r2,-25596(gp)
  802fb0:	1884703a 	and	r2,r3,r2
  802fb4:	d0a70105 	stb	r2,-25596(gp)
    }
}
  802fb8:	e037883a 	mov	sp,fp
  802fbc:	df000017 	ldw	fp,0(sp)
  802fc0:	dec00104 	addi	sp,sp,4
  802fc4:	f800283a 	ret

00802fc8 <OS_EventTaskWaitMulti>:
* Note       : This function is INTERNAL to uC/OS-II and your application should not call it.
*********************************************************************************************************
*/
#if ((OS_EVENT_EN) && (OS_EVENT_MULTI_EN > 0))
void  OS_EventTaskWaitMulti (OS_EVENT **pevents_wait)
{
  802fc8:	defffb04 	addi	sp,sp,-20
  802fcc:	df000415 	stw	fp,16(sp)
  802fd0:	df000404 	addi	fp,sp,16
  802fd4:	e13fff15 	stw	r4,-4(fp)
    OS_EVENT **pevents;
    OS_EVENT  *pevent;
    INT8U      y;


    OSTCBCur->OSTCBEventPtr      = (OS_EVENT  *)0;
  802fd8:	d0a70417 	ldw	r2,-25584(gp)
  802fdc:	10000715 	stw	zero,28(r2)
    OSTCBCur->OSTCBEventMultiPtr = (OS_EVENT **)pevents_wait;       /* Store ptr to ECBs in TCB        */
  802fe0:	d0e70417 	ldw	r3,-25584(gp)
  802fe4:	e0bfff17 	ldw	r2,-4(fp)
  802fe8:	18800815 	stw	r2,32(r3)

    pevents =  pevents_wait;
  802fec:	e0bfff17 	ldw	r2,-4(fp)
  802ff0:	e0bffe15 	stw	r2,-8(fp)
    pevent  = *pevents;
  802ff4:	e0bffe17 	ldw	r2,-8(fp)
  802ff8:	10800017 	ldw	r2,0(r2)
  802ffc:	e0bffd15 	stw	r2,-12(fp)
    while (pevent != (OS_EVENT *)0) {                               /* Put task in waiting lists       */
  803000:	00002006 	br	803084 <OS_EventTaskWaitMulti+0xbc>
        pevent->OSEventTbl[OSTCBCur->OSTCBY] |= OSTCBCur->OSTCBBitX;
  803004:	d0a70417 	ldw	r2,-25584(gp)
  803008:	10800d03 	ldbu	r2,52(r2)
  80300c:	11003fcc 	andi	r4,r2,255
  803010:	d0a70417 	ldw	r2,-25584(gp)
  803014:	10800d03 	ldbu	r2,52(r2)
  803018:	10c03fcc 	andi	r3,r2,255
  80301c:	e0bffd17 	ldw	r2,-12(fp)
  803020:	1885883a 	add	r2,r3,r2
  803024:	10800204 	addi	r2,r2,8
  803028:	10c000c3 	ldbu	r3,3(r2)
  80302c:	d0a70417 	ldw	r2,-25584(gp)
  803030:	10800d43 	ldbu	r2,53(r2)
  803034:	1884b03a 	or	r2,r3,r2
  803038:	1007883a 	mov	r3,r2
  80303c:	e0bffd17 	ldw	r2,-12(fp)
  803040:	2085883a 	add	r2,r4,r2
  803044:	10800204 	addi	r2,r2,8
  803048:	10c000c5 	stb	r3,3(r2)
        pevent->OSEventGrp                   |= OSTCBCur->OSTCBBitY;
  80304c:	e0bffd17 	ldw	r2,-12(fp)
  803050:	10c00283 	ldbu	r3,10(r2)
  803054:	d0a70417 	ldw	r2,-25584(gp)
  803058:	10800d83 	ldbu	r2,54(r2)
  80305c:	1884b03a 	or	r2,r3,r2
  803060:	1007883a 	mov	r3,r2
  803064:	e0bffd17 	ldw	r2,-12(fp)
  803068:	10c00285 	stb	r3,10(r2)
        pevents++;
  80306c:	e0bffe17 	ldw	r2,-8(fp)
  803070:	10800104 	addi	r2,r2,4
  803074:	e0bffe15 	stw	r2,-8(fp)
        pevent = *pevents;
  803078:	e0bffe17 	ldw	r2,-8(fp)
  80307c:	10800017 	ldw	r2,0(r2)
  803080:	e0bffd15 	stw	r2,-12(fp)
    OSTCBCur->OSTCBEventPtr      = (OS_EVENT  *)0;
    OSTCBCur->OSTCBEventMultiPtr = (OS_EVENT **)pevents_wait;       /* Store ptr to ECBs in TCB        */

    pevents =  pevents_wait;
    pevent  = *pevents;
    while (pevent != (OS_EVENT *)0) {                               /* Put task in waiting lists       */
  803084:	e0bffd17 	ldw	r2,-12(fp)
  803088:	1004c03a 	cmpne	r2,r2,zero
  80308c:	103fdd1e 	bne	r2,zero,803004 <OS_EventTaskWaitMulti+0x3c>
        pevent->OSEventGrp                   |= OSTCBCur->OSTCBBitY;
        pevents++;
        pevent = *pevents;
    }

    y             =  OSTCBCur->OSTCBY;            /* Task no longer ready                              */
  803090:	d0a70417 	ldw	r2,-25584(gp)
  803094:	10800d03 	ldbu	r2,52(r2)
  803098:	e0bffc05 	stb	r2,-16(fp)
    OSRdyTbl[y]  &= ~OSTCBCur->OSTCBBitX;
  80309c:	e13ffc03 	ldbu	r4,-16(fp)
  8030a0:	e0fffc03 	ldbu	r3,-16(fp)
  8030a4:	d0a70144 	addi	r2,gp,-25595
  8030a8:	1885883a 	add	r2,r3,r2
  8030ac:	10800003 	ldbu	r2,0(r2)
  8030b0:	1007883a 	mov	r3,r2
  8030b4:	d0a70417 	ldw	r2,-25584(gp)
  8030b8:	10800d43 	ldbu	r2,53(r2)
  8030bc:	0084303a 	nor	r2,zero,r2
  8030c0:	1884703a 	and	r2,r3,r2
  8030c4:	1007883a 	mov	r3,r2
  8030c8:	d0a70144 	addi	r2,gp,-25595
  8030cc:	2085883a 	add	r2,r4,r2
  8030d0:	10c00005 	stb	r3,0(r2)
    if (OSRdyTbl[y] == 0) {
  8030d4:	e0fffc03 	ldbu	r3,-16(fp)
  8030d8:	d0a70144 	addi	r2,gp,-25595
  8030dc:	1885883a 	add	r2,r3,r2
  8030e0:	10800003 	ldbu	r2,0(r2)
  8030e4:	10803fcc 	andi	r2,r2,255
  8030e8:	1004c03a 	cmpne	r2,r2,zero
  8030ec:	1000071e 	bne	r2,zero,80310c <OS_EventTaskWaitMulti+0x144>
        OSRdyGrp &= ~OSTCBCur->OSTCBBitY;         /* Clear event grp bit if this was only task pending */
  8030f0:	d0a70417 	ldw	r2,-25584(gp)
  8030f4:	10800d83 	ldbu	r2,54(r2)
  8030f8:	0084303a 	nor	r2,zero,r2
  8030fc:	1007883a 	mov	r3,r2
  803100:	d0a70103 	ldbu	r2,-25596(gp)
  803104:	1884703a 	and	r2,r3,r2
  803108:	d0a70105 	stb	r2,-25596(gp)
    }
}
  80310c:	e037883a 	mov	sp,fp
  803110:	df000017 	ldw	fp,0(sp)
  803114:	dec00104 	addi	sp,sp,4
  803118:	f800283a 	ret

0080311c <OS_EventTaskRemove>:
*********************************************************************************************************
*/
#if (OS_EVENT_EN)
void  OS_EventTaskRemove (OS_TCB   *ptcb,
                          OS_EVENT *pevent)
{
  80311c:	defffc04 	addi	sp,sp,-16
  803120:	df000315 	stw	fp,12(sp)
  803124:	df000304 	addi	fp,sp,12
  803128:	e13ffe15 	stw	r4,-8(fp)
  80312c:	e17fff15 	stw	r5,-4(fp)
    INT8U  y;


    y                       =  ptcb->OSTCBY;
  803130:	e0bffe17 	ldw	r2,-8(fp)
  803134:	10800d03 	ldbu	r2,52(r2)
  803138:	e0bffd05 	stb	r2,-12(fp)
    pevent->OSEventTbl[y]  &= ~ptcb->OSTCBBitX;         /* Remove task from wait list                  */
  80313c:	e13ffd03 	ldbu	r4,-12(fp)
  803140:	e0fffd03 	ldbu	r3,-12(fp)
  803144:	e0bfff17 	ldw	r2,-4(fp)
  803148:	1885883a 	add	r2,r3,r2
  80314c:	10800204 	addi	r2,r2,8
  803150:	108000c3 	ldbu	r2,3(r2)
  803154:	1007883a 	mov	r3,r2
  803158:	e0bffe17 	ldw	r2,-8(fp)
  80315c:	10800d43 	ldbu	r2,53(r2)
  803160:	0084303a 	nor	r2,zero,r2
  803164:	1884703a 	and	r2,r3,r2
  803168:	1007883a 	mov	r3,r2
  80316c:	e0bfff17 	ldw	r2,-4(fp)
  803170:	2085883a 	add	r2,r4,r2
  803174:	10800204 	addi	r2,r2,8
  803178:	10c000c5 	stb	r3,3(r2)
    if (pevent->OSEventTbl[y] == 0) {
  80317c:	e0fffd03 	ldbu	r3,-12(fp)
  803180:	e0bfff17 	ldw	r2,-4(fp)
  803184:	1885883a 	add	r2,r3,r2
  803188:	10800204 	addi	r2,r2,8
  80318c:	108000c3 	ldbu	r2,3(r2)
  803190:	10803fcc 	andi	r2,r2,255
  803194:	1004c03a 	cmpne	r2,r2,zero
  803198:	10000a1e 	bne	r2,zero,8031c4 <OS_EventTaskRemove+0xa8>
        pevent->OSEventGrp &= ~ptcb->OSTCBBitY;
  80319c:	e0bfff17 	ldw	r2,-4(fp)
  8031a0:	10800283 	ldbu	r2,10(r2)
  8031a4:	1007883a 	mov	r3,r2
  8031a8:	e0bffe17 	ldw	r2,-8(fp)
  8031ac:	10800d83 	ldbu	r2,54(r2)
  8031b0:	0084303a 	nor	r2,zero,r2
  8031b4:	1884703a 	and	r2,r3,r2
  8031b8:	1007883a 	mov	r3,r2
  8031bc:	e0bfff17 	ldw	r2,-4(fp)
  8031c0:	10c00285 	stb	r3,10(r2)
    }
}
  8031c4:	e037883a 	mov	sp,fp
  8031c8:	df000017 	ldw	fp,0(sp)
  8031cc:	dec00104 	addi	sp,sp,4
  8031d0:	f800283a 	ret

008031d4 <OS_EventTaskRemoveMulti>:
*********************************************************************************************************
*/
#if ((OS_EVENT_EN) && (OS_EVENT_MULTI_EN > 0))
void  OS_EventTaskRemoveMulti (OS_TCB    *ptcb,
                               OS_EVENT **pevents_multi)
{
  8031d4:	defffa04 	addi	sp,sp,-24
  8031d8:	df000515 	stw	fp,20(sp)
  8031dc:	df000504 	addi	fp,sp,20
  8031e0:	e13ffe15 	stw	r4,-8(fp)
  8031e4:	e17fff15 	stw	r5,-4(fp)
    INT16U     bity;
    INT16U     bitx;
#endif


    y       =  ptcb->OSTCBY;
  8031e8:	e0bffe17 	ldw	r2,-8(fp)
  8031ec:	10800d03 	ldbu	r2,52(r2)
  8031f0:	e0bffb85 	stb	r2,-18(fp)
    bity    =  ptcb->OSTCBBitY;
  8031f4:	e0bffe17 	ldw	r2,-8(fp)
  8031f8:	10800d83 	ldbu	r2,54(r2)
  8031fc:	e0bffb45 	stb	r2,-19(fp)
    bitx    =  ptcb->OSTCBBitX;
  803200:	e0bffe17 	ldw	r2,-8(fp)
  803204:	10800d43 	ldbu	r2,53(r2)
  803208:	e0bffb05 	stb	r2,-20(fp)
    pevents =  pevents_multi;
  80320c:	e0bfff17 	ldw	r2,-4(fp)
  803210:	e0bffd15 	stw	r2,-12(fp)
    pevent  = *pevents;
  803214:	e0bffd17 	ldw	r2,-12(fp)
  803218:	10800017 	ldw	r2,0(r2)
  80321c:	e0bffc15 	stw	r2,-16(fp)
    while (pevent != (OS_EVENT *)0) {                   /* Remove task from all events' wait lists     */
  803220:	00002606 	br	8032bc <OS_EventTaskRemoveMulti+0xe8>
        pevent->OSEventTbl[y]  &= ~bitx;
  803224:	e13ffb83 	ldbu	r4,-18(fp)
  803228:	e0fffb83 	ldbu	r3,-18(fp)
  80322c:	e0bffc17 	ldw	r2,-16(fp)
  803230:	1885883a 	add	r2,r3,r2
  803234:	10800204 	addi	r2,r2,8
  803238:	108000c3 	ldbu	r2,3(r2)
  80323c:	1007883a 	mov	r3,r2
  803240:	e0bffb03 	ldbu	r2,-20(fp)
  803244:	0084303a 	nor	r2,zero,r2
  803248:	1884703a 	and	r2,r3,r2
  80324c:	1007883a 	mov	r3,r2
  803250:	e0bffc17 	ldw	r2,-16(fp)
  803254:	2085883a 	add	r2,r4,r2
  803258:	10800204 	addi	r2,r2,8
  80325c:	10c000c5 	stb	r3,3(r2)
        if (pevent->OSEventTbl[y] == 0) {
  803260:	e0fffb83 	ldbu	r3,-18(fp)
  803264:	e0bffc17 	ldw	r2,-16(fp)
  803268:	1885883a 	add	r2,r3,r2
  80326c:	10800204 	addi	r2,r2,8
  803270:	108000c3 	ldbu	r2,3(r2)
  803274:	10803fcc 	andi	r2,r2,255
  803278:	1004c03a 	cmpne	r2,r2,zero
  80327c:	1000091e 	bne	r2,zero,8032a4 <OS_EventTaskRemoveMulti+0xd0>
            pevent->OSEventGrp &= ~bity;
  803280:	e0bffc17 	ldw	r2,-16(fp)
  803284:	10800283 	ldbu	r2,10(r2)
  803288:	1007883a 	mov	r3,r2
  80328c:	e0bffb43 	ldbu	r2,-19(fp)
  803290:	0084303a 	nor	r2,zero,r2
  803294:	1884703a 	and	r2,r3,r2
  803298:	1007883a 	mov	r3,r2
  80329c:	e0bffc17 	ldw	r2,-16(fp)
  8032a0:	10c00285 	stb	r3,10(r2)
        }
        pevents++;
  8032a4:	e0bffd17 	ldw	r2,-12(fp)
  8032a8:	10800104 	addi	r2,r2,4
  8032ac:	e0bffd15 	stw	r2,-12(fp)
        pevent = *pevents;
  8032b0:	e0bffd17 	ldw	r2,-12(fp)
  8032b4:	10800017 	ldw	r2,0(r2)
  8032b8:	e0bffc15 	stw	r2,-16(fp)
    y       =  ptcb->OSTCBY;
    bity    =  ptcb->OSTCBBitY;
    bitx    =  ptcb->OSTCBBitX;
    pevents =  pevents_multi;
    pevent  = *pevents;
    while (pevent != (OS_EVENT *)0) {                   /* Remove task from all events' wait lists     */
  8032bc:	e0bffc17 	ldw	r2,-16(fp)
  8032c0:	1004c03a 	cmpne	r2,r2,zero
  8032c4:	103fd71e 	bne	r2,zero,803224 <OS_EventTaskRemoveMulti+0x50>
            pevent->OSEventGrp &= ~bity;
        }
        pevents++;
        pevent = *pevents;
    }
}
  8032c8:	e037883a 	mov	sp,fp
  8032cc:	df000017 	ldw	fp,0(sp)
  8032d0:	dec00104 	addi	sp,sp,4
  8032d4:	f800283a 	ret

008032d8 <OS_EventWaitListInit>:
* Note       : This function is INTERNAL to uC/OS-II and your application should not call it.
*********************************************************************************************************
*/
#if (OS_EVENT_EN)
void  OS_EventWaitListInit (OS_EVENT *pevent)
{
  8032d8:	defffc04 	addi	sp,sp,-16
  8032dc:	df000315 	stw	fp,12(sp)
  8032e0:	df000304 	addi	fp,sp,12
  8032e4:	e13fff15 	stw	r4,-4(fp)
    INT16U *ptbl;
#endif
    INT8U   i;


    pevent->OSEventGrp = 0;                      /* No task waiting on event                           */
  8032e8:	e0bfff17 	ldw	r2,-4(fp)
  8032ec:	10000285 	stb	zero,10(r2)
    ptbl               = &pevent->OSEventTbl[0];
  8032f0:	e0bfff17 	ldw	r2,-4(fp)
  8032f4:	108002c4 	addi	r2,r2,11
  8032f8:	e0bffe15 	stw	r2,-8(fp)

    for (i = 0; i < OS_EVENT_TBL_SIZE; i++) {
  8032fc:	e03ffd05 	stb	zero,-12(fp)
  803300:	00000806 	br	803324 <OS_EventWaitListInit+0x4c>
        *ptbl++ = 0;
  803304:	e0bffe17 	ldw	r2,-8(fp)
  803308:	10000005 	stb	zero,0(r2)
  80330c:	e0bffe17 	ldw	r2,-8(fp)
  803310:	10800044 	addi	r2,r2,1
  803314:	e0bffe15 	stw	r2,-8(fp)


    pevent->OSEventGrp = 0;                      /* No task waiting on event                           */
    ptbl               = &pevent->OSEventTbl[0];

    for (i = 0; i < OS_EVENT_TBL_SIZE; i++) {
  803318:	e0bffd03 	ldbu	r2,-12(fp)
  80331c:	10800044 	addi	r2,r2,1
  803320:	e0bffd05 	stb	r2,-12(fp)
  803324:	e0bffd03 	ldbu	r2,-12(fp)
  803328:	108000f0 	cmpltui	r2,r2,3
  80332c:	103ff51e 	bne	r2,zero,803304 <OS_EventWaitListInit+0x2c>
        *ptbl++ = 0;
    }
}
  803330:	e037883a 	mov	sp,fp
  803334:	df000017 	ldw	fp,0(sp)
  803338:	dec00104 	addi	sp,sp,4
  80333c:	f800283a 	ret

00803340 <OS_InitEventList>:
* Returns    : none
*********************************************************************************************************
*/

static  void  OS_InitEventList (void)
{
  803340:	defffb04 	addi	sp,sp,-20
  803344:	dfc00415 	stw	ra,16(sp)
  803348:	df000315 	stw	fp,12(sp)
  80334c:	df000304 	addi	fp,sp,12
    INT16U     i;
    OS_EVENT  *pevent1;
    OS_EVENT  *pevent2;


    OS_MemClr((INT8U *)&OSEventTbl[0], sizeof(OSEventTbl)); /* Clear the event table                   */
  803350:	01002074 	movhi	r4,129
  803354:	211c1804 	addi	r4,r4,28768
  803358:	0142d004 	movi	r5,2880
  80335c:	08036a40 	call	8036a4 <OS_MemClr>
    pevent1 = &OSEventTbl[0];
  803360:	00802074 	movhi	r2,129
  803364:	109c1804 	addi	r2,r2,28768
  803368:	e0bffe15 	stw	r2,-8(fp)
    pevent2 = &OSEventTbl[1];
  80336c:	00802074 	movhi	r2,129
  803370:	109c2404 	addi	r2,r2,28816
  803374:	e0bffd15 	stw	r2,-12(fp)
    for (i = 0; i < (OS_MAX_EVENTS - 1); i++) {             /* Init. list of free EVENT control blocks */
  803378:	e03fff0d 	sth	zero,-4(fp)
  80337c:	00001306 	br	8033cc <OS_InitEventList+0x8c>
        pevent1->OSEventType    = OS_EVENT_TYPE_UNUSED;
  803380:	e0bffe17 	ldw	r2,-8(fp)
  803384:	10000005 	stb	zero,0(r2)
        pevent1->OSEventPtr     = pevent2;
  803388:	e0fffe17 	ldw	r3,-8(fp)
  80338c:	e0bffd17 	ldw	r2,-12(fp)
  803390:	18800115 	stw	r2,4(r3)
#if OS_EVENT_NAME_SIZE > 1
        pevent1->OSEventName[0] = '?';                      /* Unknown name                            */
  803394:	e0fffe17 	ldw	r3,-8(fp)
  803398:	00800fc4 	movi	r2,63
  80339c:	18800385 	stb	r2,14(r3)
        pevent1->OSEventName[1] = OS_ASCII_NUL;
  8033a0:	e0bffe17 	ldw	r2,-8(fp)
  8033a4:	100003c5 	stb	zero,15(r2)
#endif
        pevent1++;
  8033a8:	e0bffe17 	ldw	r2,-8(fp)
  8033ac:	10800c04 	addi	r2,r2,48
  8033b0:	e0bffe15 	stw	r2,-8(fp)
        pevent2++;
  8033b4:	e0bffd17 	ldw	r2,-12(fp)
  8033b8:	10800c04 	addi	r2,r2,48
  8033bc:	e0bffd15 	stw	r2,-12(fp)


    OS_MemClr((INT8U *)&OSEventTbl[0], sizeof(OSEventTbl)); /* Clear the event table                   */
    pevent1 = &OSEventTbl[0];
    pevent2 = &OSEventTbl[1];
    for (i = 0; i < (OS_MAX_EVENTS - 1); i++) {             /* Init. list of free EVENT control blocks */
  8033c0:	e0bfff0b 	ldhu	r2,-4(fp)
  8033c4:	10800044 	addi	r2,r2,1
  8033c8:	e0bfff0d 	sth	r2,-4(fp)
  8033cc:	e0bfff0b 	ldhu	r2,-4(fp)
  8033d0:	10800ef0 	cmpltui	r2,r2,59
  8033d4:	103fea1e 	bne	r2,zero,803380 <OS_InitEventList+0x40>
        pevent1->OSEventName[1] = OS_ASCII_NUL;
#endif
        pevent1++;
        pevent2++;
    }
    pevent1->OSEventType            = OS_EVENT_TYPE_UNUSED;
  8033d8:	e0bffe17 	ldw	r2,-8(fp)
  8033dc:	10000005 	stb	zero,0(r2)
    pevent1->OSEventPtr             = (OS_EVENT *)0;
  8033e0:	e0bffe17 	ldw	r2,-8(fp)
  8033e4:	10000115 	stw	zero,4(r2)
#if OS_EVENT_NAME_SIZE > 1
    pevent1->OSEventName[0]         = '?';
  8033e8:	e0fffe17 	ldw	r3,-8(fp)
  8033ec:	00800fc4 	movi	r2,63
  8033f0:	18800385 	stb	r2,14(r3)
    pevent1->OSEventName[1]         = OS_ASCII_NUL;
  8033f4:	e0bffe17 	ldw	r2,-8(fp)
  8033f8:	100003c5 	stb	zero,15(r2)
#endif
    OSEventFreeList                 = &OSEventTbl[0];
  8033fc:	00802074 	movhi	r2,129
  803400:	109c1804 	addi	r2,r2,28768
  803404:	d0a70215 	stw	r2,-25592(gp)
    OSEventFreeList->OSEventName[0] = '?';                  /* Unknown name                            */
    OSEventFreeList->OSEventName[1] = OS_ASCII_NUL;
#endif
#endif
#endif
}
  803408:	e037883a 	mov	sp,fp
  80340c:	dfc00117 	ldw	ra,4(sp)
  803410:	df000017 	ldw	fp,0(sp)
  803414:	dec00204 	addi	sp,sp,8
  803418:	f800283a 	ret

0080341c <OS_InitMisc>:
* Returns    : none
*********************************************************************************************************
*/

static  void  OS_InitMisc (void)
{
  80341c:	deffff04 	addi	sp,sp,-4
  803420:	df000015 	stw	fp,0(sp)
  803424:	d839883a 	mov	fp,sp
#if OS_TIME_GET_SET_EN > 0
    OSTime        = 0L;                                    /* Clear the 32-bit system clock            */
  803428:	d0270515 	stw	zero,-25580(gp)
#endif

    OSIntNesting  = 0;                                     /* Clear the interrupt nesting counter      */
  80342c:	d0270305 	stb	zero,-25588(gp)
    OSLockNesting = 0;                                     /* Clear the scheduling lock counter        */
  803430:	d026f505 	stb	zero,-25644(gp)

    OSTaskCtr     = 0;                                     /* Clear the number of tasks                */
  803434:	d026fd45 	stb	zero,-25611(gp)

    OSRunning     = OS_FALSE;                              /* Indicate that multitasking not started   */
  803438:	d026f545 	stb	zero,-25643(gp)

    OSCtxSwCtr    = 0;                                     /* Clear the context switch counter         */
  80343c:	d026fa15 	stw	zero,-25624(gp)
    OSIdleCtr     = 0L;                                    /* Clear the 32-bit idle counter            */
  803440:	d026f615 	stw	zero,-25640(gp)

#if OS_TASK_STAT_EN > 0
    OSIdleCtrRun  = 0L;
  803444:	d0270815 	stw	zero,-25568(gp)
    OSIdleCtrMax  = 0L;
  803448:	d026fb15 	stw	zero,-25620(gp)
    OSStatRdy     = OS_FALSE;                              /* Statistic task is not ready              */
  80344c:	d0270705 	stb	zero,-25572(gp)
#endif
}
  803450:	e037883a 	mov	sp,fp
  803454:	df000017 	ldw	fp,0(sp)
  803458:	dec00104 	addi	sp,sp,4
  80345c:	f800283a 	ret

00803460 <OS_InitRdyList>:
* Returns    : none
*********************************************************************************************************
*/

static  void  OS_InitRdyList (void)
{
  803460:	defffd04 	addi	sp,sp,-12
  803464:	df000215 	stw	fp,8(sp)
  803468:	df000204 	addi	fp,sp,8
#else
    INT16U  *prdytbl;
#endif


    OSRdyGrp      = 0;                                     /* Clear the ready list                     */
  80346c:	d0270105 	stb	zero,-25596(gp)
    prdytbl       = &OSRdyTbl[0];
  803470:	d0a70144 	addi	r2,gp,-25595
  803474:	e0bffe15 	stw	r2,-8(fp)
    for (i = 0; i < OS_RDY_TBL_SIZE; i++) {
  803478:	e03fff05 	stb	zero,-4(fp)
  80347c:	00000806 	br	8034a0 <OS_InitRdyList+0x40>
        *prdytbl++ = 0;
  803480:	e0bffe17 	ldw	r2,-8(fp)
  803484:	10000005 	stb	zero,0(r2)
  803488:	e0bffe17 	ldw	r2,-8(fp)
  80348c:	10800044 	addi	r2,r2,1
  803490:	e0bffe15 	stw	r2,-8(fp)
#endif


    OSRdyGrp      = 0;                                     /* Clear the ready list                     */
    prdytbl       = &OSRdyTbl[0];
    for (i = 0; i < OS_RDY_TBL_SIZE; i++) {
  803494:	e0bfff03 	ldbu	r2,-4(fp)
  803498:	10800044 	addi	r2,r2,1
  80349c:	e0bfff05 	stb	r2,-4(fp)
  8034a0:	e0bfff03 	ldbu	r2,-4(fp)
  8034a4:	108000f0 	cmpltui	r2,r2,3
  8034a8:	103ff51e 	bne	r2,zero,803480 <OS_InitRdyList+0x20>
        *prdytbl++ = 0;
    }

    OSPrioCur     = 0;
  8034ac:	d026f745 	stb	zero,-25635(gp)
    OSPrioHighRdy = 0;
  8034b0:	d026f705 	stb	zero,-25636(gp)

    OSTCBHighRdy  = (OS_TCB *)0;
  8034b4:	d026ff15 	stw	zero,-25604(gp)
    OSTCBCur      = (OS_TCB *)0;
  8034b8:	d0270415 	stw	zero,-25584(gp)
}
  8034bc:	e037883a 	mov	sp,fp
  8034c0:	df000017 	ldw	fp,0(sp)
  8034c4:	dec00104 	addi	sp,sp,4
  8034c8:	f800283a 	ret

008034cc <OS_InitTaskIdle>:
* Returns    : none
*********************************************************************************************************
*/

static  void  OS_InitTaskIdle (void)
{
  8034cc:	defff804 	addi	sp,sp,-32
  8034d0:	dfc00715 	stw	ra,28(sp)
  8034d4:	df000615 	stw	fp,24(sp)
  8034d8:	df000604 	addi	fp,sp,24
#endif


#if OS_TASK_CREATE_EXT_EN > 0
    #if OS_STK_GROWTH == 1
    (void)OSTaskCreateExt(OS_TaskIdle,
  8034dc:	01802074 	movhi	r6,129
  8034e0:	319c1704 	addi	r6,r6,28764
  8034e4:	00bfffd4 	movui	r2,65535
  8034e8:	d8800015 	stw	r2,0(sp)
  8034ec:	00802074 	movhi	r2,129
  8034f0:	109a1804 	addi	r2,r2,26720
  8034f4:	d8800115 	stw	r2,4(sp)
  8034f8:	00808004 	movi	r2,512
  8034fc:	d8800215 	stw	r2,8(sp)
  803500:	d8000315 	stw	zero,12(sp)
  803504:	008000c4 	movi	r2,3
  803508:	d8800415 	stw	r2,16(sp)
  80350c:	01002034 	movhi	r4,128
  803510:	210e6004 	addi	r4,r4,14720
  803514:	000b883a 	mov	r5,zero
  803518:	01c00504 	movi	r7,20
  80351c:	08087640 	call	808764 <OSTaskCreateExt>
                       OS_TASK_IDLE_PRIO);
    #endif
#endif

#if OS_TASK_NAME_SIZE > 14
    OSTaskNameSet(OS_TASK_IDLE_PRIO, (INT8U *)"uC/OS-II Idle", &err);
  803520:	01402074 	movhi	r5,129
  803524:	297db104 	addi	r5,r5,-2364
  803528:	01000504 	movi	r4,20
  80352c:	e1bfff04 	addi	r6,fp,-4
  803530:	08090980 	call	809098 <OSTaskNameSet>
#else
#if OS_TASK_NAME_SIZE > 7
    OSTaskNameSet(OS_TASK_IDLE_PRIO, (INT8U *)"OS-Idle", &err);
#endif
#endif
}
  803534:	e037883a 	mov	sp,fp
  803538:	dfc00117 	ldw	ra,4(sp)
  80353c:	df000017 	ldw	fp,0(sp)
  803540:	dec00204 	addi	sp,sp,8
  803544:	f800283a 	ret

00803548 <OS_InitTaskStat>:
*********************************************************************************************************
*/

#if OS_TASK_STAT_EN > 0
static  void  OS_InitTaskStat (void)
{
  803548:	defff804 	addi	sp,sp,-32
  80354c:	dfc00715 	stw	ra,28(sp)
  803550:	df000615 	stw	fp,24(sp)
  803554:	df000604 	addi	fp,sp,24
#endif


#if OS_TASK_CREATE_EXT_EN > 0
    #if OS_STK_GROWTH == 1
    (void)OSTaskCreateExt(OS_TaskStat,
  803558:	01802074 	movhi	r6,129
  80355c:	31999f04 	addi	r6,r6,26236
  803560:	00bfff94 	movui	r2,65534
  803564:	d8800015 	stw	r2,0(sp)
  803568:	00802074 	movhi	r2,129
  80356c:	1097a004 	addi	r2,r2,24192
  803570:	d8800115 	stw	r2,4(sp)
  803574:	00808004 	movi	r2,512
  803578:	d8800215 	stw	r2,8(sp)
  80357c:	d8000315 	stw	zero,12(sp)
  803580:	008000c4 	movi	r2,3
  803584:	d8800415 	stw	r2,16(sp)
  803588:	01002034 	movhi	r4,128
  80358c:	210e7704 	addi	r4,r4,14812
  803590:	000b883a 	mov	r5,zero
  803594:	01c004c4 	movi	r7,19
  803598:	08087640 	call	808764 <OSTaskCreateExt>
                       OS_TASK_STAT_PRIO);                             /* One higher than the idle task  */
    #endif
#endif

#if OS_TASK_NAME_SIZE > 14
    OSTaskNameSet(OS_TASK_STAT_PRIO, (INT8U *)"uC/OS-II Stat", &err);
  80359c:	01402074 	movhi	r5,129
  8035a0:	297db504 	addi	r5,r5,-2348
  8035a4:	010004c4 	movi	r4,19
  8035a8:	e1bfff04 	addi	r6,fp,-4
  8035ac:	08090980 	call	809098 <OSTaskNameSet>
#else
#if OS_TASK_NAME_SIZE > 7
    OSTaskNameSet(OS_TASK_STAT_PRIO, (INT8U *)"OS-Stat", &err);
#endif
#endif
}
  8035b0:	e037883a 	mov	sp,fp
  8035b4:	dfc00117 	ldw	ra,4(sp)
  8035b8:	df000017 	ldw	fp,0(sp)
  8035bc:	dec00204 	addi	sp,sp,8
  8035c0:	f800283a 	ret

008035c4 <OS_InitTCBList>:
* Returns    : none
*********************************************************************************************************
*/

static  void  OS_InitTCBList (void)
{
  8035c4:	defffb04 	addi	sp,sp,-20
  8035c8:	dfc00415 	stw	ra,16(sp)
  8035cc:	df000315 	stw	fp,12(sp)
  8035d0:	df000304 	addi	fp,sp,12
    INT8U    i;
    OS_TCB  *ptcb1;
    OS_TCB  *ptcb2;


    OS_MemClr((INT8U *)&OSTCBTbl[0],     sizeof(OSTCBTbl));      /* Clear all the TCBs                 */
  8035d4:	01002074 	movhi	r4,129
  8035d8:	211ee804 	addi	r4,r4,31648
  8035dc:	01414404 	movi	r5,1296
  8035e0:	08036a40 	call	8036a4 <OS_MemClr>
    OS_MemClr((INT8U *)&OSTCBPrioTbl[0], sizeof(OSTCBPrioTbl));  /* Clear the priority table           */
  8035e4:	010020b4 	movhi	r4,130
  8035e8:	21202c04 	addi	r4,r4,-32592
  8035ec:	01401504 	movi	r5,84
  8035f0:	08036a40 	call	8036a4 <OS_MemClr>
    ptcb1 = &OSTCBTbl[0];
  8035f4:	00802074 	movhi	r2,129
  8035f8:	109ee804 	addi	r2,r2,31648
  8035fc:	e0bffe15 	stw	r2,-8(fp)
    ptcb2 = &OSTCBTbl[1];
  803600:	00802074 	movhi	r2,129
  803604:	109f0304 	addi	r2,r2,31756
  803608:	e0bffd15 	stw	r2,-12(fp)
    for (i = 0; i < (OS_MAX_TASKS + OS_N_SYS_TASKS - 1); i++) {  /* Init. list of free TCBs            */
  80360c:	e03fff05 	stb	zero,-4(fp)
  803610:	00001106 	br	803658 <OS_InitTCBList+0x94>
        ptcb1->OSTCBNext = ptcb2;
  803614:	e0fffe17 	ldw	r3,-8(fp)
  803618:	e0bffd17 	ldw	r2,-12(fp)
  80361c:	18800515 	stw	r2,20(r3)
#if OS_TASK_NAME_SIZE > 1
        ptcb1->OSTCBTaskName[0] = '?';                           /* Unknown name                       */
  803620:	e0fffe17 	ldw	r3,-8(fp)
  803624:	00800fc4 	movi	r2,63
  803628:	18801305 	stb	r2,76(r3)
        ptcb1->OSTCBTaskName[1] = OS_ASCII_NUL;
  80362c:	e0bffe17 	ldw	r2,-8(fp)
  803630:	10001345 	stb	zero,77(r2)
#endif
        ptcb1++;
  803634:	e0bffe17 	ldw	r2,-8(fp)
  803638:	10801b04 	addi	r2,r2,108
  80363c:	e0bffe15 	stw	r2,-8(fp)
        ptcb2++;
  803640:	e0bffd17 	ldw	r2,-12(fp)
  803644:	10801b04 	addi	r2,r2,108
  803648:	e0bffd15 	stw	r2,-12(fp)

    OS_MemClr((INT8U *)&OSTCBTbl[0],     sizeof(OSTCBTbl));      /* Clear all the TCBs                 */
    OS_MemClr((INT8U *)&OSTCBPrioTbl[0], sizeof(OSTCBPrioTbl));  /* Clear the priority table           */
    ptcb1 = &OSTCBTbl[0];
    ptcb2 = &OSTCBTbl[1];
    for (i = 0; i < (OS_MAX_TASKS + OS_N_SYS_TASKS - 1); i++) {  /* Init. list of free TCBs            */
  80364c:	e0bfff03 	ldbu	r2,-4(fp)
  803650:	10800044 	addi	r2,r2,1
  803654:	e0bfff05 	stb	r2,-4(fp)
  803658:	e0bfff03 	ldbu	r2,-4(fp)
  80365c:	108002f0 	cmpltui	r2,r2,11
  803660:	103fec1e 	bne	r2,zero,803614 <OS_InitTCBList+0x50>
        ptcb1->OSTCBTaskName[1] = OS_ASCII_NUL;
#endif
        ptcb1++;
        ptcb2++;
    }
    ptcb1->OSTCBNext = (OS_TCB *)0;                              /* Last OS_TCB                        */
  803664:	e0bffe17 	ldw	r2,-8(fp)
  803668:	10000515 	stw	zero,20(r2)
#if OS_TASK_NAME_SIZE > 1
    ptcb1->OSTCBTaskName[0] = '?';                               /* Unknown name                       */
  80366c:	e0fffe17 	ldw	r3,-8(fp)
  803670:	00800fc4 	movi	r2,63
  803674:	18801305 	stb	r2,76(r3)
    ptcb1->OSTCBTaskName[1] = OS_ASCII_NUL;
  803678:	e0bffe17 	ldw	r2,-8(fp)
  80367c:	10001345 	stb	zero,77(r2)
#endif
    OSTCBList               = (OS_TCB *)0;                       /* TCB lists initializations          */
  803680:	d026f815 	stw	zero,-25632(gp)
    OSTCBFreeList           = &OSTCBTbl[0];
  803684:	00802074 	movhi	r2,129
  803688:	109ee804 	addi	r2,r2,31648
  80368c:	d0a6fc15 	stw	r2,-25616(gp)
}
  803690:	e037883a 	mov	sp,fp
  803694:	dfc00117 	ldw	ra,4(sp)
  803698:	df000017 	ldw	fp,0(sp)
  80369c:	dec00204 	addi	sp,sp,8
  8036a0:	f800283a 	ret

008036a4 <OS_MemClr>:
*                 of the alignment of the destination.
*********************************************************************************************************
*/

void  OS_MemClr (INT8U *pdest, INT16U size)
{
  8036a4:	defffd04 	addi	sp,sp,-12
  8036a8:	df000215 	stw	fp,8(sp)
  8036ac:	df000204 	addi	fp,sp,8
  8036b0:	e13ffe15 	stw	r4,-8(fp)
  8036b4:	e17fff0d 	sth	r5,-4(fp)
    while (size > 0) {
  8036b8:	00000806 	br	8036dc <OS_MemClr+0x38>
        *pdest++ = (INT8U)0;
  8036bc:	e0bffe17 	ldw	r2,-8(fp)
  8036c0:	10000005 	stb	zero,0(r2)
  8036c4:	e0bffe17 	ldw	r2,-8(fp)
  8036c8:	10800044 	addi	r2,r2,1
  8036cc:	e0bffe15 	stw	r2,-8(fp)
        size--;
  8036d0:	e0bfff0b 	ldhu	r2,-4(fp)
  8036d4:	10bfffc4 	addi	r2,r2,-1
  8036d8:	e0bfff0d 	sth	r2,-4(fp)
*********************************************************************************************************
*/

void  OS_MemClr (INT8U *pdest, INT16U size)
{
    while (size > 0) {
  8036dc:	e0bfff0b 	ldhu	r2,-4(fp)
  8036e0:	1004c03a 	cmpne	r2,r2,zero
  8036e4:	103ff51e 	bne	r2,zero,8036bc <OS_MemClr+0x18>
        *pdest++ = (INT8U)0;
        size--;
    }
}
  8036e8:	e037883a 	mov	sp,fp
  8036ec:	df000017 	ldw	fp,0(sp)
  8036f0:	dec00104 	addi	sp,sp,4
  8036f4:	f800283a 	ret

008036f8 <OS_MemCopy>:
*                 of the alignment of the source and destination.
*********************************************************************************************************
*/

void  OS_MemCopy (INT8U *pdest, INT8U *psrc, INT16U size)
{
  8036f8:	defffc04 	addi	sp,sp,-16
  8036fc:	df000315 	stw	fp,12(sp)
  803700:	df000304 	addi	fp,sp,12
  803704:	e13ffd15 	stw	r4,-12(fp)
  803708:	e17ffe15 	stw	r5,-8(fp)
  80370c:	e1bfff0d 	sth	r6,-4(fp)
    while (size > 0) {
  803710:	00000d06 	br	803748 <OS_MemCopy+0x50>
        *pdest++ = *psrc++;
  803714:	e0bffe17 	ldw	r2,-8(fp)
  803718:	10c00003 	ldbu	r3,0(r2)
  80371c:	e0bffd17 	ldw	r2,-12(fp)
  803720:	10c00005 	stb	r3,0(r2)
  803724:	e0bffd17 	ldw	r2,-12(fp)
  803728:	10800044 	addi	r2,r2,1
  80372c:	e0bffd15 	stw	r2,-12(fp)
  803730:	e0bffe17 	ldw	r2,-8(fp)
  803734:	10800044 	addi	r2,r2,1
  803738:	e0bffe15 	stw	r2,-8(fp)
        size--;
  80373c:	e0bfff0b 	ldhu	r2,-4(fp)
  803740:	10bfffc4 	addi	r2,r2,-1
  803744:	e0bfff0d 	sth	r2,-4(fp)
*********************************************************************************************************
*/

void  OS_MemCopy (INT8U *pdest, INT8U *psrc, INT16U size)
{
    while (size > 0) {
  803748:	e0bfff0b 	ldhu	r2,-4(fp)
  80374c:	1004c03a 	cmpne	r2,r2,zero
  803750:	103ff01e 	bne	r2,zero,803714 <OS_MemCopy+0x1c>
        *pdest++ = *psrc++;
        size--;
    }
}
  803754:	e037883a 	mov	sp,fp
  803758:	df000017 	ldw	fp,0(sp)
  80375c:	dec00104 	addi	sp,sp,4
  803760:	f800283a 	ret

00803764 <OS_Sched>:
*              2) Rescheduling is prevented when the scheduler is locked (see OS_SchedLock())
*********************************************************************************************************
*/

void  OS_Sched (void)
{
  803764:	defffb04 	addi	sp,sp,-20
  803768:	dfc00415 	stw	ra,16(sp)
  80376c:	df000315 	stw	fp,12(sp)
  803770:	df000304 	addi	fp,sp,12
#if OS_CRITICAL_METHOD == 3                            /* Allocate storage for CPU status register     */
    OS_CPU_SR  cpu_sr = 0;
  803774:	e03fff15 	stw	zero,-4(fp)
static ALT_INLINE alt_irq_context ALT_ALWAYS_INLINE 
       alt_irq_disable_all (void)
{
  alt_irq_context context;

  NIOS2_READ_STATUS (context);
  803778:	0005303a 	rdctl	r2,status
  80377c:	e0bffe15 	stw	r2,-8(fp)

  NIOS2_WRITE_STATUS (context & ~NIOS2_STATUS_PIE_MSK);
  803780:	e0fffe17 	ldw	r3,-8(fp)
  803784:	00bfff84 	movi	r2,-2
  803788:	1884703a 	and	r2,r3,r2
  80378c:	1001703a 	wrctl	status,r2
  
  return context;
  803790:	e0bffe17 	ldw	r2,-8(fp)
#endif



    OS_ENTER_CRITICAL();
  803794:	e0bfff15 	stw	r2,-4(fp)
    if (OSIntNesting == 0) {                           /* Schedule only if all ISRs done and ...       */
  803798:	d0a70303 	ldbu	r2,-25588(gp)
  80379c:	10803fcc 	andi	r2,r2,255
  8037a0:	1004c03a 	cmpne	r2,r2,zero
  8037a4:	10001b1e 	bne	r2,zero,803814 <OS_Sched+0xb0>
        if (OSLockNesting == 0) {                      /* ... scheduler is not locked                  */
  8037a8:	d0a6f503 	ldbu	r2,-25644(gp)
  8037ac:	10803fcc 	andi	r2,r2,255
  8037b0:	1004c03a 	cmpne	r2,r2,zero
  8037b4:	1000171e 	bne	r2,zero,803814 <OS_Sched+0xb0>
            OS_SchedNew();
  8037b8:	08038380 	call	803838 <OS_SchedNew>
            if (OSPrioHighRdy != OSPrioCur) {          /* No Ctx Sw if current task is highest rdy     */
  8037bc:	d0a6f703 	ldbu	r2,-25636(gp)
  8037c0:	d0e6f743 	ldbu	r3,-25635(gp)
  8037c4:	11003fcc 	andi	r4,r2,255
  8037c8:	18803fcc 	andi	r2,r3,255
  8037cc:	20801126 	beq	r4,r2,803814 <OS_Sched+0xb0>
                OSTCBHighRdy = OSTCBPrioTbl[OSPrioHighRdy];
  8037d0:	d0a6f703 	ldbu	r2,-25636(gp)
  8037d4:	10803fcc 	andi	r2,r2,255
  8037d8:	00c020b4 	movhi	r3,130
  8037dc:	18e02c04 	addi	r3,r3,-32592
  8037e0:	1085883a 	add	r2,r2,r2
  8037e4:	1085883a 	add	r2,r2,r2
  8037e8:	10c5883a 	add	r2,r2,r3
  8037ec:	10800017 	ldw	r2,0(r2)
  8037f0:	d0a6ff15 	stw	r2,-25604(gp)
#if OS_TASK_PROFILE_EN > 0
                OSTCBHighRdy->OSTCBCtxSwCtr++;         /* Inc. # of context switches to this task      */
  8037f4:	d0e6ff17 	ldw	r3,-25604(gp)
  8037f8:	18800e17 	ldw	r2,56(r3)
  8037fc:	10800044 	addi	r2,r2,1
  803800:	18800e15 	stw	r2,56(r3)
#endif
                OSCtxSwCtr++;                          /* Increment context switch counter             */
  803804:	d0a6fa17 	ldw	r2,-25624(gp)
  803808:	10800044 	addi	r2,r2,1
  80380c:	d0a6fa15 	stw	r2,-25624(gp)
                OS_TASK_SW();                          /* Perform a context switch                     */
  803810:	080c0780 	call	80c078 <OSCtxSw>
  803814:	e0bfff17 	ldw	r2,-4(fp)
  803818:	e0bffd15 	stw	r2,-12(fp)
  status &= ~NIOS2_STATUS_PIE_MSK;
  status |= (context & NIOS2_STATUS_PIE_MSK);
  
  NIOS2_WRITE_STATUS (status);
#else
  NIOS2_WRITE_STATUS (context);
  80381c:	e0bffd17 	ldw	r2,-12(fp)
  803820:	1001703a 	wrctl	status,r2
            }
        }
    }
    OS_EXIT_CRITICAL();
}
  803824:	e037883a 	mov	sp,fp
  803828:	dfc00117 	ldw	ra,4(sp)
  80382c:	df000017 	ldw	fp,0(sp)
  803830:	dec00204 	addi	sp,sp,8
  803834:	f800283a 	ret

00803838 <OS_SchedNew>:
*              2) Interrupts are assumed to be disabled when this function is called.
*********************************************************************************************************
*/

static  void  OS_SchedNew (void)
{
  803838:	defffe04 	addi	sp,sp,-8
  80383c:	df000115 	stw	fp,4(sp)
  803840:	df000104 	addi	fp,sp,4
#if OS_LOWEST_PRIO <= 63                         /* See if we support up to 64 tasks                   */
    INT8U   y;


    y             = OSUnMapTbl[OSRdyGrp];
  803844:	d0a70103 	ldbu	r2,-25596(gp)
  803848:	10c03fcc 	andi	r3,r2,255
  80384c:	00802074 	movhi	r2,129
  803850:	10bd7104 	addi	r2,r2,-2620
  803854:	10c5883a 	add	r2,r2,r3
  803858:	10800003 	ldbu	r2,0(r2)
  80385c:	e0bfff05 	stb	r2,-4(fp)
    OSPrioHighRdy = (INT8U)((y << 3) + OSUnMapTbl[OSRdyTbl[y]]);
  803860:	e0bfff03 	ldbu	r2,-4(fp)
  803864:	100490fa 	slli	r2,r2,3
  803868:	1009883a 	mov	r4,r2
  80386c:	e0ffff03 	ldbu	r3,-4(fp)
  803870:	d0a70144 	addi	r2,gp,-25595
  803874:	1885883a 	add	r2,r3,r2
  803878:	10800003 	ldbu	r2,0(r2)
  80387c:	10c03fcc 	andi	r3,r2,255
  803880:	00802074 	movhi	r2,129
  803884:	10bd7104 	addi	r2,r2,-2620
  803888:	10c5883a 	add	r2,r2,r3
  80388c:	10800003 	ldbu	r2,0(r2)
  803890:	2085883a 	add	r2,r4,r2
  803894:	d0a6f705 	stb	r2,-25636(gp)
        OSPrioHighRdy = (INT8U)((y << 4) + OSUnMapTbl[(*ptbl & 0xFF)]);
    } else {
        OSPrioHighRdy = (INT8U)((y << 4) + OSUnMapTbl[(*ptbl >> 8) & 0xFF] + 8);
    }
#endif
}
  803898:	e037883a 	mov	sp,fp
  80389c:	df000017 	ldw	fp,0(sp)
  8038a0:	dec00104 	addi	sp,sp,4
  8038a4:	f800283a 	ret

008038a8 <OS_StrCopy>:
*********************************************************************************************************
*/

#if (OS_EVENT_NAME_SIZE > 1) || (OS_FLAG_NAME_SIZE > 1) || (OS_MEM_NAME_SIZE > 1) || (OS_TASK_NAME_SIZE > 1) || (OS_TMR_CFG_NAME_SIZE > 1)
INT8U  OS_StrCopy (INT8U *pdest, INT8U *psrc)
{
  8038a8:	defffc04 	addi	sp,sp,-16
  8038ac:	df000315 	stw	fp,12(sp)
  8038b0:	df000304 	addi	fp,sp,12
  8038b4:	e13ffe15 	stw	r4,-8(fp)
  8038b8:	e17fff15 	stw	r5,-4(fp)
    INT8U  len;


    len = 0;
  8038bc:	e03ffd05 	stb	zero,-12(fp)
    while (*psrc != OS_ASCII_NUL) {
  8038c0:	00000d06 	br	8038f8 <OS_StrCopy+0x50>
        *pdest++ = *psrc++;
  8038c4:	e0bfff17 	ldw	r2,-4(fp)
  8038c8:	10c00003 	ldbu	r3,0(r2)
  8038cc:	e0bffe17 	ldw	r2,-8(fp)
  8038d0:	10c00005 	stb	r3,0(r2)
  8038d4:	e0bffe17 	ldw	r2,-8(fp)
  8038d8:	10800044 	addi	r2,r2,1
  8038dc:	e0bffe15 	stw	r2,-8(fp)
  8038e0:	e0bfff17 	ldw	r2,-4(fp)
  8038e4:	10800044 	addi	r2,r2,1
  8038e8:	e0bfff15 	stw	r2,-4(fp)
        len++;
  8038ec:	e0bffd03 	ldbu	r2,-12(fp)
  8038f0:	10800044 	addi	r2,r2,1
  8038f4:	e0bffd05 	stb	r2,-12(fp)
{
    INT8U  len;


    len = 0;
    while (*psrc != OS_ASCII_NUL) {
  8038f8:	e0bfff17 	ldw	r2,-4(fp)
  8038fc:	10800003 	ldbu	r2,0(r2)
  803900:	10803fcc 	andi	r2,r2,255
  803904:	1004c03a 	cmpne	r2,r2,zero
  803908:	103fee1e 	bne	r2,zero,8038c4 <OS_StrCopy+0x1c>
        *pdest++ = *psrc++;
        len++;
    }
    *pdest = OS_ASCII_NUL;
  80390c:	e0bffe17 	ldw	r2,-8(fp)
  803910:	10000005 	stb	zero,0(r2)
    return (len);
  803914:	e0bffd03 	ldbu	r2,-12(fp)
}
  803918:	e037883a 	mov	sp,fp
  80391c:	df000017 	ldw	fp,0(sp)
  803920:	dec00104 	addi	sp,sp,4
  803924:	f800283a 	ret

00803928 <OS_StrLen>:
*********************************************************************************************************
*/

#if (OS_EVENT_NAME_SIZE > 1) || (OS_FLAG_NAME_SIZE > 1) || (OS_MEM_NAME_SIZE > 1) || (OS_TASK_NAME_SIZE > 1) || (OS_TMR_CFG_NAME_SIZE > 1)
INT8U  OS_StrLen (INT8U *psrc)
{
  803928:	defffd04 	addi	sp,sp,-12
  80392c:	df000215 	stw	fp,8(sp)
  803930:	df000204 	addi	fp,sp,8
  803934:	e13fff15 	stw	r4,-4(fp)
    INT8U  len;


    len = 0;
  803938:	e03ffe05 	stb	zero,-8(fp)
    while (*psrc != OS_ASCII_NUL) {
  80393c:	00000606 	br	803958 <OS_StrLen+0x30>
        psrc++;
  803940:	e0bfff17 	ldw	r2,-4(fp)
  803944:	10800044 	addi	r2,r2,1
  803948:	e0bfff15 	stw	r2,-4(fp)
        len++;
  80394c:	e0bffe03 	ldbu	r2,-8(fp)
  803950:	10800044 	addi	r2,r2,1
  803954:	e0bffe05 	stb	r2,-8(fp)
{
    INT8U  len;


    len = 0;
    while (*psrc != OS_ASCII_NUL) {
  803958:	e0bfff17 	ldw	r2,-4(fp)
  80395c:	10800003 	ldbu	r2,0(r2)
  803960:	10803fcc 	andi	r2,r2,255
  803964:	1004c03a 	cmpne	r2,r2,zero
  803968:	103ff51e 	bne	r2,zero,803940 <OS_StrLen+0x18>
        psrc++;
        len++;
    }
    return (len);
  80396c:	e0bffe03 	ldbu	r2,-8(fp)
}
  803970:	e037883a 	mov	sp,fp
  803974:	df000017 	ldw	fp,0(sp)
  803978:	dec00104 	addi	sp,sp,4
  80397c:	f800283a 	ret

00803980 <OS_TaskIdle>:
*                 power.
*********************************************************************************************************
*/

void  OS_TaskIdle (void *p_arg)
{
  803980:	defffa04 	addi	sp,sp,-24
  803984:	dfc00515 	stw	ra,20(sp)
  803988:	df000415 	stw	fp,16(sp)
  80398c:	df000404 	addi	fp,sp,16
  803990:	e13fff15 	stw	r4,-4(fp)
#if OS_CRITICAL_METHOD == 3                      /* Allocate storage for CPU status register           */
    OS_CPU_SR  cpu_sr = 0;
  803994:	e03ffe15 	stw	zero,-8(fp)
static ALT_INLINE alt_irq_context ALT_ALWAYS_INLINE 
       alt_irq_disable_all (void)
{
  alt_irq_context context;

  NIOS2_READ_STATUS (context);
  803998:	0005303a 	rdctl	r2,status
  80399c:	e0bffd15 	stw	r2,-12(fp)

  NIOS2_WRITE_STATUS (context & ~NIOS2_STATUS_PIE_MSK);
  8039a0:	e0fffd17 	ldw	r3,-12(fp)
  8039a4:	00bfff84 	movi	r2,-2
  8039a8:	1884703a 	and	r2,r3,r2
  8039ac:	1001703a 	wrctl	status,r2
  
  return context;
  8039b0:	e0bffd17 	ldw	r2,-12(fp)



    (void)p_arg;                                 /* Prevent compiler warning for not using 'p_arg'     */
    for (;;) {
        OS_ENTER_CRITICAL();
  8039b4:	e0bffe15 	stw	r2,-8(fp)
        OSIdleCtr++;
  8039b8:	d0a6f617 	ldw	r2,-25640(gp)
  8039bc:	10800044 	addi	r2,r2,1
  8039c0:	d0a6f615 	stw	r2,-25640(gp)
  8039c4:	e0bffe17 	ldw	r2,-8(fp)
  8039c8:	e0bffc15 	stw	r2,-16(fp)
  status &= ~NIOS2_STATUS_PIE_MSK;
  status |= (context & NIOS2_STATUS_PIE_MSK);
  
  NIOS2_WRITE_STATUS (status);
#else
  NIOS2_WRITE_STATUS (context);
  8039cc:	e0bffc17 	ldw	r2,-16(fp)
  8039d0:	1001703a 	wrctl	status,r2
        OS_EXIT_CRITICAL();
        OSTaskIdleHook();                        /* Call user definable HOOK                           */
  8039d4:	080c5240 	call	80c524 <OSTaskIdleHook>
    }
  8039d8:	003fef06 	br	803998 <OS_TaskIdle+0x18>

008039dc <OS_TaskStat>:
*********************************************************************************************************
*/

#if OS_TASK_STAT_EN > 0
void  OS_TaskStat (void *p_arg)
{
  8039dc:	defffa04 	addi	sp,sp,-24
  8039e0:	dfc00515 	stw	ra,20(sp)
  8039e4:	df000415 	stw	fp,16(sp)
  8039e8:	df000404 	addi	fp,sp,16
  8039ec:	e13fff15 	stw	r4,-4(fp)
#if OS_CRITICAL_METHOD == 3                      /* Allocate storage for CPU status register           */
    OS_CPU_SR  cpu_sr = 0;
  8039f0:	e03ffe15 	stw	zero,-8(fp)
#endif



    (void)p_arg;                                 /* Prevent compiler warning for not using 'p_arg'     */
    while (OSStatRdy == OS_FALSE) {
  8039f4:	00000206 	br	803a00 <OS_TaskStat+0x24>
        OSTimeDly(2 * OS_TICKS_PER_SEC / 10);    /* Wait until statistic task is ready                 */
  8039f8:	01003204 	movi	r4,200
  8039fc:	0809a5c0 	call	809a5c <OSTimeDly>
#endif



    (void)p_arg;                                 /* Prevent compiler warning for not using 'p_arg'     */
    while (OSStatRdy == OS_FALSE) {
  803a00:	d0a70703 	ldbu	r2,-25572(gp)
  803a04:	10803fcc 	andi	r2,r2,255
  803a08:	1005003a 	cmpeq	r2,r2,zero
  803a0c:	103ffa1e 	bne	r2,zero,8039f8 <OS_TaskStat+0x1c>
        OSTimeDly(2 * OS_TICKS_PER_SEC / 10);    /* Wait until statistic task is ready                 */
    }
    OSIdleCtrMax /= 100L;
  803a10:	d126fb17 	ldw	r4,-25620(gp)
  803a14:	01401904 	movi	r5,100
  803a18:	080ebdc0 	call	80ebdc <__udivsi3>
  803a1c:	d0a6fb15 	stw	r2,-25620(gp)
    if (OSIdleCtrMax == 0L) {
  803a20:	d0a6fb17 	ldw	r2,-25620(gp)
  803a24:	1004c03a 	cmpne	r2,r2,zero
  803a28:	1000031e 	bne	r2,zero,803a38 <OS_TaskStat+0x5c>
        OSCPUUsage = 0;
  803a2c:	d026fd05 	stb	zero,-25612(gp)
        (void)OSTaskSuspend(OS_PRIO_SELF);
  803a30:	01003fc4 	movi	r4,255
  803a34:	08096700 	call	809670 <OSTaskSuspend>
static ALT_INLINE alt_irq_context ALT_ALWAYS_INLINE 
       alt_irq_disable_all (void)
{
  alt_irq_context context;

  NIOS2_READ_STATUS (context);
  803a38:	0005303a 	rdctl	r2,status
  803a3c:	e0bffd15 	stw	r2,-12(fp)

  NIOS2_WRITE_STATUS (context & ~NIOS2_STATUS_PIE_MSK);
  803a40:	e0fffd17 	ldw	r3,-12(fp)
  803a44:	00bfff84 	movi	r2,-2
  803a48:	1884703a 	and	r2,r3,r2
  803a4c:	1001703a 	wrctl	status,r2
  
  return context;
  803a50:	e0bffd17 	ldw	r2,-12(fp)
    }
    for (;;) {
        OS_ENTER_CRITICAL();
  803a54:	e0bffe15 	stw	r2,-8(fp)
        OSIdleCtrRun = OSIdleCtr;                /* Obtain the of the idle counter for the past second */
  803a58:	d0a6f617 	ldw	r2,-25640(gp)
  803a5c:	d0a70815 	stw	r2,-25568(gp)
        OSIdleCtr    = 0L;                       /* Reset the idle counter for the next second         */
  803a60:	d026f615 	stw	zero,-25640(gp)
  803a64:	e0bffe17 	ldw	r2,-8(fp)
  803a68:	e0bffc15 	stw	r2,-16(fp)
  status &= ~NIOS2_STATUS_PIE_MSK;
  status |= (context & NIOS2_STATUS_PIE_MSK);
  
  NIOS2_WRITE_STATUS (status);
#else
  NIOS2_WRITE_STATUS (context);
  803a6c:	e0bffc17 	ldw	r2,-16(fp)
  803a70:	1001703a 	wrctl	status,r2
        OS_EXIT_CRITICAL();
        OSCPUUsage   = (INT8U)(100L - OSIdleCtrRun / OSIdleCtrMax);
  803a74:	d1270817 	ldw	r4,-25568(gp)
  803a78:	d166fb17 	ldw	r5,-25620(gp)
  803a7c:	080ebdc0 	call	80ebdc <__udivsi3>
  803a80:	1007883a 	mov	r3,r2
  803a84:	00801904 	movi	r2,100
  803a88:	10c5c83a 	sub	r2,r2,r3
  803a8c:	d0a6fd05 	stb	r2,-25612(gp)
        OSTaskStatHook();                        /* Invoke user definable hook                         */
  803a90:	080c4b40 	call	80c4b4 <OSTaskStatHook>
#if (OS_TASK_STAT_STK_CHK_EN > 0) && (OS_TASK_CREATE_EXT_EN > 0)
        OS_TaskStatStkChk();                     /* Check the stacks for each task                     */
  803a94:	0803aa40 	call	803aa4 <OS_TaskStatStkChk>
#endif
        OSTimeDly(OS_TICKS_PER_SEC / 10);        /* Accumulate OSIdleCtr for the next 1/10 second      */
  803a98:	01001904 	movi	r4,100
  803a9c:	0809a5c0 	call	809a5c <OSTimeDly>
    }
  803aa0:	003fe506 	br	803a38 <OS_TaskStat+0x5c>

00803aa4 <OS_TaskStatStkChk>:
*********************************************************************************************************
*/

#if (OS_TASK_STAT_STK_CHK_EN > 0) && (OS_TASK_CREATE_EXT_EN > 0)
void  OS_TaskStatStkChk (void)
{
  803aa4:	defffa04 	addi	sp,sp,-24
  803aa8:	dfc00515 	stw	ra,20(sp)
  803aac:	df000415 	stw	fp,16(sp)
  803ab0:	df000404 	addi	fp,sp,16
    OS_STK_DATA  stk_data;
    INT8U        err;
    INT8U        prio;


    for (prio = 0; prio <= OS_TASK_IDLE_PRIO; prio++) {
  803ab4:	e03ffc05 	stb	zero,-16(fp)
  803ab8:	00002406 	br	803b4c <OS_TaskStatStkChk+0xa8>
        err = OSTaskStkChk(prio, &stk_data);
  803abc:	e13ffc03 	ldbu	r4,-16(fp)
  803ac0:	e17ffe04 	addi	r5,fp,-8
  803ac4:	08094740 	call	809474 <OSTaskStkChk>
  803ac8:	e0bffc45 	stb	r2,-15(fp)
        if (err == OS_ERR_NONE) {
  803acc:	e0bffc43 	ldbu	r2,-15(fp)
  803ad0:	1004c03a 	cmpne	r2,r2,zero
  803ad4:	10001a1e 	bne	r2,zero,803b40 <OS_TaskStatStkChk+0x9c>
            ptcb = OSTCBPrioTbl[prio];
  803ad8:	e0bffc03 	ldbu	r2,-16(fp)
  803adc:	00c020b4 	movhi	r3,130
  803ae0:	18e02c04 	addi	r3,r3,-32592
  803ae4:	1085883a 	add	r2,r2,r2
  803ae8:	1085883a 	add	r2,r2,r2
  803aec:	10c5883a 	add	r2,r2,r3
  803af0:	10800017 	ldw	r2,0(r2)
  803af4:	e0bffd15 	stw	r2,-12(fp)
            if (ptcb != (OS_TCB *)0) {                               /* Make sure task 'ptcb' is ...   */
  803af8:	e0bffd17 	ldw	r2,-12(fp)
  803afc:	1005003a 	cmpeq	r2,r2,zero
  803b00:	10000f1e 	bne	r2,zero,803b40 <OS_TaskStatStkChk+0x9c>
                if (ptcb != OS_TCB_RESERVED) {                       /* ... still valid.               */
  803b04:	e0bffd17 	ldw	r2,-12(fp)
  803b08:	10800060 	cmpeqi	r2,r2,1
  803b0c:	10000c1e 	bne	r2,zero,803b40 <OS_TaskStatStkChk+0x9c>
#if OS_TASK_PROFILE_EN > 0
                    #if OS_STK_GROWTH == 1
                    ptcb->OSTCBStkBase = ptcb->OSTCBStkBottom + ptcb->OSTCBStkSize;
  803b10:	e0bffd17 	ldw	r2,-12(fp)
  803b14:	10c00217 	ldw	r3,8(r2)
  803b18:	e0bffd17 	ldw	r2,-12(fp)
  803b1c:	10800317 	ldw	r2,12(r2)
  803b20:	1085883a 	add	r2,r2,r2
  803b24:	1085883a 	add	r2,r2,r2
  803b28:	1887883a 	add	r3,r3,r2
  803b2c:	e0bffd17 	ldw	r2,-12(fp)
  803b30:	10c01115 	stw	r3,68(r2)
                    #else
                    ptcb->OSTCBStkBase = ptcb->OSTCBStkBottom - ptcb->OSTCBStkSize;
                    #endif
                    ptcb->OSTCBStkUsed = stk_data.OSUsed;            /* Store the number of bytes used */
  803b34:	e0ffff17 	ldw	r3,-4(fp)
  803b38:	e0bffd17 	ldw	r2,-12(fp)
  803b3c:	10c01215 	stw	r3,72(r2)
    OS_STK_DATA  stk_data;
    INT8U        err;
    INT8U        prio;


    for (prio = 0; prio <= OS_TASK_IDLE_PRIO; prio++) {
  803b40:	e0bffc03 	ldbu	r2,-16(fp)
  803b44:	10800044 	addi	r2,r2,1
  803b48:	e0bffc05 	stb	r2,-16(fp)
  803b4c:	e0bffc03 	ldbu	r2,-16(fp)
  803b50:	10800570 	cmpltui	r2,r2,21
  803b54:	103fd91e 	bne	r2,zero,803abc <OS_TaskStatStkChk+0x18>
#endif
                }
            }
        }
    }
}
  803b58:	e037883a 	mov	sp,fp
  803b5c:	dfc00117 	ldw	ra,4(sp)
  803b60:	df000017 	ldw	fp,0(sp)
  803b64:	dec00204 	addi	sp,sp,8
  803b68:	f800283a 	ret

00803b6c <OS_TCBInit>:
* Note       : This function is INTERNAL to uC/OS-II and your application should not call it.
*********************************************************************************************************
*/

INT8U  OS_TCBInit (INT8U prio, OS_STK *ptos, OS_STK *pbos, INT16U id, INT32U stk_size, void *pext, INT16U opt)
{
  803b6c:	defff104 	addi	sp,sp,-60
  803b70:	dfc00e15 	stw	ra,56(sp)
  803b74:	df000d15 	stw	fp,52(sp)
  803b78:	df000d04 	addi	fp,sp,52
  803b7c:	e17ffb15 	stw	r5,-20(fp)
  803b80:	e1bffc15 	stw	r6,-16(fp)
  803b84:	e0800417 	ldw	r2,16(fp)
  803b88:	e13ffa05 	stb	r4,-24(fp)
  803b8c:	e1fffd0d 	sth	r7,-12(fp)
  803b90:	e0bffe0d 	sth	r2,-8(fp)
    OS_TCB    *ptcb;
#if OS_CRITICAL_METHOD == 3                                /* Allocate storage for CPU status register */
    OS_CPU_SR  cpu_sr = 0;
  803b94:	e03ff815 	stw	zero,-32(fp)
static ALT_INLINE alt_irq_context ALT_ALWAYS_INLINE 
       alt_irq_disable_all (void)
{
  alt_irq_context context;

  NIOS2_READ_STATUS (context);
  803b98:	0005303a 	rdctl	r2,status
  803b9c:	e0bff715 	stw	r2,-36(fp)

  NIOS2_WRITE_STATUS (context & ~NIOS2_STATUS_PIE_MSK);
  803ba0:	e0fff717 	ldw	r3,-36(fp)
  803ba4:	00bfff84 	movi	r2,-2
  803ba8:	1884703a 	and	r2,r3,r2
  803bac:	1001703a 	wrctl	status,r2
  
  return context;
  803bb0:	e0bff717 	ldw	r2,-36(fp)
#endif



    OS_ENTER_CRITICAL();
  803bb4:	e0bff815 	stw	r2,-32(fp)
    ptcb = OSTCBFreeList;                                  /* Get a free TCB from the free TCB list    */
  803bb8:	d0a6fc17 	ldw	r2,-25616(gp)
  803bbc:	e0bff915 	stw	r2,-28(fp)
    if (ptcb != (OS_TCB *)0) {
  803bc0:	e0bff917 	ldw	r2,-28(fp)
  803bc4:	1005003a 	cmpeq	r2,r2,zero
  803bc8:	1000941e 	bne	r2,zero,803e1c <OS_TCBInit+0x2b0>
        OSTCBFreeList            = ptcb->OSTCBNext;        /* Update pointer to free TCB list          */
  803bcc:	e0bff917 	ldw	r2,-28(fp)
  803bd0:	10800517 	ldw	r2,20(r2)
  803bd4:	d0a6fc15 	stw	r2,-25616(gp)
  803bd8:	e0bff817 	ldw	r2,-32(fp)
  803bdc:	e0bff615 	stw	r2,-40(fp)
  status &= ~NIOS2_STATUS_PIE_MSK;
  status |= (context & NIOS2_STATUS_PIE_MSK);
  
  NIOS2_WRITE_STATUS (status);
#else
  NIOS2_WRITE_STATUS (context);
  803be0:	e0bff617 	ldw	r2,-40(fp)
  803be4:	1001703a 	wrctl	status,r2
        OS_EXIT_CRITICAL();
        ptcb->OSTCBStkPtr        = ptos;                   /* Load Stack pointer in TCB                */
  803be8:	e0fff917 	ldw	r3,-28(fp)
  803bec:	e0bffb17 	ldw	r2,-20(fp)
  803bf0:	18800015 	stw	r2,0(r3)
        ptcb->OSTCBPrio          = prio;                   /* Load task priority into TCB              */
  803bf4:	e0fff917 	ldw	r3,-28(fp)
  803bf8:	e0bffa03 	ldbu	r2,-24(fp)
  803bfc:	18800c85 	stb	r2,50(r3)
        ptcb->OSTCBStat          = OS_STAT_RDY;            /* Task is ready to run                     */
  803c00:	e0bff917 	ldw	r2,-28(fp)
  803c04:	10000c05 	stb	zero,48(r2)
        ptcb->OSTCBStatPend      = OS_STAT_PEND_OK;        /* Clear pend status                        */
  803c08:	e0bff917 	ldw	r2,-28(fp)
  803c0c:	10000c45 	stb	zero,49(r2)
        ptcb->OSTCBDly           = 0;                      /* Task is not delayed                      */
  803c10:	e0bff917 	ldw	r2,-28(fp)
  803c14:	10000b8d 	sth	zero,46(r2)

#if OS_TASK_CREATE_EXT_EN > 0
        ptcb->OSTCBExtPtr        = pext;                   /* Store pointer to TCB extension           */
  803c18:	e0fff917 	ldw	r3,-28(fp)
  803c1c:	e0800317 	ldw	r2,12(fp)
  803c20:	18800115 	stw	r2,4(r3)
        ptcb->OSTCBStkSize       = stk_size;               /* Store stack size                         */
  803c24:	e0fff917 	ldw	r3,-28(fp)
  803c28:	e0800217 	ldw	r2,8(fp)
  803c2c:	18800315 	stw	r2,12(r3)
        ptcb->OSTCBStkBottom     = pbos;                   /* Store pointer to bottom of stack         */
  803c30:	e0fff917 	ldw	r3,-28(fp)
  803c34:	e0bffc17 	ldw	r2,-16(fp)
  803c38:	18800215 	stw	r2,8(r3)
