Archive member included because of file (symbol)

c:/altera/12.1sp1/nios2eds/bin/gnu/h-i686-mingw32/bin/../lib/gcc/nios2-elf/4.1.2/mno-hw-mul\libgcc.a(_addsub_df.o)
                              obj/default/midi_generator.o (__subdf3)
c:/altera/12.1sp1/nios2eds/bin/gnu/h-i686-mingw32/bin/../lib/gcc/nios2-elf/4.1.2/mno-hw-mul\libgcc.a(_si_to_df.o)
                              obj/default/midi_generator.o (__floatsidf)
c:/altera/12.1sp1/nios2eds/bin/gnu/h-i686-mingw32/bin/../lib/gcc/nios2-elf/4.1.2/mno-hw-mul\libgcc.a(_df_to_si.o)
                              obj/default/midi_generator.o (__fixdfsi)
c:/altera/12.1sp1/nios2eds/bin/gnu/h-i686-mingw32/bin/../lib/gcc/nios2-elf/4.1.2/mno-hw-mul\libgcc.a(_thenan_df.o)
                              c:/altera/12.1sp1/nios2eds/bin/gnu/h-i686-mingw32/bin/../lib/gcc/nios2-elf/4.1.2/mno-hw-mul\libgcc.a(_addsub_df.o) (__thenan_df)
c:/altera/12.1sp1/nios2eds/bin/gnu/h-i686-mingw32/bin/../lib/gcc/nios2-elf/4.1.2/mno-hw-mul\libgcc.a(_clzsi2.o)
                              c:/altera/12.1sp1/nios2eds/bin/gnu/h-i686-mingw32/bin/../lib/gcc/nios2-elf/4.1.2/mno-hw-mul\libgcc.a(_si_to_df.o) (__clzsi2)
c:/altera/12.1sp1/nios2eds/bin/gnu/h-i686-mingw32/bin/../lib/gcc/nios2-elf/4.1.2/mno-hw-mul\libgcc.a(_pack_df.o)
                              c:/altera/12.1sp1/nios2eds/bin/gnu/h-i686-mingw32/bin/../lib/gcc/nios2-elf/4.1.2/mno-hw-mul\libgcc.a(_addsub_df.o) (__pack_d)
c:/altera/12.1sp1/nios2eds/bin/gnu/h-i686-mingw32/bin/../lib/gcc/nios2-elf/4.1.2/mno-hw-mul\libgcc.a(_unpack_df.o)
                              c:/altera/12.1sp1/nios2eds/bin/gnu/h-i686-mingw32/bin/../lib/gcc/nios2-elf/4.1.2/mno-hw-mul\libgcc.a(_addsub_df.o) (__unpack_d)
c:/altera/12.1sp1/nios2eds/bin/gnu/h-i686-mingw32/bin/../lib/gcc/nios2-elf/4.1.2/mno-hw-mul\libgcc.a(_clz.o)
                              c:/altera/12.1sp1/nios2eds/bin/gnu/h-i686-mingw32/bin/../lib/gcc/nios2-elf/4.1.2/mno-hw-mul\libgcc.a(_clzsi2.o) (__clz_tab)
c:/altera/12.1sp1/nios2eds/bin/gnu/h-i686-mingw32/bin/../lib/gcc/nios2-elf/4.1.2/../../../../nios2-elf/lib/mno-hw-mul\libc.a(lib_a-strcat.o)
                              obj/default/midi_generator.o (strcat)
c:/altera/12.1sp1/nios2eds/bin/gnu/h-i686-mingw32/bin/../lib/gcc/nios2-elf/4.1.2/../../../../nios2-elf/lib/mno-hw-mul\libc.a(lib_a-strcpy.o)
                              c:/altera/12.1sp1/nios2eds/bin/gnu/h-i686-mingw32/bin/../lib/gcc/nios2-elf/4.1.2/../../../../nios2-elf/lib/mno-hw-mul\libc.a(lib_a-strcat.o) (strcpy)
../MIDIGenerator_bsp/\libucosii_bsp.a(alt_iic.o)
                              obj/default/midi_generator.o (alt_ic_isr_register)
../MIDIGenerator_bsp/\libucosii_bsp.a(alt_iic_isr_register.o)
                              ../MIDIGenerator_bsp/\libucosii_bsp.a(alt_iic.o) (alt_iic_isr_register)
../MIDIGenerator_bsp/\libucosii_bsp.a(alt_irq_entry.o)
                              ../MIDIGenerator_bsp/\libucosii_bsp.a(alt_iic_isr_register.o) (alt_irq_entry)
../MIDIGenerator_bsp/\libucosii_bsp.a(alt_irq_handler.o)
                              ../MIDIGenerator_bsp/\libucosii_bsp.a(alt_iic_isr_register.o) (alt_irq_handler)
../MIDIGenerator_bsp/\libucosii_bsp.a(alt_irq_vars.o)
                              ../MIDIGenerator_bsp/\libucosii_bsp.a(alt_iic.o) (alt_irq_active)
../MIDIGenerator_bsp/\libucosii_bsp.a(alt_load.o)
                              ../MIDIGenerator_bsp//obj/HAL/src/crt0.o (alt_load)
../MIDIGenerator_bsp/\libucosii_bsp.a(alt_main.o)
                              ../MIDIGenerator_bsp//obj/HAL/src/crt0.o (alt_main)
../MIDIGenerator_bsp/\libucosii_bsp.a(alt_printf.o)
                              obj/default/midi_generator.o (alt_printf)
../MIDIGenerator_bsp/\libucosii_bsp.a(alt_putchar.o)
                              ../MIDIGenerator_bsp/\libucosii_bsp.a(alt_printf.o) (alt_putchar)
../MIDIGenerator_bsp/\libucosii_bsp.a(alt_env_lock.o)
                              ../MIDIGenerator_bsp/\libucosii_bsp.a(alt_main.o) (alt_envsem)
../MIDIGenerator_bsp/\libucosii_bsp.a(alt_malloc_lock.o)
                              ../MIDIGenerator_bsp/\libucosii_bsp.a(alt_main.o) (alt_heapsem)
../MIDIGenerator_bsp/\libucosii_bsp.a(os_core.o)
                              ../MIDIGenerator_bsp/\libucosii_bsp.a(alt_main.o) (OSInit)
../MIDIGenerator_bsp/\libucosii_bsp.a(os_dbg.o)
                              ../MIDIGenerator_bsp/\libucosii_bsp.a(os_core.o) (OSDebugInit)
../MIDIGenerator_bsp/\libucosii_bsp.a(os_flag.o)
                              ../MIDIGenerator_bsp/\libucosii_bsp.a(os_core.o) (OS_FlagInit)
../MIDIGenerator_bsp/\libucosii_bsp.a(os_mem.o)
                              ../MIDIGenerator_bsp/\libucosii_bsp.a(os_core.o) (OS_MemInit)
../MIDIGenerator_bsp/\libucosii_bsp.a(os_q.o)
                              ../MIDIGenerator_bsp/\libucosii_bsp.a(os_core.o) (OS_QInit)
../MIDIGenerator_bsp/\libucosii_bsp.a(os_sem.o)
                              obj/default/midi_generator.o (OSSemCreate)
../MIDIGenerator_bsp/\libucosii_bsp.a(os_task.o)
                              obj/default/midi_generator.o (OSTaskCreateExt)
../MIDIGenerator_bsp/\libucosii_bsp.a(os_time.o)
                              ../MIDIGenerator_bsp/\libucosii_bsp.a(os_core.o) (OSTimeDly)
../MIDIGenerator_bsp/\libucosii_bsp.a(alt_sys_init.o)
                              ../MIDIGenerator_bsp/\libucosii_bsp.a(alt_main.o) (alt_irq_init)
../MIDIGenerator_bsp/\libucosii_bsp.a(altera_avalon_jtag_uart_fd.o)
                              ../MIDIGenerator_bsp/\libucosii_bsp.a(alt_sys_init.o) (altera_avalon_jtag_uart_read_fd)
../MIDIGenerator_bsp/\libucosii_bsp.a(altera_avalon_jtag_uart_init.o)
                              ../MIDIGenerator_bsp/\libucosii_bsp.a(alt_sys_init.o) (altera_avalon_jtag_uart_init)
../MIDIGenerator_bsp/\libucosii_bsp.a(altera_avalon_jtag_uart_ioctl.o)
                              ../MIDIGenerator_bsp/\libucosii_bsp.a(altera_avalon_jtag_uart_fd.o) (altera_avalon_jtag_uart_ioctl)
../MIDIGenerator_bsp/\libucosii_bsp.a(altera_avalon_jtag_uart_read.o)
                              ../MIDIGenerator_bsp/\libucosii_bsp.a(altera_avalon_jtag_uart_fd.o) (altera_avalon_jtag_uart_read)
../MIDIGenerator_bsp/\libucosii_bsp.a(altera_avalon_jtag_uart_write.o)
                              ../MIDIGenerator_bsp/\libucosii_bsp.a(altera_avalon_jtag_uart_fd.o) (altera_avalon_jtag_uart_write)
../MIDIGenerator_bsp/\libucosii_bsp.a(altera_avalon_timer_sc.o)
                              ../MIDIGenerator_bsp/\libucosii_bsp.a(alt_sys_init.o) (alt_avalon_timer_sc_init)
../MIDIGenerator_bsp/\libucosii_bsp.a(altera_up_avalon_character_lcd.o)
                              obj/default/midi_generator.o (alt_up_character_lcd_init)
../MIDIGenerator_bsp/\libucosii_bsp.a(alt_alarm_start.o)
                              ../MIDIGenerator_bsp/\libucosii_bsp.a(altera_avalon_jtag_uart_init.o) (alt_alarm_start)
../MIDIGenerator_bsp/\libucosii_bsp.a(alt_close.o)
                              ../MIDIGenerator_bsp/\libucosii_bsp.a(alt_main.o) (close)
../MIDIGenerator_bsp/\libucosii_bsp.a(alt_dcache_flush_all.o)
                              ../MIDIGenerator_bsp/\libucosii_bsp.a(alt_load.o) (alt_dcache_flush_all)
../MIDIGenerator_bsp/\libucosii_bsp.a(alt_dev.o)
                              ../MIDIGenerator_bsp/\libucosii_bsp.a(alt_sys_init.o) (alt_dev_list)
../MIDIGenerator_bsp/\libucosii_bsp.a(alt_dev_llist_insert.o)
                              ../MIDIGenerator_bsp/\libucosii_bsp.a(alt_sys_init.o) (alt_dev_llist_insert)
../MIDIGenerator_bsp/\libucosii_bsp.a(alt_do_ctors.o)
                              ../MIDIGenerator_bsp/\libucosii_bsp.a(alt_main.o) (_do_ctors)
../MIDIGenerator_bsp/\libucosii_bsp.a(alt_do_dtors.o)
                              ../MIDIGenerator_bsp/\libucosii_bsp.a(alt_main.o) (_do_dtors)
../MIDIGenerator_bsp/\libucosii_bsp.a(alt_errno.o)
                              ../MIDIGenerator_bsp/\libucosii_bsp.a(alt_close.o) (alt_errno)
../MIDIGenerator_bsp/\libucosii_bsp.a(alt_exception_entry.o)
                              ../MIDIGenerator_bsp/\libucosii_bsp.a(alt_irq_entry.o) (alt_exception)
../MIDIGenerator_bsp/\libucosii_bsp.a(alt_find_dev.o)
                              ../MIDIGenerator_bsp/\libucosii_bsp.a(altera_up_avalon_character_lcd.o) (alt_find_dev)
../MIDIGenerator_bsp/\libucosii_bsp.a(alt_icache_flush_all.o)
                              ../MIDIGenerator_bsp/\libucosii_bsp.a(alt_load.o) (alt_icache_flush_all)
../MIDIGenerator_bsp/\libucosii_bsp.a(alt_io_redirect.o)
                              ../MIDIGenerator_bsp/\libucosii_bsp.a(alt_main.o) (alt_io_redirect)
../MIDIGenerator_bsp/\libucosii_bsp.a(alt_open.o)
                              ../MIDIGenerator_bsp/\libucosii_bsp.a(alt_io_redirect.o) (open)
../MIDIGenerator_bsp/\libucosii_bsp.a(alt_release_fd.o)
                              ../MIDIGenerator_bsp/\libucosii_bsp.a(alt_close.o) (alt_release_fd)
../MIDIGenerator_bsp/\libucosii_bsp.a(alt_tick.o)
                              ../MIDIGenerator_bsp/\libucosii_bsp.a(altera_avalon_jtag_uart_init.o) (_alt_tick_rate)
../MIDIGenerator_bsp/\libucosii_bsp.a(altera_nios2_qsys_irq.o)
                              ../MIDIGenerator_bsp/\libucosii_bsp.a(alt_sys_init.o) (altera_nios2_qsys_irq_init)
../MIDIGenerator_bsp/\libucosii_bsp.a(os_cpu_a.o)
                              ../MIDIGenerator_bsp/\libucosii_bsp.a(os_core.o) (OSIntCtxSw)
../MIDIGenerator_bsp/\libucosii_bsp.a(os_cpu_c.o)
                              ../MIDIGenerator_bsp/\libucosii_bsp.a(os_task.o) (OSTaskStkInit)
../MIDIGenerator_bsp/\libucosii_bsp.a(alt_find_file.o)
                              ../MIDIGenerator_bsp/\libucosii_bsp.a(alt_open.o) (alt_find_file)
../MIDIGenerator_bsp/\libucosii_bsp.a(alt_get_fd.o)
                              ../MIDIGenerator_bsp/\libucosii_bsp.a(alt_open.o) (alt_get_fd)
c:/altera/12.1sp1/nios2eds/bin/gnu/h-i686-mingw32/bin/../lib/gcc/nios2-elf/4.1.2/../../../../nios2-elf/lib/mno-hw-mul\libc.a(lib_a-atexit.o)
                              ../MIDIGenerator_bsp/\libucosii_bsp.a(alt_main.o) (atexit)
c:/altera/12.1sp1/nios2eds/bin/gnu/h-i686-mingw32/bin/../lib/gcc/nios2-elf/4.1.2/../../../../nios2-elf/lib/mno-hw-mul\libc.a(lib_a-exit.o)
                              ../MIDIGenerator_bsp/\libucosii_bsp.a(alt_main.o) (exit)
c:/altera/12.1sp1/nios2eds/bin/gnu/h-i686-mingw32/bin/../lib/gcc/nios2-elf/4.1.2/../../../../nios2-elf/lib/mno-hw-mul\libc.a(lib_a-impure.o)
                              ../MIDIGenerator_bsp/\libucosii_bsp.a(alt_putchar.o) (_impure_ptr)
c:/altera/12.1sp1/nios2eds/bin/gnu/h-i686-mingw32/bin/../lib/gcc/nios2-elf/4.1.2/../../../../nios2-elf/lib/mno-hw-mul\libc.a(lib_a-int_errno.o)
                              ../MIDIGenerator_bsp/\libucosii_bsp.a(alt_close.o) (errno)
c:/altera/12.1sp1/nios2eds/bin/gnu/h-i686-mingw32/bin/../lib/gcc/nios2-elf/4.1.2/../../../../nios2-elf/lib/mno-hw-mul\libc.a(lib_a-memcmp.o)
                              ../MIDIGenerator_bsp/\libucosii_bsp.a(alt_find_dev.o) (memcmp)
c:/altera/12.1sp1/nios2eds/bin/gnu/h-i686-mingw32/bin/../lib/gcc/nios2-elf/4.1.2/../../../../nios2-elf/lib/mno-hw-mul\libc.a(lib_a-memcpy.o)
                              ../MIDIGenerator_bsp/\libucosii_bsp.a(altera_avalon_jtag_uart_read.o) (memcpy)
c:/altera/12.1sp1/nios2eds/bin/gnu/h-i686-mingw32/bin/../lib/gcc/nios2-elf/4.1.2/../../../../nios2-elf/lib/mno-hw-mul\libc.a(lib_a-memset.o)
                              ../MIDIGenerator_bsp/\libucosii_bsp.a(os_cpu_c.o) (memset)
c:/altera/12.1sp1/nios2eds/bin/gnu/h-i686-mingw32/bin/../lib/gcc/nios2-elf/4.1.2/../../../../nios2-elf/lib/mno-hw-mul\libc.a(lib_a-putc.o)
                              ../MIDIGenerator_bsp/\libucosii_bsp.a(alt_putchar.o) (putc)
c:/altera/12.1sp1/nios2eds/bin/gnu/h-i686-mingw32/bin/../lib/gcc/nios2-elf/4.1.2/../../../../nios2-elf/lib/mno-hw-mul\libc.a(lib_a-strlen.o)
                              ../MIDIGenerator_bsp/\libucosii_bsp.a(alt_find_dev.o) (strlen)
c:/altera/12.1sp1/nios2eds/bin/gnu/h-i686-mingw32/bin/../lib/gcc/nios2-elf/4.1.2/../../../../nios2-elf/lib/mno-hw-mul\libc.a(lib_a-wbuf.o)
                              c:/altera/12.1sp1/nios2eds/bin/gnu/h-i686-mingw32/bin/../lib/gcc/nios2-elf/4.1.2/../../../../nios2-elf/lib/mno-hw-mul\libc.a(lib_a-putc.o) (__swbuf_r)
c:/altera/12.1sp1/nios2eds/bin/gnu/h-i686-mingw32/bin/../lib/gcc/nios2-elf/4.1.2/../../../../nios2-elf/lib/mno-hw-mul\libc.a(lib_a-wsetup.o)
                              c:/altera/12.1sp1/nios2eds/bin/gnu/h-i686-mingw32/bin/../lib/gcc/nios2-elf/4.1.2/../../../../nios2-elf/lib/mno-hw-mul\libc.a(lib_a-wbuf.o) (__swsetup_r)
c:/altera/12.1sp1/nios2eds/bin/gnu/h-i686-mingw32/bin/../lib/gcc/nios2-elf/4.1.2/../../../../nios2-elf/lib/mno-hw-mul\libc.a(lib_a-__atexit.o)
                              c:/altera/12.1sp1/nios2eds/bin/gnu/h-i686-mingw32/bin/../lib/gcc/nios2-elf/4.1.2/../../../../nios2-elf/lib/mno-hw-mul\libc.a(lib_a-atexit.o) (__register_exitproc)
c:/altera/12.1sp1/nios2eds/bin/gnu/h-i686-mingw32/bin/../lib/gcc/nios2-elf/4.1.2/../../../../nios2-elf/lib/mno-hw-mul\libc.a(lib_a-__call_atexit.o)
                              c:/altera/12.1sp1/nios2eds/bin/gnu/h-i686-mingw32/bin/../lib/gcc/nios2-elf/4.1.2/../../../../nios2-elf/lib/mno-hw-mul\libc.a(lib_a-exit.o) (__call_exitprocs)
c:/altera/12.1sp1/nios2eds/bin/gnu/h-i686-mingw32/bin/../lib/gcc/nios2-elf/4.1.2/../../../../nios2-elf/lib/mno-hw-mul\libc.a(lib_a-fflush.o)
                              c:/altera/12.1sp1/nios2eds/bin/gnu/h-i686-mingw32/bin/../lib/gcc/nios2-elf/4.1.2/../../../../nios2-elf/lib/mno-hw-mul\libc.a(lib_a-wbuf.o) (_fflush_r)
c:/altera/12.1sp1/nios2eds/bin/gnu/h-i686-mingw32/bin/../lib/gcc/nios2-elf/4.1.2/../../../../nios2-elf/lib/mno-hw-mul\libc.a(lib_a-findfp.o)
                              c:/altera/12.1sp1/nios2eds/bin/gnu/h-i686-mingw32/bin/../lib/gcc/nios2-elf/4.1.2/../../../../nios2-elf/lib/mno-hw-mul\libc.a(lib_a-putc.o) (__sinit)
c:/altera/12.1sp1/nios2eds/bin/gnu/h-i686-mingw32/bin/../lib/gcc/nios2-elf/4.1.2/../../../../nios2-elf/lib/mno-hw-mul\libc.a(lib_a-freer.o)
                              c:/altera/12.1sp1/nios2eds/bin/gnu/h-i686-mingw32/bin/../lib/gcc/nios2-elf/4.1.2/../../../../nios2-elf/lib/mno-hw-mul\libc.a(lib_a-wsetup.o) (_free_r)
c:/altera/12.1sp1/nios2eds/bin/gnu/h-i686-mingw32/bin/../lib/gcc/nios2-elf/4.1.2/../../../../nios2-elf/lib/mno-hw-mul\libc.a(lib_a-fwalk.o)
                              c:/altera/12.1sp1/nios2eds/bin/gnu/h-i686-mingw32/bin/../lib/gcc/nios2-elf/4.1.2/../../../../nios2-elf/lib/mno-hw-mul\libc.a(lib_a-fflush.o) (_fwalk_reent)
c:/altera/12.1sp1/nios2eds/bin/gnu/h-i686-mingw32/bin/../lib/gcc/nios2-elf/4.1.2/../../../../nios2-elf/lib/mno-hw-mul\libc.a(lib_a-makebuf.o)
                              c:/altera/12.1sp1/nios2eds/bin/gnu/h-i686-mingw32/bin/../lib/gcc/nios2-elf/4.1.2/../../../../nios2-elf/lib/mno-hw-mul\libc.a(lib_a-wsetup.o) (__smakebuf_r)
c:/altera/12.1sp1/nios2eds/bin/gnu/h-i686-mingw32/bin/../lib/gcc/nios2-elf/4.1.2/../../../../nios2-elf/lib/mno-hw-mul\libc.a(lib_a-mallocr.o)
                              c:/altera/12.1sp1/nios2eds/bin/gnu/h-i686-mingw32/bin/../lib/gcc/nios2-elf/4.1.2/../../../../nios2-elf/lib/mno-hw-mul\libc.a(lib_a-findfp.o) (_malloc_r)
c:/altera/12.1sp1/nios2eds/bin/gnu/h-i686-mingw32/bin/../lib/gcc/nios2-elf/4.1.2/../../../../nios2-elf/lib/mno-hw-mul\libc.a(lib_a-sbrkr.o)
                              c:/altera/12.1sp1/nios2eds/bin/gnu/h-i686-mingw32/bin/../lib/gcc/nios2-elf/4.1.2/../../../../nios2-elf/lib/mno-hw-mul\libc.a(lib_a-freer.o) (_sbrk_r)
c:/altera/12.1sp1/nios2eds/bin/gnu/h-i686-mingw32/bin/../lib/gcc/nios2-elf/4.1.2/../../../../nios2-elf/lib/mno-hw-mul\libc.a(lib_a-stdio.o)
                              c:/altera/12.1sp1/nios2eds/bin/gnu/h-i686-mingw32/bin/../lib/gcc/nios2-elf/4.1.2/../../../../nios2-elf/lib/mno-hw-mul\libc.a(lib_a-findfp.o) (__sclose)
c:/altera/12.1sp1/nios2eds/bin/gnu/h-i686-mingw32/bin/../lib/gcc/nios2-elf/4.1.2/../../../../nios2-elf/lib/mno-hw-mul\libc.a(lib_a-writer.o)
                              c:/altera/12.1sp1/nios2eds/bin/gnu/h-i686-mingw32/bin/../lib/gcc/nios2-elf/4.1.2/../../../../nios2-elf/lib/mno-hw-mul\libc.a(lib_a-stdio.o) (_write_r)
c:/altera/12.1sp1/nios2eds/bin/gnu/h-i686-mingw32/bin/../lib/gcc/nios2-elf/4.1.2/../../../../nios2-elf/lib/mno-hw-mul\libc.a(lib_a-closer.o)
                              c:/altera/12.1sp1/nios2eds/bin/gnu/h-i686-mingw32/bin/../lib/gcc/nios2-elf/4.1.2/../../../../nios2-elf/lib/mno-hw-mul\libc.a(lib_a-stdio.o) (_close_r)
c:/altera/12.1sp1/nios2eds/bin/gnu/h-i686-mingw32/bin/../lib/gcc/nios2-elf/4.1.2/../../../../nios2-elf/lib/mno-hw-mul\libc.a(lib_a-fclose.o)
                              c:/altera/12.1sp1/nios2eds/bin/gnu/h-i686-mingw32/bin/../lib/gcc/nios2-elf/4.1.2/../../../../nios2-elf/lib/mno-hw-mul\libc.a(lib_a-findfp.o) (fclose)
c:/altera/12.1sp1/nios2eds/bin/gnu/h-i686-mingw32/bin/../lib/gcc/nios2-elf/4.1.2/../../../../nios2-elf/lib/mno-hw-mul\libc.a(lib_a-fstatr.o)
                              c:/altera/12.1sp1/nios2eds/bin/gnu/h-i686-mingw32/bin/../lib/gcc/nios2-elf/4.1.2/../../../../nios2-elf/lib/mno-hw-mul\libc.a(lib_a-makebuf.o) (_fstat_r)
c:/altera/12.1sp1/nios2eds/bin/gnu/h-i686-mingw32/bin/../lib/gcc/nios2-elf/4.1.2/../../../../nios2-elf/lib/mno-hw-mul\libc.a(lib_a-isattyr.o)
                              c:/altera/12.1sp1/nios2eds/bin/gnu/h-i686-mingw32/bin/../lib/gcc/nios2-elf/4.1.2/../../../../nios2-elf/lib/mno-hw-mul\libc.a(lib_a-makebuf.o) (_isatty_r)
c:/altera/12.1sp1/nios2eds/bin/gnu/h-i686-mingw32/bin/../lib/gcc/nios2-elf/4.1.2/../../../../nios2-elf/lib/mno-hw-mul\libc.a(lib_a-lseekr.o)
                              c:/altera/12.1sp1/nios2eds/bin/gnu/h-i686-mingw32/bin/../lib/gcc/nios2-elf/4.1.2/../../../../nios2-elf/lib/mno-hw-mul\libc.a(lib_a-stdio.o) (_lseek_r)
c:/altera/12.1sp1/nios2eds/bin/gnu/h-i686-mingw32/bin/../lib/gcc/nios2-elf/4.1.2/../../../../nios2-elf/lib/mno-hw-mul\libc.a(lib_a-readr.o)
                              c:/altera/12.1sp1/nios2eds/bin/gnu/h-i686-mingw32/bin/../lib/gcc/nios2-elf/4.1.2/../../../../nios2-elf/lib/mno-hw-mul\libc.a(lib_a-stdio.o) (_read_r)
c:/altera/12.1sp1/nios2eds/bin/gnu/h-i686-mingw32/bin/../lib/gcc/nios2-elf/4.1.2/mno-hw-mul\libgcc.a(lib2-divmod.o)
                              ../MIDIGenerator_bsp/\libucosii_bsp.a(os_core.o) (__udivsi3)
c:/altera/12.1sp1/nios2eds/bin/gnu/h-i686-mingw32/bin/../lib/gcc/nios2-elf/4.1.2/mno-hw-mul\libgcc.a(lib2-mul.o)
                              ../MIDIGenerator_bsp/\libucosii_bsp.a(os_mem.o) (__mulsi3)
../MIDIGenerator_bsp/\libucosii_bsp.a(alt_exit.o)
                              c:/altera/12.1sp1/nios2eds/bin/gnu/h-i686-mingw32/bin/../lib/gcc/nios2-elf/4.1.2/../../../../nios2-elf/lib/mno-hw-mul\libc.a(lib_a-exit.o) (_exit)
../MIDIGenerator_bsp/\libucosii_bsp.a(alt_fstat.o)
                              c:/altera/12.1sp1/nios2eds/bin/gnu/h-i686-mingw32/bin/../lib/gcc/nios2-elf/4.1.2/../../../../nios2-elf/lib/mno-hw-mul\libc.a(lib_a-fstatr.o) (fstat)
../MIDIGenerator_bsp/\libucosii_bsp.a(alt_isatty.o)
                              c:/altera/12.1sp1/nios2eds/bin/gnu/h-i686-mingw32/bin/../lib/gcc/nios2-elf/4.1.2/../../../../nios2-elf/lib/mno-hw-mul\libc.a(lib_a-isattyr.o) (isatty)
../MIDIGenerator_bsp/\libucosii_bsp.a(alt_lseek.o)
                              c:/altera/12.1sp1/nios2eds/bin/gnu/h-i686-mingw32/bin/../lib/gcc/nios2-elf/4.1.2/../../../../nios2-elf/lib/mno-hw-mul\libc.a(lib_a-lseekr.o) (lseek)
../MIDIGenerator_bsp/\libucosii_bsp.a(alt_read.o)
                              c:/altera/12.1sp1/nios2eds/bin/gnu/h-i686-mingw32/bin/../lib/gcc/nios2-elf/4.1.2/../../../../nios2-elf/lib/mno-hw-mul\libc.a(lib_a-readr.o) (read)
../MIDIGenerator_bsp/\libucosii_bsp.a(alt_sbrk.o)
                              c:/altera/12.1sp1/nios2eds/bin/gnu/h-i686-mingw32/bin/../lib/gcc/nios2-elf/4.1.2/../../../../nios2-elf/lib/mno-hw-mul\libc.a(lib_a-sbrkr.o) (sbrk)
../MIDIGenerator_bsp/\libucosii_bsp.a(alt_write.o)
                              c:/altera/12.1sp1/nios2eds/bin/gnu/h-i686-mingw32/bin/../lib/gcc/nios2-elf/4.1.2/../../../../nios2-elf/lib/mno-hw-mul\libc.a(lib_a-writer.o) (write)

Allocating common symbols
Common symbol       size              file

alt_irq             0x100             ../MIDIGenerator_bsp/\libucosii_bsp.a(alt_irq_handler.o)
OSLockNesting       0x1               ../MIDIGenerator_bsp/\libucosii_bsp.a(os_core.o)
OSRunning           0x1               ../MIDIGenerator_bsp/\libucosii_bsp.a(os_core.o)
OSIdleCtr           0x4               ../MIDIGenerator_bsp/\libucosii_bsp.a(os_core.o)
OSPrioHighRdy       0x1               ../MIDIGenerator_bsp/\libucosii_bsp.a(os_core.o)
errno               0x4               c:/altera/12.1sp1/nios2eds/bin/gnu/h-i686-mingw32/bin/../lib/gcc/nios2-elf/4.1.2/../../../../nios2-elf/lib/mno-hw-mul\libc.a(lib_a-int_errno.o)
alt_heapsem         0x4               ../MIDIGenerator_bsp/\libucosii_bsp.a(alt_malloc_lock.o)
OSFlagTbl           0x370             ../MIDIGenerator_bsp/\libucosii_bsp.a(os_core.o)
OSPrioCur           0x1               ../MIDIGenerator_bsp/\libucosii_bsp.a(os_core.o)
OSTCBList           0x4               ../MIDIGenerator_bsp/\libucosii_bsp.a(os_core.o)
alt_fd_list_lock    0x4               ../MIDIGenerator_bsp/\libucosii_bsp.a(alt_dev.o)
laserStatusChanged  0x4               obj/default/midi_generator.o
OSMemTbl            0xc30             ../MIDIGenerator_bsp/\libucosii_bsp.a(os_core.o)
OSTickStepState     0x1               ../MIDIGenerator_bsp/\libucosii_bsp.a(os_core.o)
OSTaskStatStk       0x800             ../MIDIGenerator_bsp/\libucosii_bsp.a(os_core.o)
OSCtxSwCtr          0x4               ../MIDIGenerator_bsp/\libucosii_bsp.a(os_core.o)
OSIdleCtrMax        0x4               ../MIDIGenerator_bsp/\libucosii_bsp.a(os_core.o)
OSTCBFreeList       0x4               ../MIDIGenerator_bsp/\libucosii_bsp.a(os_core.o)
OSCPUUsage          0x1               ../MIDIGenerator_bsp/\libucosii_bsp.a(os_core.o)
OSTaskCtr           0x1               ../MIDIGenerator_bsp/\libucosii_bsp.a(os_core.o)
OSMemFreeList       0x4               ../MIDIGenerator_bsp/\libucosii_bsp.a(os_core.o)
OSQTbl              0x1e0             ../MIDIGenerator_bsp/\libucosii_bsp.a(os_core.o)
OSTCBHighRdy        0x4               ../MIDIGenerator_bsp/\libucosii_bsp.a(os_core.o)
OSQFreeList         0x4               ../MIDIGenerator_bsp/\libucosii_bsp.a(os_core.o)
OSRdyGrp            0x1               ../MIDIGenerator_bsp/\libucosii_bsp.a(os_core.o)
_atexit0            0x190             c:/altera/12.1sp1/nios2eds/bin/gnu/h-i686-mingw32/bin/../lib/gcc/nios2-elf/4.1.2/../../../../nios2-elf/lib/mno-hw-mul\libc.a(lib_a-atexit.o)
OSRdyTbl            0x3               ../MIDIGenerator_bsp/\libucosii_bsp.a(os_core.o)
OSEventFreeList     0x4               ../MIDIGenerator_bsp/\libucosii_bsp.a(os_core.o)
OSIntNesting        0x1               ../MIDIGenerator_bsp/\libucosii_bsp.a(os_core.o)
OSTCBCur            0x4               ../MIDIGenerator_bsp/\libucosii_bsp.a(os_core.o)
OSTime              0x4               ../MIDIGenerator_bsp/\libucosii_bsp.a(os_core.o)
OSTaskIdleStk       0x800             ../MIDIGenerator_bsp/\libucosii_bsp.a(os_core.o)
inputPollingTaskStack
                    0x2000            obj/default/midi_generator.o
OSEventTbl          0xb40             ../MIDIGenerator_bsp/\libucosii_bsp.a(os_core.o)
OSTCBTbl            0x510             ../MIDIGenerator_bsp/\libucosii_bsp.a(os_core.o)
OSFlagFreeList      0x4               ../MIDIGenerator_bsp/\libucosii_bsp.a(os_core.o)
OSStatRdy           0x1               ../MIDIGenerator_bsp/\libucosii_bsp.a(os_core.o)
OSTCBPrioTbl        0x54              ../MIDIGenerator_bsp/\libucosii_bsp.a(os_core.o)
alt_envsem          0x4               ../MIDIGenerator_bsp/\libucosii_bsp.a(alt_env_lock.o)
OSIdleCtrRun        0x4               ../MIDIGenerator_bsp/\libucosii_bsp.a(os_core.o)

Memory Configuration

Name             Origin             Length             Attributes
sdram_0          0x00800000         0x00800000
sram_0           0x01080000         0x00080000
reset            0x01104000         0x00000020
onchip_memory2_0 0x01104020         0x00003fe0
*default*        0x00000000         0xffffffff

Linker script and memory map

LOAD ../MIDIGenerator_bsp//obj/HAL/src/crt0.o
LOAD obj/default/midi_generator.o
LOAD c:/altera/12.1sp1/nios2eds/bin/gnu/h-i686-mingw32/bin/../lib/gcc/nios2-elf/4.1.2/../../../../nios2-elf/lib/mno-hw-mul\libstdc++.a
LOAD c:/altera/12.1sp1/nios2eds/bin/gnu/h-i686-mingw32/bin/../lib/gcc/nios2-elf/4.1.2/../../../../nios2-elf/lib/mno-hw-mul\libm.a
LOAD c:/altera/12.1sp1/nios2eds/bin/gnu/h-i686-mingw32/bin/../lib/gcc/nios2-elf/4.1.2/mno-hw-mul\libgcc.a
START GROUP
LOAD c:/altera/12.1sp1/nios2eds/bin/gnu/h-i686-mingw32/bin/../lib/gcc/nios2-elf/4.1.2/../../../../nios2-elf/lib/mno-hw-mul\libc.a
LOAD c:/altera/12.1sp1/nios2eds/bin/gnu/h-i686-mingw32/bin/../lib/gcc/nios2-elf/4.1.2/mno-hw-mul\libgcc.a
LOAD ../MIDIGenerator_bsp/\libucosii_bsp.a
END GROUP
LOAD c:/altera/12.1sp1/nios2eds/bin/gnu/h-i686-mingw32/bin/../lib/gcc/nios2-elf/4.1.2/mno-hw-mul\libgcc.a
                0x00800000                __alt_mem_sdram_0 = 0x800000
                0x01080000                __alt_mem_sram_0 = 0x1080000
                0x01104000                __alt_mem_onchip_memory2_0 = 0x1104000

.entry          0x01104000       0x20
 *(.entry)
 .entry         0x01104000       0x20 ../MIDIGenerator_bsp//obj/HAL/src/crt0.o
                0x01104000                __reset

.exceptions     0x01104020      0x19c load address 0x00800000
                0x01104020                PROVIDE (__ram_exceptions_start, ABSOLUTE (.))
                0x01104020                . = ALIGN (0x20)
 *(.irq)
 *(.exceptions.entry.label)
 .exceptions.entry.label
                0x01104020        0x0 ../MIDIGenerator_bsp/\libucosii_bsp.a(alt_irq_entry.o)
                0x01104020                alt_irq_entry
 .exceptions.entry.label
                0x01104020        0x0 ../MIDIGenerator_bsp/\libucosii_bsp.a(alt_exception_entry.o)
                0x01104020                alt_exception
 *(.exceptions.entry.user)
 *(.exceptions.entry)
 .exceptions.entry
                0x01104020       0x54 ../MIDIGenerator_bsp/\libucosii_bsp.a(alt_exception_entry.o)
 *(.exceptions.irqtest.user)
 *(.exceptions.irqtest)
 .exceptions.irqtest
                0x01104074       0x10 ../MIDIGenerator_bsp/\libucosii_bsp.a(alt_irq_entry.o)
 *(.exceptions.irqhandler.user)
 *(.exceptions.irqhandler)
 .exceptions.irqhandler
                0x01104084        0x4 ../MIDIGenerator_bsp/\libucosii_bsp.a(alt_irq_entry.o)
 *(.exceptions.irqreturn.user)
 *(.exceptions.irqreturn)
 .exceptions.irqreturn
                0x01104088        0x4 ../MIDIGenerator_bsp/\libucosii_bsp.a(alt_irq_entry.o)
 *(.exceptions.notirq.label)
 .exceptions.notirq.label
                0x0110408c        0x0 ../MIDIGenerator_bsp/\libucosii_bsp.a(alt_irq_entry.o)
 *(.exceptions.notirq.user)
 *(.exceptions.notirq)
 .exceptions.notirq
                0x0110408c        0x8 ../MIDIGenerator_bsp/\libucosii_bsp.a(alt_exception_entry.o)
 *(.exceptions.soft.user)
 *(.exceptions.soft)
 *(.exceptions.unknown.user)
 *(.exceptions.unknown)
 .exceptions.unknown
                0x01104094        0x4 ../MIDIGenerator_bsp/\libucosii_bsp.a(alt_exception_entry.o)
 *(.exceptions.exit.label)
 .exceptions.exit.label
                0x01104098        0x0 ../MIDIGenerator_bsp/\libucosii_bsp.a(alt_irq_entry.o)
 .exceptions.exit.label
                0x01104098        0x0 ../MIDIGenerator_bsp/\libucosii_bsp.a(alt_exception_entry.o)
 *(.exceptions.exit.user)
 *(.exceptions.exit)
 .exceptions.exit
                0x01104098       0x54 ../MIDIGenerator_bsp/\libucosii_bsp.a(alt_exception_entry.o)
 *(.exceptions)
 .exceptions    0x011040ec       0xd0 ../MIDIGenerator_bsp/\libucosii_bsp.a(alt_irq_handler.o)
                0x011040ec                alt_irq_handler
                0x011041bc                PROVIDE (__ram_exceptions_end, ABSOLUTE (.))
                0x00800000                PROVIDE (__flash_exceptions_start, LOADADDR (.exceptions))

.text           0x0080019c     0xf26c
                0x0080019c                PROVIDE (stext, ABSOLUTE (.))
 *(.interp)
 *(.hash)
 *(.dynsym)
 *(.dynstr)
 *(.gnu.version)
 *(.gnu.version_d)
 *(.gnu.version_r)
 *(.rel.init)
 *(.rela.init)
 *(.rel.text .rel.text.* .rel.gnu.linkonce.t.*)
 *(.rela.text .rela.text.* .rela.gnu.linkonce.t.*)
 *(.rel.fini)
 *(.rela.fini)
 *(.rel.rodata .rel.rodata.* .rel.gnu.linkonce.r.*)
 *(.rela.rodata .rela.rodata.* .rela.gnu.linkonce.r.*)
 *(.rel.data .rel.data.* .rel.gnu.linkonce.d.*)
 *(.rela.data .rela.data.* .rela.gnu.linkonce.d.*)
 *(.rel.tdata .rel.tdata.* .rel.gnu.linkonce.td.*)
 *(.rela.tdata .rela.tdata.* .rela.gnu.linkonce.td.*)
 *(.rel.tbss .rel.tbss.* .rel.gnu.linkonce.tb.*)
 *(.rela.tbss .rela.tbss.* .rela.gnu.linkonce.tb.*)
 *(.rel.ctors)
 *(.rela.ctors)
 *(.rel.dtors)
 *(.rela.dtors)
 *(.rel.got)
 *(.rela.got)
 *(.rel.sdata .rel.sdata.* .rel.gnu.linkonce.s.*)
 *(.rela.sdata .rela.sdata.* .rela.gnu.linkonce.s.*)
 *(.rel.sbss .rel.sbss.* .rel.gnu.linkonce.sb.*)
 *(.rela.sbss .rela.sbss.* .rela.gnu.linkonce.sb.*)
 *(.rel.sdata2 .rel.sdata2.* .rel.gnu.linkonce.s2.*)
 *(.rela.sdata2 .rela.sdata2.* .rela.gnu.linkonce.s2.*)
 *(.rel.sbss2 .rel.sbss2.* .rel.gnu.linkonce.sb2.*)
 *(.rela.sbss2 .rela.sbss2.* .rela.gnu.linkonce.sb2.*)
 *(.rel.bss .rel.bss.* .rel.gnu.linkonce.b.*)
 *(.rela.bss .rela.bss.* .rela.gnu.linkonce.b.*)
 *(.rel.plt)
 *(.rela.plt)
 *(.rel.dyn)
 *(.init)
 *(.plt)
 *(.text .stub .text.* .gnu.linkonce.t.*)
 .text          0x0080019c       0x3c ../MIDIGenerator_bsp//obj/HAL/src/crt0.o
                0x0080019c                _start
 .text          0x008001d8      0x498 obj/default/midi_generator.o
                0x008001d8                inputPollingTask
                0x00800300                handleLaserStatusChange
                0x008003cc                getMidiData
                0x008004a8                printLaserStatusOnLCD
                0x008005cc                main
 .text          0x00800670      0x504 c:/altera/12.1sp1/nios2eds/bin/gnu/h-i686-mingw32/bin/../lib/gcc/nios2-elf/4.1.2/mno-hw-mul\libgcc.a(_addsub_df.o)
                0x00800a80                __subdf3
                0x00800b00                __adddf3
 .text          0x00800b74       0xf8 c:/altera/12.1sp1/nios2eds/bin/gnu/h-i686-mingw32/bin/../lib/gcc/nios2-elf/4.1.2/mno-hw-mul\libgcc.a(_si_to_df.o)
                0x00800b74                __floatsidf
 .text          0x00800c6c       0xd8 c:/altera/12.1sp1/nios2eds/bin/gnu/h-i686-mingw32/bin/../lib/gcc/nios2-elf/4.1.2/mno-hw-mul\libgcc.a(_df_to_si.o)
                0x00800c6c                __fixdfsi
 .text          0x00800d44        0x0 c:/altera/12.1sp1/nios2eds/bin/gnu/h-i686-mingw32/bin/../lib/gcc/nios2-elf/4.1.2/mno-hw-mul\libgcc.a(_thenan_df.o)
 .text          0x00800d44       0x80 c:/altera/12.1sp1/nios2eds/bin/gnu/h-i686-mingw32/bin/../lib/gcc/nios2-elf/4.1.2/mno-hw-mul\libgcc.a(_clzsi2.o)
                0x00800d44                __clzsi2
 .text          0x00800dc4      0x314 c:/altera/12.1sp1/nios2eds/bin/gnu/h-i686-mingw32/bin/../lib/gcc/nios2-elf/4.1.2/mno-hw-mul\libgcc.a(_pack_df.o)
                0x00800dc4                __pack_d
 .text          0x008010d8      0x138 c:/altera/12.1sp1/nios2eds/bin/gnu/h-i686-mingw32/bin/../lib/gcc/nios2-elf/4.1.2/mno-hw-mul\libgcc.a(_unpack_df.o)
                0x008010d8                __unpack_d
 .text          0x00801210        0x0 c:/altera/12.1sp1/nios2eds/bin/gnu/h-i686-mingw32/bin/../lib/gcc/nios2-elf/4.1.2/mno-hw-mul\libgcc.a(_clz.o)
 .text          0x00801210       0x90 c:/altera/12.1sp1/nios2eds/bin/gnu/h-i686-mingw32/bin/../lib/gcc/nios2-elf/4.1.2/../../../../nios2-elf/lib/mno-hw-mul\libc.a(lib_a-strcat.o)
                0x00801210                strcat
 .text          0x008012a0       0x8c c:/altera/12.1sp1/nios2eds/bin/gnu/h-i686-mingw32/bin/../lib/gcc/nios2-elf/4.1.2/../../../../nios2-elf/lib/mno-hw-mul\libc.a(lib_a-strcpy.o)
                0x008012a0                strcpy
 .text          0x0080132c      0x1d4 ../MIDIGenerator_bsp/\libucosii_bsp.a(alt_iic.o)
                0x0080132c                alt_ic_isr_register
                0x0080137c                alt_ic_irq_enable
                0x00801418                alt_ic_irq_disable
                0x008014b8                alt_ic_irq_enabled
 .text          0x00801500       0xf8 ../MIDIGenerator_bsp/\libucosii_bsp.a(alt_iic_isr_register.o)
                0x00801500                alt_iic_isr_register
 .text          0x008015f8        0x0 ../MIDIGenerator_bsp/\libucosii_bsp.a(alt_irq_entry.o)
 .text          0x008015f8        0x0 ../MIDIGenerator_bsp/\libucosii_bsp.a(alt_irq_handler.o)
 .text          0x008015f8        0x0 ../MIDIGenerator_bsp/\libucosii_bsp.a(alt_irq_vars.o)
 .text          0x008015f8       0xec ../MIDIGenerator_bsp/\libucosii_bsp.a(alt_load.o)
                0x008015f8                alt_load
 .text          0x008016e4       0xc8 ../MIDIGenerator_bsp/\libucosii_bsp.a(alt_main.o)
                0x008016e4                alt_main
 .text          0x008017ac      0x258 ../MIDIGenerator_bsp/\libucosii_bsp.a(alt_printf.o)
                0x008017ac                alt_printf
 .text          0x00801a04       0x40 ../MIDIGenerator_bsp/\libucosii_bsp.a(alt_putchar.o)
                0x00801a04                alt_putchar
 .text          0x00801a44      0x108 ../MIDIGenerator_bsp/\libucosii_bsp.a(alt_env_lock.o)
                0x00801a44                __env_lock
                0x00801af0                __env_unlock
 .text          0x00801b4c      0x1d8 ../MIDIGenerator_bsp/\libucosii_bsp.a(alt_malloc_lock.o)
                0x00801b4c                __malloc_lock
                0x00801c54                __malloc_unlock
 .text          0x00801d24     0x2128 ../MIDIGenerator_bsp/\libucosii_bsp.a(os_core.o)
                0x00801d24                OSEventNameGet
                0x00801e54                OSEventNameSet
                0x00801f98                OSEventPendMulti
                0x0080264c                OSInit
                0x008026a0                OSIntEnter
                0x0080271c                OSIntExit
                0x0080281c                OSSchedLock
                0x008028a8                OSSchedUnlock
                0x0080298c                OSStart
                0x008029fc                OSStatInit
                0x00802aa8                OSTimeTick
                0x00802ce8                OSVersion
                0x00802d08                OS_Dummy
                0x00802d24                OS_EventTaskRdy
                0x00802eb8                OS_EventTaskWait
                0x00802fc8                OS_EventTaskWaitMulti
                0x0080311c                OS_EventTaskRemove
                0x008031d4                OS_EventTaskRemoveMulti
                0x008032d8                OS_EventWaitListInit
                0x008036a4                OS_MemClr
                0x008036f8                OS_MemCopy
                0x00803764                OS_Sched
                0x008038a8                OS_StrCopy
                0x00803928                OS_StrLen
                0x00803980                OS_TaskIdle
                0x008039dc                OS_TaskStat
                0x00803aa4                OS_TaskStatStkChk
                0x00803b6c                OS_TCBInit
 .text          0x00803e4c      0x18c ../MIDIGenerator_bsp/\libucosii_bsp.a(os_dbg.o)
                0x00803e4c                OSDebugInit
 .text          0x00803fd8     0x193c ../MIDIGenerator_bsp/\libucosii_bsp.a(os_flag.o)
                0x00803fd8                OSFlagAccept
                0x0080430c                OSFlagCreate
                0x00804448                OSFlagDel
                0x008046f0                OSFlagNameGet
                0x00804834                OSFlagNameSet
                0x00804988                OSFlagPend
                0x00804fcc                OSFlagPendGetFlagsRdy
                0x00805034                OSFlagPost
                0x008053dc                OSFlagQuery
                0x00805674                OS_FlagInit
                0x00805868                OS_FlagUnlink
 .text          0x00805914      0x80c ../MIDIGenerator_bsp/\libucosii_bsp.a(os_mem.o)
                0x00805914                OSMemCreate
                0x00805b30                OSMemGet
                0x00805c34                OSMemNameGet
                0x00805d40                OSMemNameSet
                0x00805e60                OSMemPut
                0x00805f50                OSMemQuery
                0x0080604c                OS_MemInit
 .text          0x00806120     0x1334 ../MIDIGenerator_bsp/\libucosii_bsp.a(os_q.o)
                0x00806120                OSQAccept
                0x00806274                OSQCreate
                0x00806488                OSQDel
                0x00806788                OSQFlush
                0x00806850                OSQPend
                0x00806b70                OSQPendAbort
                0x00806cec                OSQPost
                0x00806e6c                OSQPostFront
                0x00806ff4                OSQPostOpt
                0x00807228                OSQQuery
                0x008073a8                OS_QInit
 .text          0x00807454      0xbc8 ../MIDIGenerator_bsp/\libucosii_bsp.a(os_sem.o)
                0x00807454                OSSemAccept
                0x00807514                OSSemCreate
                0x00807628                OSSemDel
                0x008078c8                OSSemPend
                0x00807b44                OSSemPendAbort
                0x00807cc0                OSSemPost
                0x00807de8                OSSemQuery
                0x00807f18                OSSemSet
 .text          0x0080801c     0x1a40 ../MIDIGenerator_bsp/\libucosii_bsp.a(os_task.o)
                0x0080801c                OSTaskChangePrio
                0x00808590                OSTaskCreate
                0x00808764                OSTaskCreateExt
                0x00808964                OSTaskDel
                0x00808d70                OSTaskDelReq
                0x00808ee0                OSTaskNameGet
                0x00809098                OSTaskNameSet
                0x0080925c                OSTaskResume
                0x00809474                OSTaskStkChk
                0x00809670                OSTaskSuspend
                0x0080989c                OSTaskQuery
                0x008099e0                OS_TaskStkClr
 .text          0x00809a5c      0x5b4 ../MIDIGenerator_bsp/\libucosii_bsp.a(os_time.o)
                0x00809a5c                OSTimeDly
                0x00809ba8                OSTimeDlyHMSM
                0x00809d38                OSTimeDlyResume
                0x00809f48                OSTimeGet
                0x00809fac                OSTimeSet
 .text          0x0080a010       0xe0 ../MIDIGenerator_bsp/\libucosii_bsp.a(alt_sys_init.o)
                0x0080a010                alt_irq_init
                0x0080a044                alt_sys_init
 .text          0x0080a0f0      0x148 ../MIDIGenerator_bsp/\libucosii_bsp.a(altera_avalon_jtag_uart_fd.o)
                0x0080a0f0                altera_avalon_jtag_uart_read_fd
                0x0080a148                altera_avalon_jtag_uart_write_fd
                0x0080a1a0                altera_avalon_jtag_uart_close_fd
                0x0080a1e8                altera_avalon_jtag_uart_ioctl_fd
 .text          0x0080a238      0x584 ../MIDIGenerator_bsp/\libucosii_bsp.a(altera_avalon_jtag_uart_init.o)
                0x0080a238                altera_avalon_jtag_uart_init
                0x0080a748                altera_avalon_jtag_uart_close
 .text          0x0080a7bc       0xf4 ../MIDIGenerator_bsp/\libucosii_bsp.a(altera_avalon_jtag_uart_ioctl.o)
                0x0080a7bc                altera_avalon_jtag_uart_ioctl
 .text          0x0080a8b0      0x2c0 ../MIDIGenerator_bsp/\libucosii_bsp.a(altera_avalon_jtag_uart_read.o)
                0x0080a8b0                altera_avalon_jtag_uart_read
 .text          0x0080ab70      0x2dc ../MIDIGenerator_bsp/\libucosii_bsp.a(altera_avalon_jtag_uart_write.o)
                0x0080ab70                altera_avalon_jtag_uart_write
 .text          0x0080ae4c      0x100 ../MIDIGenerator_bsp/\libucosii_bsp.a(altera_avalon_timer_sc.o)
                0x0080aebc                alt_avalon_timer_sc_init
 .text          0x0080af4c      0x530 ../MIDIGenerator_bsp/\libucosii_bsp.a(altera_up_avalon_character_lcd.o)
                0x0080af4c                get_DDRAM_addr
                0x0080afc8                alt_up_character_lcd_send_cmd
                0x0080affc                alt_up_character_lcd_init
                0x0080b030                alt_up_character_lcd_open_dev
                0x0080b070                alt_up_character_lcd_write
                0x0080b0e8                alt_up_character_lcd_string
                0x0080b160                alt_up_character_lcd_write_fd
                0x0080b1ac                alt_up_character_lcd_set_cursor_pos
                0x0080b224                alt_up_character_lcd_shift_cursor
                0x0080b2d4                alt_up_character_lcd_shift_display
                0x0080b384                alt_up_character_lcd_erase_pos
                0x0080b414                alt_up_character_lcd_cursor_off
                0x0080b448                alt_up_character_lcd_cursor_blink_on
 .text          0x0080b47c      0x154 ../MIDIGenerator_bsp/\libucosii_bsp.a(alt_alarm_start.o)
                0x0080b47c                alt_alarm_start
 .text          0x0080b5d0      0x160 ../MIDIGenerator_bsp/\libucosii_bsp.a(alt_close.o)
                0x0080b5d0                close
 .text          0x0080b730       0x1c ../MIDIGenerator_bsp/\libucosii_bsp.a(alt_dcache_flush_all.o)
                0x0080b730                alt_dcache_flush_all
 .text          0x0080b74c       0x2c ../MIDIGenerator_bsp/\libucosii_bsp.a(alt_dev.o)
 .text          0x0080b778      0x114 ../MIDIGenerator_bsp/\libucosii_bsp.a(alt_dev_llist_insert.o)
                0x0080b778                alt_dev_llist_insert
 .text          0x0080b88c       0x64 ../MIDIGenerator_bsp/\libucosii_bsp.a(alt_do_ctors.o)
                0x0080b88c                _do_ctors
 .text          0x0080b8f0       0x64 ../MIDIGenerator_bsp/\libucosii_bsp.a(alt_do_dtors.o)
                0x0080b8f0                _do_dtors
 .text          0x0080b954        0x0 ../MIDIGenerator_bsp/\libucosii_bsp.a(alt_errno.o)
 .text          0x0080b954        0x0 ../MIDIGenerator_bsp/\libucosii_bsp.a(alt_exception_entry.o)
 .text          0x0080b954       0x94 ../MIDIGenerator_bsp/\libucosii_bsp.a(alt_find_dev.o)
                0x0080b954                alt_find_dev
 .text          0x0080b9e8       0x1c ../MIDIGenerator_bsp/\libucosii_bsp.a(alt_icache_flush_all.o)
                0x0080b9e8                alt_icache_flush_all
 .text          0x0080ba04      0x150 ../MIDIGenerator_bsp/\libucosii_bsp.a(alt_io_redirect.o)
                0x0080badc                alt_io_redirect
 .text          0x0080bb54      0x2e4 ../MIDIGenerator_bsp/\libucosii_bsp.a(alt_open.o)
                0x0080bc4c                open
 .text          0x0080be38       0x78 ../MIDIGenerator_bsp/\libucosii_bsp.a(alt_release_fd.o)
                0x0080be38                alt_release_fd
 .text          0x0080beb0      0x1a8 ../MIDIGenerator_bsp/\libucosii_bsp.a(alt_tick.o)
                0x0080beb0                alt_alarm_stop
                0x0080bf48                alt_tick
 .text          0x0080c058       0x20 ../MIDIGenerator_bsp/\libucosii_bsp.a(altera_nios2_qsys_irq.o)
                0x0080c058                altera_nios2_qsys_irq_init
 .text          0x0080c078       0xd0 ../MIDIGenerator_bsp/\libucosii_bsp.a(os_cpu_a.o)
                0x0080c078                OSCtxSw
                0x0080c078                OSIntCtxSw
                0x0080c104                OSStartHighRdy
                0x0080c124                OSStartTsk
 .text          0x0080c148      0x418 ../MIDIGenerator_bsp/\libucosii_bsp.a(os_cpu_c.o)
                0x0080c148                OSTaskStkInit
                0x0080c458                OSTaskCreateHook
                0x0080c478                OSTaskDelHook
                0x0080c498                OSTaskSwHook
                0x0080c4b4                OSTaskStatHook
                0x0080c4d0                OSTimeTickHook
                0x0080c4ec                OSInitHookBegin
                0x0080c508                OSInitHookEnd
                0x0080c524                OSTaskIdleHook
                0x0080c540                OSTCBInitHook
 .text          0x0080c560      0x120 ../MIDIGenerator_bsp/\libucosii_bsp.a(alt_find_file.o)
                0x0080c560                alt_find_file
 .text          0x0080c680      0x104 ../MIDIGenerator_bsp/\libucosii_bsp.a(alt_get_fd.o)
                0x0080c680                alt_get_fd
 .text          0x0080c784       0x14 c:/altera/12.1sp1/nios2eds/bin/gnu/h-i686-mingw32/bin/../lib/gcc/nios2-elf/4.1.2/../../../../nios2-elf/lib/mno-hw-mul\libc.a(lib_a-atexit.o)
                0x0080c784                atexit
 .text          0x0080c798       0x38 c:/altera/12.1sp1/nios2eds/bin/gnu/h-i686-mingw32/bin/../lib/gcc/nios2-elf/4.1.2/../../../../nios2-elf/lib/mno-hw-mul\libc.a(lib_a-exit.o)
                0x0080c798                exit
 .text          0x0080c7d0        0x0 c:/altera/12.1sp1/nios2eds/bin/gnu/h-i686-mingw32/bin/../lib/gcc/nios2-elf/4.1.2/../../../../nios2-elf/lib/mno-hw-mul\libc.a(lib_a-impure.o)
 .text          0x0080c7d0        0x0 c:/altera/12.1sp1/nios2eds/bin/gnu/h-i686-mingw32/bin/../lib/gcc/nios2-elf/4.1.2/../../../../nios2-elf/lib/mno-hw-mul\libc.a(lib_a-int_errno.o)
 .text          0x0080c7d0       0x74 c:/altera/12.1sp1/nios2eds/bin/gnu/h-i686-mingw32/bin/../lib/gcc/nios2-elf/4.1.2/../../../../nios2-elf/lib/mno-hw-mul\libc.a(lib_a-memcmp.o)
                0x0080c7d0                memcmp
 .text          0x0080c844       0xa0 c:/altera/12.1sp1/nios2eds/bin/gnu/h-i686-mingw32/bin/../lib/gcc/nios2-elf/4.1.2/../../../../nios2-elf/lib/mno-hw-mul\libc.a(lib_a-memcpy.o)
                0x0080c844                memcpy
 .text          0x0080c8e4       0x98 c:/altera/12.1sp1/nios2eds/bin/gnu/h-i686-mingw32/bin/../lib/gcc/nios2-elf/4.1.2/../../../../nios2-elf/lib/mno-hw-mul\libc.a(lib_a-memset.o)
                0x0080c8e4                memset
 .text          0x0080c97c      0x1ec c:/altera/12.1sp1/nios2eds/bin/gnu/h-i686-mingw32/bin/../lib/gcc/nios2-elf/4.1.2/../../../../nios2-elf/lib/mno-hw-mul\libc.a(lib_a-putc.o)
                0x0080c97c                putc
                0x0080ca80                _putc_r
 .text          0x0080cb68       0x74 c:/altera/12.1sp1/nios2eds/bin/gnu/h-i686-mingw32/bin/../lib/gcc/nios2-elf/4.1.2/../../../../nios2-elf/lib/mno-hw-mul\libc.a(lib_a-strlen.o)
                0x0080cb68                strlen
 .text          0x0080cbdc      0x14c c:/altera/12.1sp1/nios2eds/bin/gnu/h-i686-mingw32/bin/../lib/gcc/nios2-elf/4.1.2/../../../../nios2-elf/lib/mno-hw-mul\libc.a(lib_a-wbuf.o)
                0x0080cbdc                __swbuf_r
                0x0080cd0c                __swbuf
 .text          0x0080cd28      0x13c c:/altera/12.1sp1/nios2eds/bin/gnu/h-i686-mingw32/bin/../lib/gcc/nios2-elf/4.1.2/../../../../nios2-elf/lib/mno-hw-mul\libc.a(lib_a-wsetup.o)
                0x0080cd28                __swsetup_r
 .text          0x0080ce64      0x134 c:/altera/12.1sp1/nios2eds/bin/gnu/h-i686-mingw32/bin/../lib/gcc/nios2-elf/4.1.2/../../../../nios2-elf/lib/mno-hw-mul\libc.a(lib_a-__atexit.o)
                0x0080ce64                __register_exitproc
 .text          0x0080cf98      0x1b4 c:/altera/12.1sp1/nios2eds/bin/gnu/h-i686-mingw32/bin/../lib/gcc/nios2-elf/4.1.2/../../../../nios2-elf/lib/mno-hw-mul\libc.a(lib_a-__call_atexit.o)
                0x0080cf9c                __call_exitprocs
 .text          0x0080d14c      0x230 c:/altera/12.1sp1/nios2eds/bin/gnu/h-i686-mingw32/bin/../lib/gcc/nios2-elf/4.1.2/../../../../nios2-elf/lib/mno-hw-mul\libc.a(lib_a-fflush.o)
                0x0080d14c                _fflush_r
                0x0080d348                fflush
 .text          0x0080d37c      0x2f4 c:/altera/12.1sp1/nios2eds/bin/gnu/h-i686-mingw32/bin/../lib/gcc/nios2-elf/4.1.2/../../../../nios2-elf/lib/mno-hw-mul\libc.a(lib_a-findfp.o)
                0x0080d3d4                __sfp_lock_acquire
                0x0080d3d8                __sfp_lock_release
                0x0080d3dc                __sinit_lock_acquire
                0x0080d3e0                __sinit_lock_release
                0x0080d3e4                __sinit
                0x0080d498                __fp_unlock_all
                0x0080d4b0                __fp_lock_all
                0x0080d4c8                _cleanup_r
                0x0080d4d4                _cleanup
                0x0080d4e4                __sfmoreglue
                0x0080d580                __sfp
 .text          0x0080d670      0x440 c:/altera/12.1sp1/nios2eds/bin/gnu/h-i686-mingw32/bin/../lib/gcc/nios2-elf/4.1.2/../../../../nios2-elf/lib/mno-hw-mul\libc.a(lib_a-freer.o)
                0x0080d670                _malloc_trim_r
                0x0080d79c                _free_r
 .text          0x0080dab0      0x180 c:/altera/12.1sp1/nios2eds/bin/gnu/h-i686-mingw32/bin/../lib/gcc/nios2-elf/4.1.2/../../../../nios2-elf/lib/mno-hw-mul\libc.a(lib_a-fwalk.o)
                0x0080dab0                _fwalk_reent
                0x0080db78                _fwalk
 .text          0x0080dc30      0x194 c:/altera/12.1sp1/nios2eds/bin/gnu/h-i686-mingw32/bin/../lib/gcc/nios2-elf/4.1.2/../../../../nios2-elf/lib/mno-hw-mul\libc.a(lib_a-makebuf.o)
                0x0080dc30                __smakebuf_r
 .text          0x0080ddc4      0x740 c:/altera/12.1sp1/nios2eds/bin/gnu/h-i686-mingw32/bin/../lib/gcc/nios2-elf/4.1.2/../../../../nios2-elf/lib/mno-hw-mul\libc.a(lib_a-mallocr.o)
                0x0080ddc4                _malloc_r
 .text          0x0080e504       0x70 c:/altera/12.1sp1/nios2eds/bin/gnu/h-i686-mingw32/bin/../lib/gcc/nios2-elf/4.1.2/../../../../nios2-elf/lib/mno-hw-mul\libc.a(lib_a-sbrkr.o)
                0x0080e504                _sbrk_r
 .text          0x0080e574      0x14c c:/altera/12.1sp1/nios2eds/bin/gnu/h-i686-mingw32/bin/../lib/gcc/nios2-elf/4.1.2/../../../../nios2-elf/lib/mno-hw-mul\libc.a(lib_a-stdio.o)
                0x0080e574                __sclose
                0x0080e57c                __sseek
                0x0080e5e4                __swrite
                0x0080e660                __sread
 .text          0x0080e6c0       0x78 c:/altera/12.1sp1/nios2eds/bin/gnu/h-i686-mingw32/bin/../lib/gcc/nios2-elf/4.1.2/../../../../nios2-elf/lib/mno-hw-mul\libc.a(lib_a-writer.o)
                0x0080e6c0                _write_r
 .text          0x0080e738       0x70 c:/altera/12.1sp1/nios2eds/bin/gnu/h-i686-mingw32/bin/../lib/gcc/nios2-elf/4.1.2/../../../../nios2-elf/lib/mno-hw-mul\libc.a(lib_a-closer.o)
                0x0080e738                _close_r
 .text          0x0080e7a8      0x124 c:/altera/12.1sp1/nios2eds/bin/gnu/h-i686-mingw32/bin/../lib/gcc/nios2-elf/4.1.2/../../../../nios2-elf/lib/mno-hw-mul\libc.a(lib_a-fclose.o)
                0x0080e7a8                _fclose_r
                0x0080e8b8                fclose
 .text          0x0080e8cc       0x74 c:/altera/12.1sp1/nios2eds/bin/gnu/h-i686-mingw32/bin/../lib/gcc/nios2-elf/4.1.2/../../../../nios2-elf/lib/mno-hw-mul\libc.a(lib_a-fstatr.o)
                0x0080e8cc                _fstat_r
 .text          0x0080e940       0x70 c:/altera/12.1sp1/nios2eds/bin/gnu/h-i686-mingw32/bin/../lib/gcc/nios2-elf/4.1.2/../../../../nios2-elf/lib/mno-hw-mul\libc.a(lib_a-isattyr.o)
                0x0080e940                _isatty_r
 .text          0x0080e9b0       0x78 c:/altera/12.1sp1/nios2eds/bin/gnu/h-i686-mingw32/bin/../lib/gcc/nios2-elf/4.1.2/../../../../nios2-elf/lib/mno-hw-mul\libc.a(lib_a-lseekr.o)
                0x0080e9b0                _lseek_r
 .text          0x0080ea28       0x78 c:/altera/12.1sp1/nios2eds/bin/gnu/h-i686-mingw32/bin/../lib/gcc/nios2-elf/4.1.2/../../../../nios2-elf/lib/mno-hw-mul\libc.a(lib_a-readr.o)
                0x0080ea28                _read_r
 .text          0x0080eaa0      0x14c c:/altera/12.1sp1/nios2eds/bin/gnu/h-i686-mingw32/bin/../lib/gcc/nios2-elf/4.1.2/mno-hw-mul\libgcc.a(lib2-divmod.o)
                0x0080eb1c                __divsi3
                0x0080eb7c                __modsi3
                0x0080ebdc                __udivsi3
                0x0080ebe4                __umodsi3
 .text          0x0080ebec       0x38 c:/altera/12.1sp1/nios2eds/bin/gnu/h-i686-mingw32/bin/../lib/gcc/nios2-elf/4.1.2/mno-hw-mul\libgcc.a(lib2-mul.o)
                0x0080ebec                __mulsi3
 .text          0x0080ec24       0x6c ../MIDIGenerator_bsp/\libucosii_bsp.a(alt_exit.o)
                0x0080ec64                _exit
 .text          0x0080ec90      0x138 ../MIDIGenerator_bsp/\libucosii_bsp.a(alt_fstat.o)
                0x0080ec90                fstat
 .text          0x0080edc8      0x124 ../MIDIGenerator_bsp/\libucosii_bsp.a(alt_isatty.o)
                0x0080edc8                isatty
 .text          0x0080eeec      0x154 ../MIDIGenerator_bsp/\libucosii_bsp.a(alt_lseek.o)
                0x0080eeec                lseek
 .text          0x0080f040      0x184 ../MIDIGenerator_bsp/\libucosii_bsp.a(alt_read.o)
                0x0080f040                read
 .text          0x0080f1c4       0xbc ../MIDIGenerator_bsp/\libucosii_bsp.a(alt_sbrk.o)
                0x0080f1c4                sbrk
 .text          0x0080f280      0x184 ../MIDIGenerator_bsp/\libucosii_bsp.a(alt_write.o)
                0x0080f280                write
 *(.gnu.warning.*)
 *(.fini)
                0x0080f404                PROVIDE (__etext, ABSOLUTE (.))
                0x0080f404                PROVIDE (_etext, ABSOLUTE (.))
                0x0080f404                PROVIDE (etext, ABSOLUTE (.))
 *(.eh_frame_hdr)
                0x0080f404                . = ALIGN (0x4)
                0x0080f404                PROVIDE (__preinit_array_start, ABSOLUTE (.))
 *(.preinit_array)
                0x0080f404                PROVIDE (__preinit_array_end, ABSOLUTE (.))
                0x0080f404                PROVIDE (__init_array_start, ABSOLUTE (.))
 *(.init_array)
                0x0080f404                PROVIDE (__init_array_end, ABSOLUTE (.))
                0x0080f404                PROVIDE (__fini_array_start, ABSOLUTE (.))
 *(.fini_array)
                0x0080f404                PROVIDE (__fini_array_end, ABSOLUTE (.))
 *(.eh_frame)
 *(.gcc_except_table)
 *(.dynamic)
                0x0080f404                PROVIDE (__CTOR_LIST__, ABSOLUTE (.))
 *(.ctors)
 *(SORT(.ctors.*))
 .ctors.65535   0x0080f404        0x4 c:/altera/12.1sp1/nios2eds/bin/gnu/h-i686-mingw32/bin/../lib/gcc/nios2-elf/4.1.2/../../../../nios2-elf/lib/mno-hw-mul\libc.a(lib_a-__call_atexit.o)
                0x0080f408                PROVIDE (__CTOR_END__, ABSOLUTE (.))
                0x0080f408                PROVIDE (__DTOR_LIST__, ABSOLUTE (.))
 *(.dtors)
 *(SORT(.dtors.*))
                0x0080f408                PROVIDE (__DTOR_END__, ABSOLUTE (.))
 *(.jcr)
                0x0080f408                . = ALIGN (0x4)

.rodata         0x0080f408      0x31c
                0x0080f408                PROVIDE (__ram_rodata_start, ABSOLUTE (.))
                0x0080f408                . = ALIGN (0x4)
 *(.rodata .rodata.* .gnu.linkonce.r.*)
 .rodata        0x0080f408       0x94 obj/default/midi_generator.o
 .rodata        0x0080f49c       0x14 c:/altera/12.1sp1/nios2eds/bin/gnu/h-i686-mingw32/bin/../lib/gcc/nios2-elf/4.1.2/mno-hw-mul\libgcc.a(_thenan_df.o)
                0x0080f49c                __thenan_df
 .rodata        0x0080f4b0      0x100 c:/altera/12.1sp1/nios2eds/bin/gnu/h-i686-mingw32/bin/../lib/gcc/nios2-elf/4.1.2/mno-hw-mul\libgcc.a(_clz.o)
                0x0080f4b0                __clz_tab
 .rodata        0x0080f5b0       0x14 ../MIDIGenerator_bsp/\libucosii_bsp.a(alt_main.o)
 .rodata        0x0080f5c4      0x120 ../MIDIGenerator_bsp/\libucosii_bsp.a(os_core.o)
                0x0080f5c4                OSUnMapTbl
 .rodata        0x0080f6e4       0x2c ../MIDIGenerator_bsp/\libucosii_bsp.a(alt_sys_init.o)
 .rodata        0x0080f710        0xc ../MIDIGenerator_bsp/\libucosii_bsp.a(alt_dev.o)
 .rodata        0x0080f71c        0x4 ../MIDIGenerator_bsp/\libucosii_bsp.a(os_cpu_c.o)
 .rodata.str1.4
                0x0080f720        0x4 c:/altera/12.1sp1/nios2eds/bin/gnu/h-i686-mingw32/bin/../lib/gcc/nios2-elf/4.1.2/../../../../nios2-elf/lib/mno-hw-mul\libc.a(lib_a-impure.o)
 *(.rodata1)
                0x0080f724                . = ALIGN (0x4)
                0x0080f724                PROVIDE (__ram_rodata_end, ABSOLUTE (.))
                0x0080f408                PROVIDE (__flash_rodata_start, LOADADDR (.rodata))

.rwdata         0x0080f724     0x1afc load address 0x00811220
                0x0080f724                PROVIDE (__ram_rwdata_start, ABSOLUTE (.))
                0x0080f724                . = ALIGN (0x4)
 *(.got.plt)
 *(.got)
 *(.data1)
 *(.data .data.* .gnu.linkonce.d.*)
 .data          0x0080f724        0x0 ../MIDIGenerator_bsp//obj/HAL/src/crt0.o
 .data          0x0080f724        0x0 obj/default/midi_generator.o
 .data          0x0080f724        0x0 c:/altera/12.1sp1/nios2eds/bin/gnu/h-i686-mingw32/bin/../lib/gcc/nios2-elf/4.1.2/mno-hw-mul\libgcc.a(_addsub_df.o)
 .data          0x0080f724        0x0 c:/altera/12.1sp1/nios2eds/bin/gnu/h-i686-mingw32/bin/../lib/gcc/nios2-elf/4.1.2/mno-hw-mul\libgcc.a(_si_to_df.o)
 .data          0x0080f724        0x0 c:/altera/12.1sp1/nios2eds/bin/gnu/h-i686-mingw32/bin/../lib/gcc/nios2-elf/4.1.2/mno-hw-mul\libgcc.a(_df_to_si.o)
 .data          0x0080f724        0x0 c:/altera/12.1sp1/nios2eds/bin/gnu/h-i686-mingw32/bin/../lib/gcc/nios2-elf/4.1.2/mno-hw-mul\libgcc.a(_thenan_df.o)
 .data          0x0080f724        0x0 c:/altera/12.1sp1/nios2eds/bin/gnu/h-i686-mingw32/bin/../lib/gcc/nios2-elf/4.1.2/mno-hw-mul\libgcc.a(_clzsi2.o)
 .data          0x0080f724        0x0 c:/altera/12.1sp1/nios2eds/bin/gnu/h-i686-mingw32/bin/../lib/gcc/nios2-elf/4.1.2/mno-hw-mul\libgcc.a(_pack_df.o)
 .data          0x0080f724        0x0 c:/altera/12.1sp1/nios2eds/bin/gnu/h-i686-mingw32/bin/../lib/gcc/nios2-elf/4.1.2/mno-hw-mul\libgcc.a(_unpack_df.o)
 .data          0x0080f724        0x0 c:/altera/12.1sp1/nios2eds/bin/gnu/h-i686-mingw32/bin/../lib/gcc/nios2-elf/4.1.2/mno-hw-mul\libgcc.a(_clz.o)
 .data          0x0080f724        0x0 c:/altera/12.1sp1/nios2eds/bin/gnu/h-i686-mingw32/bin/../lib/gcc/nios2-elf/4.1.2/../../../../nios2-elf/lib/mno-hw-mul\libc.a(lib_a-strcat.o)
 .data          0x0080f724        0x0 c:/altera/12.1sp1/nios2eds/bin/gnu/h-i686-mingw32/bin/../lib/gcc/nios2-elf/4.1.2/../../../../nios2-elf/lib/mno-hw-mul\libc.a(lib_a-strcpy.o)
 .data          0x0080f724        0x0 ../MIDIGenerator_bsp/\libucosii_bsp.a(alt_iic.o)
 .data          0x0080f724        0x0 ../MIDIGenerator_bsp/\libucosii_bsp.a(alt_iic_isr_register.o)
 .data          0x0080f724        0x0 ../MIDIGenerator_bsp/\libucosii_bsp.a(alt_irq_entry.o)
 .data          0x0080f724        0x0 ../MIDIGenerator_bsp/\libucosii_bsp.a(alt_irq_handler.o)
 .data          0x0080f724        0x0 ../MIDIGenerator_bsp/\libucosii_bsp.a(alt_irq_vars.o)
 .data          0x0080f724        0x0 ../MIDIGenerator_bsp/\libucosii_bsp.a(alt_load.o)
 .data          0x0080f724        0x0 ../MIDIGenerator_bsp/\libucosii_bsp.a(alt_main.o)
 .data          0x0080f724        0x0 ../MIDIGenerator_bsp/\libucosii_bsp.a(alt_printf.o)
 .data          0x0080f724        0x0 ../MIDIGenerator_bsp/\libucosii_bsp.a(alt_putchar.o)
 .data          0x0080f724        0x0 ../MIDIGenerator_bsp/\libucosii_bsp.a(alt_env_lock.o)
 .data          0x0080f724        0x0 ../MIDIGenerator_bsp/\libucosii_bsp.a(alt_malloc_lock.o)
 .data          0x0080f724        0x0 ../MIDIGenerator_bsp/\libucosii_bsp.a(os_core.o)
 .data          0x0080f724        0x0 ../MIDIGenerator_bsp/\libucosii_bsp.a(os_dbg.o)
 .data          0x0080f724        0x0 ../MIDIGenerator_bsp/\libucosii_bsp.a(os_flag.o)
 .data          0x0080f724        0x0 ../MIDIGenerator_bsp/\libucosii_bsp.a(os_mem.o)
 .data          0x0080f724        0x0 ../MIDIGenerator_bsp/\libucosii_bsp.a(os_q.o)
 .data          0x0080f724        0x0 ../MIDIGenerator_bsp/\libucosii_bsp.a(os_sem.o)
 .data          0x0080f724        0x0 ../MIDIGenerator_bsp/\libucosii_bsp.a(os_task.o)
 .data          0x0080f724        0x0 ../MIDIGenerator_bsp/\libucosii_bsp.a(os_time.o)
 .data          0x0080f724     0x1098 ../MIDIGenerator_bsp/\libucosii_bsp.a(alt_sys_init.o)
 .data          0x008107bc        0x0 ../MIDIGenerator_bsp/\libucosii_bsp.a(altera_avalon_jtag_uart_fd.o)
 .data          0x008107bc        0x0 ../MIDIGenerator_bsp/\libucosii_bsp.a(altera_avalon_jtag_uart_init.o)
 .data          0x008107bc        0x0 ../MIDIGenerator_bsp/\libucosii_bsp.a(altera_avalon_jtag_uart_ioctl.o)
 .data          0x008107bc        0x0 ../MIDIGenerator_bsp/\libucosii_bsp.a(altera_avalon_jtag_uart_read.o)
 .data          0x008107bc        0x0 ../MIDIGenerator_bsp/\libucosii_bsp.a(altera_avalon_jtag_uart_write.o)
 .data          0x008107bc        0x0 ../MIDIGenerator_bsp/\libucosii_bsp.a(altera_avalon_timer_sc.o)
 .data          0x008107bc        0x0 ../MIDIGenerator_bsp/\libucosii_bsp.a(altera_up_avalon_character_lcd.o)
 .data          0x008107bc        0x0 ../MIDIGenerator_bsp/\libucosii_bsp.a(alt_alarm_start.o)
 .data          0x008107bc        0x0 ../MIDIGenerator_bsp/\libucosii_bsp.a(alt_close.o)
 .data          0x008107bc        0x0 ../MIDIGenerator_bsp/\libucosii_bsp.a(alt_dcache_flush_all.o)
 .data          0x008107bc      0x1a8 ../MIDIGenerator_bsp/\libucosii_bsp.a(alt_dev.o)
                0x008107bc                alt_dev_null
                0x008107e4                alt_fd_list
 .data          0x00810964        0x0 ../MIDIGenerator_bsp/\libucosii_bsp.a(alt_dev_llist_insert.o)
 .data          0x00810964        0x0 ../MIDIGenerator_bsp/\libucosii_bsp.a(alt_do_ctors.o)
 .data          0x00810964        0x0 ../MIDIGenerator_bsp/\libucosii_bsp.a(alt_do_dtors.o)
 .data          0x00810964        0x0 ../MIDIGenerator_bsp/\libucosii_bsp.a(alt_errno.o)
 .data          0x00810964        0x0 ../MIDIGenerator_bsp/\libucosii_bsp.a(alt_exception_entry.o)
 .data          0x00810964        0x0 ../MIDIGenerator_bsp/\libucosii_bsp.a(alt_find_dev.o)
 .data          0x00810964        0x0 ../MIDIGenerator_bsp/\libucosii_bsp.a(alt_icache_flush_all.o)
 .data          0x00810964        0x0 ../MIDIGenerator_bsp/\libucosii_bsp.a(alt_io_redirect.o)
 .data          0x00810964        0x0 ../MIDIGenerator_bsp/\libucosii_bsp.a(alt_open.o)
 .data          0x00810964        0x0 ../MIDIGenerator_bsp/\libucosii_bsp.a(alt_release_fd.o)
 .data          0x00810964        0x0 ../MIDIGenerator_bsp/\libucosii_bsp.a(alt_tick.o)
 .data          0x00810964        0x0 ../MIDIGenerator_bsp/\libucosii_bsp.a(altera_nios2_qsys_irq.o)
 .data          0x00810964        0x0 ../MIDIGenerator_bsp/\libucosii_bsp.a(os_cpu_a.o)
 .data          0x00810964        0x0 ../MIDIGenerator_bsp/\libucosii_bsp.a(os_cpu_c.o)
 .data          0x00810964        0x0 ../MIDIGenerator_bsp/\libucosii_bsp.a(alt_find_file.o)
 .data          0x00810964        0x0 ../MIDIGenerator_bsp/\libucosii_bsp.a(alt_get_fd.o)
 .data          0x00810964        0x0 c:/altera/12.1sp1/nios2eds/bin/gnu/h-i686-mingw32/bin/../lib/gcc/nios2-elf/4.1.2/../../../../nios2-elf/lib/mno-hw-mul\libc.a(lib_a-atexit.o)
 .data          0x00810964        0x0 c:/altera/12.1sp1/nios2eds/bin/gnu/h-i686-mingw32/bin/../lib/gcc/nios2-elf/4.1.2/../../../../nios2-elf/lib/mno-hw-mul\libc.a(lib_a-exit.o)
 .data          0x00810964      0x400 c:/altera/12.1sp1/nios2eds/bin/gnu/h-i686-mingw32/bin/../lib/gcc/nios2-elf/4.1.2/../../../../nios2-elf/lib/mno-hw-mul\libc.a(lib_a-impure.o)
 .data          0x00810d64        0x0 c:/altera/12.1sp1/nios2eds/bin/gnu/h-i686-mingw32/bin/../lib/gcc/nios2-elf/4.1.2/../../../../nios2-elf/lib/mno-hw-mul\libc.a(lib_a-int_errno.o)
 .data          0x00810d64        0x0 c:/altera/12.1sp1/nios2eds/bin/gnu/h-i686-mingw32/bin/../lib/gcc/nios2-elf/4.1.2/../../../../nios2-elf/lib/mno-hw-mul\libc.a(lib_a-memcmp.o)
 .data          0x00810d64        0x0 c:/altera/12.1sp1/nios2eds/bin/gnu/h-i686-mingw32/bin/../lib/gcc/nios2-elf/4.1.2/../../../../nios2-elf/lib/mno-hw-mul\libc.a(lib_a-memcpy.o)
 .data          0x00810d64        0x0 c:/altera/12.1sp1/nios2eds/bin/gnu/h-i686-mingw32/bin/../lib/gcc/nios2-elf/4.1.2/../../../../nios2-elf/lib/mno-hw-mul\libc.a(lib_a-memset.o)
 .data          0x00810d64        0x0 c:/altera/12.1sp1/nios2eds/bin/gnu/h-i686-mingw32/bin/../lib/gcc/nios2-elf/4.1.2/../../../../nios2-elf/lib/mno-hw-mul\libc.a(lib_a-putc.o)
 .data          0x00810d64        0x0 c:/altera/12.1sp1/nios2eds/bin/gnu/h-i686-mingw32/bin/../lib/gcc/nios2-elf/4.1.2/../../../../nios2-elf/lib/mno-hw-mul\libc.a(lib_a-strlen.o)
 .data          0x00810d64        0x0 c:/altera/12.1sp1/nios2eds/bin/gnu/h-i686-mingw32/bin/../lib/gcc/nios2-elf/4.1.2/../../../../nios2-elf/lib/mno-hw-mul\libc.a(lib_a-wbuf.o)
 .data          0x00810d64        0x0 c:/altera/12.1sp1/nios2eds/bin/gnu/h-i686-mingw32/bin/../lib/gcc/nios2-elf/4.1.2/../../../../nios2-elf/lib/mno-hw-mul\libc.a(lib_a-wsetup.o)
 .data          0x00810d64        0x0 c:/altera/12.1sp1/nios2eds/bin/gnu/h-i686-mingw32/bin/../lib/gcc/nios2-elf/4.1.2/../../../../nios2-elf/lib/mno-hw-mul\libc.a(lib_a-__atexit.o)
 .data          0x00810d64        0x0 c:/altera/12.1sp1/nios2eds/bin/gnu/h-i686-mingw32/bin/../lib/gcc/nios2-elf/4.1.2/../../../../nios2-elf/lib/mno-hw-mul\libc.a(lib_a-__call_atexit.o)
 .data          0x00810d64        0x0 c:/altera/12.1sp1/nios2eds/bin/gnu/h-i686-mingw32/bin/../lib/gcc/nios2-elf/4.1.2/../../../../nios2-elf/lib/mno-hw-mul\libc.a(lib_a-fflush.o)
 .data          0x00810d64        0x0 c:/altera/12.1sp1/nios2eds/bin/gnu/h-i686-mingw32/bin/../lib/gcc/nios2-elf/4.1.2/../../../../nios2-elf/lib/mno-hw-mul\libc.a(lib_a-findfp.o)
 .data          0x00810d64        0x0 c:/altera/12.1sp1/nios2eds/bin/gnu/h-i686-mingw32/bin/../lib/gcc/nios2-elf/4.1.2/../../../../nios2-elf/lib/mno-hw-mul\libc.a(lib_a-freer.o)
 .data          0x00810d64        0x0 c:/altera/12.1sp1/nios2eds/bin/gnu/h-i686-mingw32/bin/../lib/gcc/nios2-elf/4.1.2/../../../../nios2-elf/lib/mno-hw-mul\libc.a(lib_a-fwalk.o)
 .data          0x00810d64        0x0 c:/altera/12.1sp1/nios2eds/bin/gnu/h-i686-mingw32/bin/../lib/gcc/nios2-elf/4.1.2/../../../../nios2-elf/lib/mno-hw-mul\libc.a(lib_a-makebuf.o)
 .data          0x00810d64      0x408 c:/altera/12.1sp1/nios2eds/bin/gnu/h-i686-mingw32/bin/../lib/gcc/nios2-elf/4.1.2/../../../../nios2-elf/lib/mno-hw-mul\libc.a(lib_a-mallocr.o)
                0x00810d64                __malloc_av_
 .data          0x0081116c        0x0 c:/altera/12.1sp1/nios2eds/bin/gnu/h-i686-mingw32/bin/../lib/gcc/nios2-elf/4.1.2/../../../../nios2-elf/lib/mno-hw-mul\libc.a(lib_a-sbrkr.o)
 .data          0x0081116c        0x0 c:/altera/12.1sp1/nios2eds/bin/gnu/h-i686-mingw32/bin/../lib/gcc/nios2-elf/4.1.2/../../../../nios2-elf/lib/mno-hw-mul\libc.a(lib_a-stdio.o)
 .data          0x0081116c        0x0 c:/altera/12.1sp1/nios2eds/bin/gnu/h-i686-mingw32/bin/../lib/gcc/nios2-elf/4.1.2/../../../../nios2-elf/lib/mno-hw-mul\libc.a(lib_a-writer.o)
 .data          0x0081116c        0x0 c:/altera/12.1sp1/nios2eds/bin/gnu/h-i686-mingw32/bin/../lib/gcc/nios2-elf/4.1.2/../../../../nios2-elf/lib/mno-hw-mul\libc.a(lib_a-closer.o)
 .data          0x0081116c        0x0 c:/altera/12.1sp1/nios2eds/bin/gnu/h-i686-mingw32/bin/../lib/gcc/nios2-elf/4.1.2/../../../../nios2-elf/lib/mno-hw-mul\libc.a(lib_a-fclose.o)
 .data          0x0081116c        0x0 c:/altera/12.1sp1/nios2eds/bin/gnu/h-i686-mingw32/bin/../lib/gcc/nios2-elf/4.1.2/../../../../nios2-elf/lib/mno-hw-mul\libc.a(lib_a-fstatr.o)
 .data          0x0081116c        0x0 c:/altera/12.1sp1/nios2eds/bin/gnu/h-i686-mingw32/bin/../lib/gcc/nios2-elf/4.1.2/../../../../nios2-elf/lib/mno-hw-mul\libc.a(lib_a-isattyr.o)
 .data          0x0081116c        0x0 c:/altera/12.1sp1/nios2eds/bin/gnu/h-i686-mingw32/bin/../lib/gcc/nios2-elf/4.1.2/../../../../nios2-elf/lib/mno-hw-mul\libc.a(lib_a-lseekr.o)
 .data          0x0081116c        0x0 c:/altera/12.1sp1/nios2eds/bin/gnu/h-i686-mingw32/bin/../lib/gcc/nios2-elf/4.1.2/../../../../nios2-elf/lib/mno-hw-mul\libc.a(lib_a-readr.o)
 .data          0x0081116c        0x0 c:/altera/12.1sp1/nios2eds/bin/gnu/h-i686-mingw32/bin/../lib/gcc/nios2-elf/4.1.2/mno-hw-mul\libgcc.a(lib2-divmod.o)
 .data          0x0081116c        0x0 c:/altera/12.1sp1/nios2eds/bin/gnu/h-i686-mingw32/bin/../lib/gcc/nios2-elf/4.1.2/mno-hw-mul\libgcc.a(lib2-mul.o)
 .data          0x0081116c        0x0 ../MIDIGenerator_bsp/\libucosii_bsp.a(alt_exit.o)
 .data          0x0081116c        0x0 ../MIDIGenerator_bsp/\libucosii_bsp.a(alt_fstat.o)
 .data          0x0081116c        0x0 ../MIDIGenerator_bsp/\libucosii_bsp.a(alt_isatty.o)
 .data          0x0081116c        0x0 ../MIDIGenerator_bsp/\libucosii_bsp.a(alt_lseek.o)
 .data          0x0081116c        0x0 ../MIDIGenerator_bsp/\libucosii_bsp.a(alt_read.o)
 .data          0x0081116c        0x0 ../MIDIGenerator_bsp/\libucosii_bsp.a(alt_sbrk.o)
 .data          0x0081116c        0x0 ../MIDIGenerator_bsp/\libucosii_bsp.a(alt_write.o)
                0x0081916c                _gp = ABSOLUTE ((. + 0x8000))
                0x0081916c                PROVIDE (gp, _gp)
 *(.rwdata .rwdata.*)
 *(.sdata .sdata.* .gnu.linkonce.s.*)
 .sdata         0x0081116c        0x4 ../MIDIGenerator_bsp/\libucosii_bsp.a(alt_irq_vars.o)
                0x0081116c                alt_priority_mask
 .sdata         0x00811170        0x4 ../MIDIGenerator_bsp/\libucosii_bsp.a(alt_env_lock.o)
 .sdata         0x00811174        0x4 ../MIDIGenerator_bsp/\libucosii_bsp.a(alt_malloc_lock.o)
 .sdata         0x00811178       0x74 ../MIDIGenerator_bsp/\libucosii_bsp.a(os_dbg.o)
                0x00811178                OSDebugEn
                0x0081117c                OSEndiannessTest
                0x00811180                OSEventEn
                0x00811182                OSEventMax
                0x00811184                OSEventNameSize
                0x00811186                OSEventSize
                0x00811188                OSEventTblSize
                0x0081118a                OSEventMultiEn
                0x0081118c                OSFlagEn
                0x0081118e                OSFlagGrpSize
                0x00811190                OSFlagNodeSize
                0x00811192                OSFlagWidth
                0x00811194                OSFlagMax
                0x00811196                OSFlagNameSize
                0x00811198                OSLowestPrio
                0x0081119a                OSMboxEn
                0x0081119c                OSMemEn
                0x0081119e                OSMemMax
                0x008111a0                OSMemNameSize
                0x008111a2                OSMemSize
                0x008111a4                OSMemTblSize
                0x008111a6                OSMutexEn
                0x008111a8                OSPtrSize
                0x008111aa                OSQEn
                0x008111ac                OSQMax
                0x008111ae                OSQSize
                0x008111b0                OSRdyTblSize
                0x008111b2                OSSemEn
                0x008111b4                OSStkWidth
                0x008111b6                OSTaskCreateEn
                0x008111b8                OSTaskCreateExtEn
                0x008111ba                OSTaskDelEn
                0x008111bc                OSTaskIdleStkSize
                0x008111be                OSTaskProfileEn
                0x008111c0                OSTaskMax
                0x008111c2                OSTaskNameSize
                0x008111c4                OSTaskStatEn
                0x008111c6                OSTaskStatStkSize
                0x008111c8                OSTaskStatStkChkEn
                0x008111ca                OSTaskSwHookEn
                0x008111cc                OSTCBPrioTblMax
                0x008111ce                OSTCBSize
                0x008111d0                OSTicksPerSec
                0x008111d2                OSTimeTickHookEn
                0x008111d4                OSVersionNbr
                0x008111d6                OSTmrEn
                0x008111d8                OSTmrCfgMax
                0x008111da                OSTmrCfgNameSize
                0x008111dc                OSTmrCfgWheelSize
                0x008111de                OSTmrCfgTicksPerSec
                0x008111e0                OSTmrSize
                0x008111e2                OSTmrTblSize
                0x008111e4                OSTmrWheelSize
                0x008111e6                OSTmrWheelTblSize
                0x008111e8                OSDataSize
 .sdata         0x008111ec       0x14 ../MIDIGenerator_bsp/\libucosii_bsp.a(alt_dev.o)
                0x008111ec                alt_fs_list
                0x008111f4                alt_dev_list
                0x008111fc                alt_max_fd
 .sdata         0x00811200        0x4 ../MIDIGenerator_bsp/\libucosii_bsp.a(alt_errno.o)
                0x00811200                alt_errno
 .sdata         0x00811204        0x8 ../MIDIGenerator_bsp/\libucosii_bsp.a(alt_tick.o)
                0x00811204                alt_alarm_list
 .sdata         0x0081120c        0x8 c:/altera/12.1sp1/nios2eds/bin/gnu/h-i686-mingw32/bin/../lib/gcc/nios2-elf/4.1.2/../../../../nios2-elf/lib/mno-hw-mul\libc.a(lib_a-impure.o)
                0x0081120c                _impure_ptr
                0x00811210                _global_impure_ptr
 .sdata         0x00811214        0x8 c:/altera/12.1sp1/nios2eds/bin/gnu/h-i686-mingw32/bin/../lib/gcc/nios2-elf/4.1.2/../../../../nios2-elf/lib/mno-hw-mul\libc.a(lib_a-mallocr.o)
                0x00811214                __malloc_trim_threshold
                0x00811218                __malloc_sbrk_base
 .sdata         0x0081121c        0x4 ../MIDIGenerator_bsp/\libucosii_bsp.a(alt_sbrk.o)
 *(.sdata2 .sdata2.* .gnu.linkonce.s2.*)
                0x00811220                . = ALIGN (0x4)
                0x00811220                _edata = ABSOLUTE (.)
                0x00811220                PROVIDE (edata, ABSOLUTE (.))
                0x00811220                PROVIDE (__ram_rwdata_end, ABSOLUTE (.))
                0x00811220                PROVIDE (__flash_rwdata_start, LOADADDR (.rwdata))

.bss            0x00812d1c     0x5578
                0x00812d1c                __bss_start = ABSOLUTE (.)
                0x00812d1c                PROVIDE (__sbss_start, ABSOLUTE (.))
                0x00812d1c                PROVIDE (___sbss_start, ABSOLUTE (.))
 *(.dynsbss)
 *(.sbss .sbss.* .gnu.linkonce.sb.*)
 .sbss          0x00812d1c        0x4 obj/default/midi_generator.o
                0x00812d1c                laserStatusChanged
 .sbss          0x00812d20        0x4 ../MIDIGenerator_bsp/\libucosii_bsp.a(alt_irq_vars.o)
                0x00812d20                alt_irq_active
 .sbss          0x00812d24        0xc ../MIDIGenerator_bsp/\libucosii_bsp.a(alt_main.o)
                0x00812d24                alt_argc
                0x00812d28                alt_argv
                0x00812d2c                alt_envp
 .sbss          0x00812d30        0x8 ../MIDIGenerator_bsp/\libucosii_bsp.a(alt_env_lock.o)
                0x00812d34                alt_envsem
 .sbss          0x00812d38        0x8 ../MIDIGenerator_bsp/\libucosii_bsp.a(alt_malloc_lock.o)
                0x00812d3c                alt_heapsem
 .sbss          0x00812d40       0x50 ../MIDIGenerator_bsp/\libucosii_bsp.a(os_core.o)
                0x00812d40                OSLockNesting
                0x00812d41                OSRunning
                0x00812d44                OSIdleCtr
                0x00812d48                OSPrioHighRdy
                0x00812d49                OSPrioCur
                0x00812d4c                OSTCBList
                0x00812d50                OSTickStepState
                0x00812d54                OSCtxSwCtr
                0x00812d58                OSIdleCtrMax
                0x00812d5c                OSTCBFreeList
                0x00812d60                OSCPUUsage
                0x00812d61                OSTaskCtr
                0x00812d64                OSMemFreeList
                0x00812d68                OSTCBHighRdy
                0x00812d6c                OSQFreeList
                0x00812d70                OSRdyGrp
                0x00812d71                OSRdyTbl
                0x00812d74                OSEventFreeList
                0x00812d78                OSIntNesting
                0x00812d7c                OSTCBCur
                0x00812d80                OSTime
                0x00812d84                OSFlagFreeList
                0x00812d88                OSStatRdy
                0x00812d8c                OSIdleCtrRun
 .sbss          0x00812d90        0x4 ../MIDIGenerator_bsp/\libucosii_bsp.a(alt_dev.o)
                0x00812d90                alt_fd_list_lock
 .sbss          0x00812d94        0x8 ../MIDIGenerator_bsp/\libucosii_bsp.a(alt_tick.o)
                0x00812d94                _alt_tick_rate
                0x00812d98                _alt_nticks
 .sbss          0x00812d9c        0x4 c:/altera/12.1sp1/nios2eds/bin/gnu/h-i686-mingw32/bin/../lib/gcc/nios2-elf/4.1.2/../../../../nios2-elf/lib/mno-hw-mul\libc.a(lib_a-int_errno.o)
                0x00812d9c                errno
 .sbss          0x00812da0        0xc c:/altera/12.1sp1/nios2eds/bin/gnu/h-i686-mingw32/bin/../lib/gcc/nios2-elf/4.1.2/../../../../nios2-elf/lib/mno-hw-mul\libc.a(lib_a-mallocr.o)
                0x00812da0                __malloc_top_pad
                0x00812da4                __malloc_max_sbrked_mem
                0x00812da8                __malloc_max_total_mem
 *(.sbss2 .sbss2.* .gnu.linkonce.sb2.*)
 *(.scommon)
                0x00812dac                PROVIDE (__sbss_end, ABSOLUTE (.))
                0x00812dac                PROVIDE (___sbss_end, ABSOLUTE (.))
 *(.dynbss)
 *(.bss .bss.* .gnu.linkonce.b.*)
 .bss           0x00812dac        0x0 ../MIDIGenerator_bsp//obj/HAL/src/crt0.o
 .bss           0x00812dac        0x9 obj/default/midi_generator.o
 .bss           0x00812db5        0x0 c:/altera/12.1sp1/nios2eds/bin/gnu/h-i686-mingw32/bin/../lib/gcc/nios2-elf/4.1.2/mno-hw-mul\libgcc.a(_addsub_df.o)
 .bss           0x00812db5        0x0 c:/altera/12.1sp1/nios2eds/bin/gnu/h-i686-mingw32/bin/../lib/gcc/nios2-elf/4.1.2/mno-hw-mul\libgcc.a(_si_to_df.o)
 .bss           0x00812db5        0x0 c:/altera/12.1sp1/nios2eds/bin/gnu/h-i686-mingw32/bin/../lib/gcc/nios2-elf/4.1.2/mno-hw-mul\libgcc.a(_df_to_si.o)
 .bss           0x00812db5        0x0 c:/altera/12.1sp1/nios2eds/bin/gnu/h-i686-mingw32/bin/../lib/gcc/nios2-elf/4.1.2/mno-hw-mul\libgcc.a(_thenan_df.o)
 .bss           0x00812db5        0x0 c:/altera/12.1sp1/nios2eds/bin/gnu/h-i686-mingw32/bin/../lib/gcc/nios2-elf/4.1.2/mno-hw-mul\libgcc.a(_clzsi2.o)
 .bss           0x00812db5        0x0 c:/altera/12.1sp1/nios2eds/bin/gnu/h-i686-mingw32/bin/../lib/gcc/nios2-elf/4.1.2/mno-hw-mul\libgcc.a(_pack_df.o)
 .bss           0x00812db5        0x0 c:/altera/12.1sp1/nios2eds/bin/gnu/h-i686-mingw32/bin/../lib/gcc/nios2-elf/4.1.2/mno-hw-mul\libgcc.a(_unpack_df.o)
 .bss           0x00812db5        0x0 c:/altera/12.1sp1/nios2eds/bin/gnu/h-i686-mingw32/bin/../lib/gcc/nios2-elf/4.1.2/mno-hw-mul\libgcc.a(_clz.o)
 .bss           0x00812db5        0x0 c:/altera/12.1sp1/nios2eds/bin/gnu/h-i686-mingw32/bin/../lib/gcc/nios2-elf/4.1.2/../../../../nios2-elf/lib/mno-hw-mul\libc.a(lib_a-strcat.o)
 .bss           0x00812db5        0x0 c:/altera/12.1sp1/nios2eds/bin/gnu/h-i686-mingw32/bin/../lib/gcc/nios2-elf/4.1.2/../../../../nios2-elf/lib/mno-hw-mul\libc.a(lib_a-strcpy.o)
 .bss           0x00812db5        0x0 ../MIDIGenerator_bsp/\libucosii_bsp.a(alt_iic.o)
 .bss           0x00812db5        0x0 ../MIDIGenerator_bsp/\libucosii_bsp.a(alt_iic_isr_register.o)
 .bss           0x00812db5        0x0 ../MIDIGenerator_bsp/\libucosii_bsp.a(alt_irq_entry.o)
 .bss           0x00812db5        0x0 ../MIDIGenerator_bsp/\libucosii_bsp.a(alt_irq_handler.o)
 .bss           0x00812db5        0x0 ../MIDIGenerator_bsp/\libucosii_bsp.a(alt_irq_vars.o)
 .bss           0x00812db5        0x0 ../MIDIGenerator_bsp/\libucosii_bsp.a(alt_load.o)
 .bss           0x00812db5        0x0 ../MIDIGenerator_bsp/\libucosii_bsp.a(alt_main.o)
 .bss           0x00812db5        0x0 ../MIDIGenerator_bsp/\libucosii_bsp.a(alt_printf.o)
 .bss           0x00812db5        0x0 ../MIDIGenerator_bsp/\libucosii_bsp.a(alt_putchar.o)
 .bss           0x00812db5        0x0 ../MIDIGenerator_bsp/\libucosii_bsp.a(alt_env_lock.o)
 .bss           0x00812db5        0x0 ../MIDIGenerator_bsp/\libucosii_bsp.a(alt_malloc_lock.o)
 .bss           0x00812db5        0x0 ../MIDIGenerator_bsp/\libucosii_bsp.a(os_core.o)
 .bss           0x00812db5        0x0 ../MIDIGenerator_bsp/\libucosii_bsp.a(os_dbg.o)
 .bss           0x00812db5        0x0 ../MIDIGenerator_bsp/\libucosii_bsp.a(os_flag.o)
 .bss           0x00812db5        0x0 ../MIDIGenerator_bsp/\libucosii_bsp.a(os_mem.o)
 .bss           0x00812db5        0x0 ../MIDIGenerator_bsp/\libucosii_bsp.a(os_q.o)
 .bss           0x00812db5        0x0 ../MIDIGenerator_bsp/\libucosii_bsp.a(os_sem.o)
 .bss           0x00812db5        0x0 ../MIDIGenerator_bsp/\libucosii_bsp.a(os_task.o)
 .bss           0x00812db5        0x0 ../MIDIGenerator_bsp/\libucosii_bsp.a(os_time.o)
 .bss           0x00812db5        0x0 ../MIDIGenerator_bsp/\libucosii_bsp.a(alt_sys_init.o)
 .bss           0x00812db5        0x0 ../MIDIGenerator_bsp/\libucosii_bsp.a(altera_avalon_jtag_uart_fd.o)
 .bss           0x00812db5        0x0 ../MIDIGenerator_bsp/\libucosii_bsp.a(altera_avalon_jtag_uart_init.o)
 .bss           0x00812db5        0x0 ../MIDIGenerator_bsp/\libucosii_bsp.a(altera_avalon_jtag_uart_ioctl.o)
 .bss           0x00812db5        0x0 ../MIDIGenerator_bsp/\libucosii_bsp.a(altera_avalon_jtag_uart_read.o)
 .bss           0x00812db5        0x0 ../MIDIGenerator_bsp/\libucosii_bsp.a(altera_avalon_jtag_uart_write.o)
 .bss           0x00812db5        0x0 ../MIDIGenerator_bsp/\libucosii_bsp.a(altera_avalon_timer_sc.o)
 .bss           0x00812db5        0x0 ../MIDIGenerator_bsp/\libucosii_bsp.a(altera_up_avalon_character_lcd.o)
 .bss           0x00812db5        0x0 ../MIDIGenerator_bsp/\libucosii_bsp.a(alt_alarm_start.o)
 .bss           0x00812db5        0x0 ../MIDIGenerator_bsp/\libucosii_bsp.a(alt_close.o)
 .bss           0x00812db5        0x0 ../MIDIGenerator_bsp/\libucosii_bsp.a(alt_dcache_flush_all.o)
 .bss           0x00812db5        0x0 ../MIDIGenerator_bsp/\libucosii_bsp.a(alt_dev.o)
 .bss           0x00812db5        0x0 ../MIDIGenerator_bsp/\libucosii_bsp.a(alt_dev_llist_insert.o)
 .bss           0x00812db5        0x0 ../MIDIGenerator_bsp/\libucosii_bsp.a(alt_do_ctors.o)
 .bss           0x00812db5        0x0 ../MIDIGenerator_bsp/\libucosii_bsp.a(alt_do_dtors.o)
 .bss           0x00812db5        0x0 ../MIDIGenerator_bsp/\libucosii_bsp.a(alt_errno.o)
 .bss           0x00812db5        0x0 ../MIDIGenerator_bsp/\libucosii_bsp.a(alt_exception_entry.o)
 .bss           0x00812db5        0x0 ../MIDIGenerator_bsp/\libucosii_bsp.a(alt_find_dev.o)
 .bss           0x00812db5        0x0 ../MIDIGenerator_bsp/\libucosii_bsp.a(alt_icache_flush_all.o)
 .bss           0x00812db5        0x0 ../MIDIGenerator_bsp/\libucosii_bsp.a(alt_io_redirect.o)
 .bss           0x00812db5        0x0 ../MIDIGenerator_bsp/\libucosii_bsp.a(alt_open.o)
 .bss           0x00812db5        0x0 ../MIDIGenerator_bsp/\libucosii_bsp.a(alt_release_fd.o)
 .bss           0x00812db5        0x0 ../MIDIGenerator_bsp/\libucosii_bsp.a(alt_tick.o)
 .bss           0x00812db5        0x0 ../MIDIGenerator_bsp/\libucosii_bsp.a(altera_nios2_qsys_irq.o)
 .bss           0x00812db5        0x0 ../MIDIGenerator_bsp/\libucosii_bsp.a(os_cpu_a.o)
 .bss           0x00812db5        0x0 ../MIDIGenerator_bsp/\libucosii_bsp.a(os_cpu_c.o)
 .bss           0x00812db5        0x0 ../MIDIGenerator_bsp/\libucosii_bsp.a(alt_find_file.o)
 .bss           0x00812db5        0x0 ../MIDIGenerator_bsp/\libucosii_bsp.a(alt_get_fd.o)
 .bss           0x00812db5        0x0 c:/altera/12.1sp1/nios2eds/bin/gnu/h-i686-mingw32/bin/../lib/gcc/nios2-elf/4.1.2/../../../../nios2-elf/lib/mno-hw-mul\libc.a(lib_a-atexit.o)
 .bss           0x00812db5        0x0 c:/altera/12.1sp1/nios2eds/bin/gnu/h-i686-mingw32/bin/../lib/gcc/nios2-elf/4.1.2/../../../../nios2-elf/lib/mno-hw-mul\libc.a(lib_a-exit.o)
 .bss           0x00812db5        0x0 c:/altera/12.1sp1/nios2eds/bin/gnu/h-i686-mingw32/bin/../lib/gcc/nios2-elf/4.1.2/../../../../nios2-elf/lib/mno-hw-mul\libc.a(lib_a-impure.o)
 .bss           0x00812db5        0x0 c:/altera/12.1sp1/nios2eds/bin/gnu/h-i686-mingw32/bin/../lib/gcc/nios2-elf/4.1.2/../../../../nios2-elf/lib/mno-hw-mul\libc.a(lib_a-int_errno.o)
 .bss           0x00812db5        0x0 c:/altera/12.1sp1/nios2eds/bin/gnu/h-i686-mingw32/bin/../lib/gcc/nios2-elf/4.1.2/../../../../nios2-elf/lib/mno-hw-mul\libc.a(lib_a-memcmp.o)
 .bss           0x00812db5        0x0 c:/altera/12.1sp1/nios2eds/bin/gnu/h-i686-mingw32/bin/../lib/gcc/nios2-elf/4.1.2/../../../../nios2-elf/lib/mno-hw-mul\libc.a(lib_a-memcpy.o)
 .bss           0x00812db5        0x0 c:/altera/12.1sp1/nios2eds/bin/gnu/h-i686-mingw32/bin/../lib/gcc/nios2-elf/4.1.2/../../../../nios2-elf/lib/mno-hw-mul\libc.a(lib_a-memset.o)
 .bss           0x00812db5        0x0 c:/altera/12.1sp1/nios2eds/bin/gnu/h-i686-mingw32/bin/../lib/gcc/nios2-elf/4.1.2/../../../../nios2-elf/lib/mno-hw-mul\libc.a(lib_a-putc.o)
 .bss           0x00812db5        0x0 c:/altera/12.1sp1/nios2eds/bin/gnu/h-i686-mingw32/bin/../lib/gcc/nios2-elf/4.1.2/../../../../nios2-elf/lib/mno-hw-mul\libc.a(lib_a-strlen.o)
 .bss           0x00812db5        0x0 c:/altera/12.1sp1/nios2eds/bin/gnu/h-i686-mingw32/bin/../lib/gcc/nios2-elf/4.1.2/../../../../nios2-elf/lib/mno-hw-mul\libc.a(lib_a-wbuf.o)
 .bss           0x00812db5        0x0 c:/altera/12.1sp1/nios2eds/bin/gnu/h-i686-mingw32/bin/../lib/gcc/nios2-elf/4.1.2/../../../../nios2-elf/lib/mno-hw-mul\libc.a(lib_a-wsetup.o)
 .bss           0x00812db5        0x0 c:/altera/12.1sp1/nios2eds/bin/gnu/h-i686-mingw32/bin/../lib/gcc/nios2-elf/4.1.2/../../../../nios2-elf/lib/mno-hw-mul\libc.a(lib_a-__atexit.o)
 .bss           0x00812db5        0x0 c:/altera/12.1sp1/nios2eds/bin/gnu/h-i686-mingw32/bin/../lib/gcc/nios2-elf/4.1.2/../../../../nios2-elf/lib/mno-hw-mul\libc.a(lib_a-__call_atexit.o)
 .bss           0x00812db5        0x0 c:/altera/12.1sp1/nios2eds/bin/gnu/h-i686-mingw32/bin/../lib/gcc/nios2-elf/4.1.2/../../../../nios2-elf/lib/mno-hw-mul\libc.a(lib_a-fflush.o)
 .bss           0x00812db5        0x0 c:/altera/12.1sp1/nios2eds/bin/gnu/h-i686-mingw32/bin/../lib/gcc/nios2-elf/4.1.2/../../../../nios2-elf/lib/mno-hw-mul\libc.a(lib_a-findfp.o)
 .bss           0x00812db5        0x0 c:/altera/12.1sp1/nios2eds/bin/gnu/h-i686-mingw32/bin/../lib/gcc/nios2-elf/4.1.2/../../../../nios2-elf/lib/mno-hw-mul\libc.a(lib_a-freer.o)
 .bss           0x00812db5        0x0 c:/altera/12.1sp1/nios2eds/bin/gnu/h-i686-mingw32/bin/../lib/gcc/nios2-elf/4.1.2/../../../../nios2-elf/lib/mno-hw-mul\libc.a(lib_a-fwalk.o)
 .bss           0x00812db5        0x0 c:/altera/12.1sp1/nios2eds/bin/gnu/h-i686-mingw32/bin/../lib/gcc/nios2-elf/4.1.2/../../../../nios2-elf/lib/mno-hw-mul\libc.a(lib_a-makebuf.o)
 *fill*         0x00812db5        0x3 00
 .bss           0x00812db8       0x28 c:/altera/12.1sp1/nios2eds/bin/gnu/h-i686-mingw32/bin/../lib/gcc/nios2-elf/4.1.2/../../../../nios2-elf/lib/mno-hw-mul\libc.a(lib_a-mallocr.o)
                0x00812db8                __malloc_current_mallinfo
 .bss           0x00812de0        0x0 c:/altera/12.1sp1/nios2eds/bin/gnu/h-i686-mingw32/bin/../lib/gcc/nios2-elf/4.1.2/../../../../nios2-elf/lib/mno-hw-mul\libc.a(lib_a-sbrkr.o)
 .bss           0x00812de0        0x0 c:/altera/12.1sp1/nios2eds/bin/gnu/h-i686-mingw32/bin/../lib/gcc/nios2-elf/4.1.2/../../../../nios2-elf/lib/mno-hw-mul\libc.a(lib_a-stdio.o)
 .bss           0x00812de0        0x0 c:/altera/12.1sp1/nios2eds/bin/gnu/h-i686-mingw32/bin/../lib/gcc/nios2-elf/4.1.2/../../../../nios2-elf/lib/mno-hw-mul\libc.a(lib_a-writer.o)
 .bss           0x00812de0        0x0 c:/altera/12.1sp1/nios2eds/bin/gnu/h-i686-mingw32/bin/../lib/gcc/nios2-elf/4.1.2/../../../../nios2-elf/lib/mno-hw-mul\libc.a(lib_a-closer.o)
 .bss           0x00812de0        0x0 c:/altera/12.1sp1/nios2eds/bin/gnu/h-i686-mingw32/bin/../lib/gcc/nios2-elf/4.1.2/../../../../nios2-elf/lib/mno-hw-mul\libc.a(lib_a-fclose.o)
 .bss           0x00812de0        0x0 c:/altera/12.1sp1/nios2eds/bin/gnu/h-i686-mingw32/bin/../lib/gcc/nios2-elf/4.1.2/../../../../nios2-elf/lib/mno-hw-mul\libc.a(lib_a-fstatr.o)
 .bss           0x00812de0        0x0 c:/altera/12.1sp1/nios2eds/bin/gnu/h-i686-mingw32/bin/../lib/gcc/nios2-elf/4.1.2/../../../../nios2-elf/lib/mno-hw-mul\libc.a(lib_a-isattyr.o)
 .bss           0x00812de0        0x0 c:/altera/12.1sp1/nios2eds/bin/gnu/h-i686-mingw32/bin/../lib/gcc/nios2-elf/4.1.2/../../../../nios2-elf/lib/mno-hw-mul\libc.a(lib_a-lseekr.o)
 .bss           0x00812de0        0x0 c:/altera/12.1sp1/nios2eds/bin/gnu/h-i686-mingw32/bin/../lib/gcc/nios2-elf/4.1.2/../../../../nios2-elf/lib/mno-hw-mul\libc.a(lib_a-readr.o)
 .bss           0x00812de0        0x0 c:/altera/12.1sp1/nios2eds/bin/gnu/h-i686-mingw32/bin/../lib/gcc/nios2-elf/4.1.2/mno-hw-mul\libgcc.a(lib2-divmod.o)
 .bss           0x00812de0        0x0 c:/altera/12.1sp1/nios2eds/bin/gnu/h-i686-mingw32/bin/../lib/gcc/nios2-elf/4.1.2/mno-hw-mul\libgcc.a(lib2-mul.o)
 .bss           0x00812de0        0x0 ../MIDIGenerator_bsp/\libucosii_bsp.a(alt_exit.o)
 .bss           0x00812de0        0x0 ../MIDIGenerator_bsp/\libucosii_bsp.a(alt_fstat.o)
 .bss           0x00812de0        0x0 ../MIDIGenerator_bsp/\libucosii_bsp.a(alt_isatty.o)
 .bss           0x00812de0        0x0 ../MIDIGenerator_bsp/\libucosii_bsp.a(alt_lseek.o)
 .bss           0x00812de0        0x0 ../MIDIGenerator_bsp/\libucosii_bsp.a(alt_read.o)
 .bss           0x00812de0        0x0 ../MIDIGenerator_bsp/\libucosii_bsp.a(alt_sbrk.o)
 .bss           0x00812de0        0x0 ../MIDIGenerator_bsp/\libucosii_bsp.a(alt_write.o)
 *(COMMON)
 COMMON         0x00812de0     0x2000 obj/default/midi_generator.o
                0x00812de0                inputPollingTaskStack
 COMMON         0x00814de0      0x100 ../MIDIGenerator_bsp/\libucosii_bsp.a(alt_irq_handler.o)
                0x00814de0                alt_irq
 COMMON         0x00814ee0     0x3224 ../MIDIGenerator_bsp/\libucosii_bsp.a(os_core.o)
                0x00814ee0                OSFlagTbl
                0x00815250                OSMemTbl
                0x00815e80                OSTaskStatStk
                0x00816680                OSQTbl
                0x00816860                OSTaskIdleStk
                0x00817060                OSEventTbl
                0x00817ba0                OSTCBTbl
                0x008180b0                OSTCBPrioTbl
 COMMON         0x00818104      0x190 c:/altera/12.1sp1/nios2eds/bin/gnu/h-i686-mingw32/bin/../lib/gcc/nios2-elf/4.1.2/../../../../nios2-elf/lib/mno-hw-mul\libc.a(lib_a-atexit.o)
                0x00818104                _atexit0
                0x00818294                . = ALIGN (0x4)
                0x00818294                __bss_end = ABSOLUTE (.)

.sdram_0        0x00818294        0x0
                0x00818294                PROVIDE (_alt_partition_sdram_0_start, ABSOLUTE (.))
 *(.sdram_0. sdram_0.*)
                0x00818294                . = ALIGN (0x4)
                0x00818294                PROVIDE (_alt_partition_sdram_0_end, ABSOLUTE (.))
                0x00818294                _end = ABSOLUTE (.)
                0x00818294                end = ABSOLUTE (.)
                0x00818294                __alt_stack_base = ABSOLUTE (.)
                0x00818294                PROVIDE (_alt_partition_sdram_0_load_addr, LOADADDR (.sdram_0))

.sram_0         0x01080000        0x0 load address 0x00818294
                0x01080000                PROVIDE (_alt_partition_sram_0_start, ABSOLUTE (.))
 *(.sram_0. sram_0.*)
                0x01080000                . = ALIGN (0x4)
                0x01080000                PROVIDE (_alt_partition_sram_0_end, ABSOLUTE (.))
                0x00818294                PROVIDE (_alt_partition_sram_0_load_addr, LOADADDR (.sram_0))

.onchip_memory2_0
                0x011041bc        0x0 load address 0x00818294
                0x011041bc                PROVIDE (_alt_partition_onchip_memory2_0_start, ABSOLUTE (.))
 *(.onchip_memory2_0. onchip_memory2_0.*)
                0x011041bc                . = ALIGN (0x4)
                0x011041bc                PROVIDE (_alt_partition_onchip_memory2_0_end, ABSOLUTE (.))
                0x00818294                PROVIDE (_alt_partition_onchip_memory2_0_load_addr, LOADADDR (.onchip_memory2_0))

.stab
 *(.stab)

.stabstr
 *(.stabstr)

.stab.excl
 *(.stab.excl)

.stab.exclstr
 *(.stab.exclstr)

.stab.index
 *(.stab.index)

.stab.indexstr
 *(.stab.indexstr)

.comment        0x00000000       0x26
 *(.comment)
 .comment       0x00000000       0x26 obj/default/midi_generator.o
                                 0x27 (size before relaxing)
 .comment       0x00000000       0x27 c:/altera/12.1sp1/nios2eds/bin/gnu/h-i686-mingw32/bin/../lib/gcc/nios2-elf/4.1.2/mno-hw-mul\libgcc.a(_addsub_df.o)
 .comment       0x00000000       0x27 c:/altera/12.1sp1/nios2eds/bin/gnu/h-i686-mingw32/bin/../lib/gcc/nios2-elf/4.1.2/mno-hw-mul\libgcc.a(_si_to_df.o)
 .comment       0x00000000       0x27 c:/altera/12.1sp1/nios2eds/bin/gnu/h-i686-mingw32/bin/../lib/gcc/nios2-elf/4.1.2/mno-hw-mul\libgcc.a(_df_to_si.o)
 .comment       0x00000000       0x27 c:/altera/12.1sp1/nios2eds/bin/gnu/h-i686-mingw32/bin/../lib/gcc/nios2-elf/4.1.2/mno-hw-mul\libgcc.a(_thenan_df.o)
 .comment       0x00000000       0x27 c:/altera/12.1sp1/nios2eds/bin/gnu/h-i686-mingw32/bin/../lib/gcc/nios2-elf/4.1.2/mno-hw-mul\libgcc.a(_clzsi2.o)
 .comment       0x00000000       0x27 c:/altera/12.1sp1/nios2eds/bin/gnu/h-i686-mingw32/bin/../lib/gcc/nios2-elf/4.1.2/mno-hw-mul\libgcc.a(_pack_df.o)
 .comment       0x00000000       0x27 c:/altera/12.1sp1/nios2eds/bin/gnu/h-i686-mingw32/bin/../lib/gcc/nios2-elf/4.1.2/mno-hw-mul\libgcc.a(_unpack_df.o)
 .comment       0x00000000       0x27 c:/altera/12.1sp1/nios2eds/bin/gnu/h-i686-mingw32/bin/../lib/gcc/nios2-elf/4.1.2/mno-hw-mul\libgcc.a(_clz.o)
 .comment       0x00000000       0x27 c:/altera/12.1sp1/nios2eds/bin/gnu/h-i686-mingw32/bin/../lib/gcc/nios2-elf/4.1.2/../../../../nios2-elf/lib/mno-hw-mul\libc.a(lib_a-strcat.o)
 .comment       0x00000000       0x27 c:/altera/12.1sp1/nios2eds/bin/gnu/h-i686-mingw32/bin/../lib/gcc/nios2-elf/4.1.2/../../../../nios2-elf/lib/mno-hw-mul\libc.a(lib_a-strcpy.o)
 .comment       0x00000000       0x27 ../MIDIGenerator_bsp/\libucosii_bsp.a(alt_iic.o)
 .comment       0x00000000       0x27 ../MIDIGenerator_bsp/\libucosii_bsp.a(alt_iic_isr_register.o)
 .comment       0x00000000       0x27 ../MIDIGenerator_bsp/\libucosii_bsp.a(alt_irq_handler.o)
 .comment       0x00000000       0x27 ../MIDIGenerator_bsp/\libucosii_bsp.a(alt_irq_vars.o)
 .comment       0x00000000       0x27 ../MIDIGenerator_bsp/\libucosii_bsp.a(alt_load.o)
 .comment       0x00000000       0x27 ../MIDIGenerator_bsp/\libucosii_bsp.a(alt_main.o)
 .comment       0x00000000       0x27 ../MIDIGenerator_bsp/\libucosii_bsp.a(alt_printf.o)
 .comment       0x00000000       0x27 ../MIDIGenerator_bsp/\libucosii_bsp.a(alt_putchar.o)
 .comment       0x00000000       0x27 ../MIDIGenerator_bsp/\libucosii_bsp.a(alt_env_lock.o)
 .comment       0x00000000       0x27 ../MIDIGenerator_bsp/\libucosii_bsp.a(alt_malloc_lock.o)
 .comment       0x00000000       0x27 ../MIDIGenerator_bsp/\libucosii_bsp.a(os_core.o)
 .comment       0x00000000       0x27 ../MIDIGenerator_bsp/\libucosii_bsp.a(os_dbg.o)
 .comment       0x00000000       0x27 ../MIDIGenerator_bsp/\libucosii_bsp.a(os_flag.o)
 .comment       0x00000000       0x27 ../MIDIGenerator_bsp/\libucosii_bsp.a(os_mem.o)
 .comment       0x00000000       0x27 ../MIDIGenerator_bsp/\libucosii_bsp.a(os_q.o)
 .comment       0x00000000       0x27 ../MIDIGenerator_bsp/\libucosii_bsp.a(os_sem.o)
 .comment       0x00000000       0x27 ../MIDIGenerator_bsp/\libucosii_bsp.a(os_task.o)
 .comment       0x00000000       0x27 ../MIDIGenerator_bsp/\libucosii_bsp.a(os_time.o)
 .comment       0x00000000       0x27 ../MIDIGenerator_bsp/\libucosii_bsp.a(alt_sys_init.o)
 .comment       0x00000000       0x27 ../MIDIGenerator_bsp/\libucosii_bsp.a(altera_avalon_jtag_uart_fd.o)
 .comment       0x00000000       0x27 ../MIDIGenerator_bsp/\libucosii_bsp.a(altera_avalon_jtag_uart_init.o)
 .comment       0x00000000       0x27 ../MIDIGenerator_bsp/\libucosii_bsp.a(altera_avalon_jtag_uart_ioctl.o)
 .comment       0x00000000       0x27 ../MIDIGenerator_bsp/\libucosii_bsp.a(altera_avalon_jtag_uart_read.o)
 .comment       0x00000000       0x27 ../MIDIGenerator_bsp/\libucosii_bsp.a(altera_avalon_jtag_uart_write.o)
 .comment       0x00000000       0x27 ../MIDIGenerator_bsp/\libucosii_bsp.a(altera_avalon_timer_sc.o)
 .comment       0x00000000       0x27 ../MIDIGenerator_bsp/\libucosii_bsp.a(altera_up_avalon_character_lcd.o)
 .comment       0x00000000       0x27 ../MIDIGenerator_bsp/\libucosii_bsp.a(alt_alarm_start.o)
 .comment       0x00000000       0x27 ../MIDIGenerator_bsp/\libucosii_bsp.a(alt_close.o)
 .comment       0x00000000       0x27 ../MIDIGenerator_bsp/\libucosii_bsp.a(alt_dcache_flush_all.o)
 .comment       0x00000000       0x27 ../MIDIGenerator_bsp/\libucosii_bsp.a(alt_dev.o)
 .comment       0x00000000       0x27 ../MIDIGenerator_bsp/\libucosii_bsp.a(alt_dev_llist_insert.o)
 .comment       0x00000000       0x27 ../MIDIGenerator_bsp/\libucosii_bsp.a(alt_do_ctors.o)
 .comment       0x00000000       0x27 ../MIDIGenerator_bsp/\libucosii_bsp.a(alt_do_dtors.o)
 .comment       0x00000000       0x27 ../MIDIGenerator_bsp/\libucosii_bsp.a(alt_errno.o)
 .comment       0x00000000       0x27 ../MIDIGenerator_bsp/\libucosii_bsp.a(alt_find_dev.o)
 .comment       0x00000000       0x27 ../MIDIGenerator_bsp/\libucosii_bsp.a(alt_icache_flush_all.o)
 .comment       0x00000000       0x27 ../MIDIGenerator_bsp/\libucosii_bsp.a(alt_io_redirect.o)
 .comment       0x00000000       0x27 ../MIDIGenerator_bsp/\libucosii_bsp.a(alt_open.o)
 .comment       0x00000000       0x27 ../MIDIGenerator_bsp/\libucosii_bsp.a(alt_release_fd.o)
 .comment       0x00000000       0x27 ../MIDIGenerator_bsp/\libucosii_bsp.a(alt_tick.o)
 .comment       0x00000000       0x27 ../MIDIGenerator_bsp/\libucosii_bsp.a(altera_nios2_qsys_irq.o)
 .comment       0x00000000       0x27 ../MIDIGenerator_bsp/\libucosii_bsp.a(os_cpu_c.o)
 .comment       0x00000000       0x27 ../MIDIGenerator_bsp/\libucosii_bsp.a(alt_find_file.o)
 .comment       0x00000000       0x27 ../MIDIGenerator_bsp/\libucosii_bsp.a(alt_get_fd.o)
 .comment       0x00000000       0x27 c:/altera/12.1sp1/nios2eds/bin/gnu/h-i686-mingw32/bin/../lib/gcc/nios2-elf/4.1.2/../../../../nios2-elf/lib/mno-hw-mul\libc.a(lib_a-atexit.o)
 .comment       0x00000000       0x27 c:/altera/12.1sp1/nios2eds/bin/gnu/h-i686-mingw32/bin/../lib/gcc/nios2-elf/4.1.2/../../../../nios2-elf/lib/mno-hw-mul\libc.a(lib_a-exit.o)
 .comment       0x00000000       0x27 c:/altera/12.1sp1/nios2eds/bin/gnu/h-i686-mingw32/bin/../lib/gcc/nios2-elf/4.1.2/../../../../nios2-elf/lib/mno-hw-mul\libc.a(lib_a-impure.o)
 .comment       0x00000000       0x27 c:/altera/12.1sp1/nios2eds/bin/gnu/h-i686-mingw32/bin/../lib/gcc/nios2-elf/4.1.2/../../../../nios2-elf/lib/mno-hw-mul\libc.a(lib_a-int_errno.o)
 .comment       0x00000000       0x27 c:/altera/12.1sp1/nios2eds/bin/gnu/h-i686-mingw32/bin/../lib/gcc/nios2-elf/4.1.2/../../../../nios2-elf/lib/mno-hw-mul\libc.a(lib_a-memcmp.o)
 .comment       0x00000000       0x27 c:/altera/12.1sp1/nios2eds/bin/gnu/h-i686-mingw32/bin/../lib/gcc/nios2-elf/4.1.2/../../../../nios2-elf/lib/mno-hw-mul\libc.a(lib_a-memcpy.o)
 .comment       0x00000000       0x27 c:/altera/12.1sp1/nios2eds/bin/gnu/h-i686-mingw32/bin/../lib/gcc/nios2-elf/4.1.2/../../../../nios2-elf/lib/mno-hw-mul\libc.a(lib_a-memset.o)
 .comment       0x00000000       0x27 c:/altera/12.1sp1/nios2eds/bin/gnu/h-i686-mingw32/bin/../lib/gcc/nios2-elf/4.1.2/../../../../nios2-elf/lib/mno-hw-mul\libc.a(lib_a-putc.o)
 .comment       0x00000000       0x27 c:/altera/12.1sp1/nios2eds/bin/gnu/h-i686-mingw32/bin/../lib/gcc/nios2-elf/4.1.2/../../../../nios2-elf/lib/mno-hw-mul\libc.a(lib_a-strlen.o)
 .comment       0x00000000       0x27 c:/altera/12.1sp1/nios2eds/bin/gnu/h-i686-mingw32/bin/../lib/gcc/nios2-elf/4.1.2/../../../../nios2-elf/lib/mno-hw-mul\libc.a(lib_a-wbuf.o)
 .comment       0x00000000       0x27 c:/altera/12.1sp1/nios2eds/bin/gnu/h-i686-mingw32/bin/../lib/gcc/nios2-elf/4.1.2/../../../../nios2-elf/lib/mno-hw-mul\libc.a(lib_a-wsetup.o)
 .comment       0x00000000       0x27 c:/altera/12.1sp1/nios2eds/bin/gnu/h-i686-mingw32/bin/../lib/gcc/nios2-elf/4.1.2/../../../../nios2-elf/lib/mno-hw-mul\libc.a(lib_a-__atexit.o)
 .comment       0x00000000       0x27 c:/altera/12.1sp1/nios2eds/bin/gnu/h-i686-mingw32/bin/../lib/gcc/nios2-elf/4.1.2/../../../../nios2-elf/lib/mno-hw-mul\libc.a(lib_a-__call_atexit.o)
 .comment       0x00000000       0x27 c:/altera/12.1sp1/nios2eds/bin/gnu/h-i686-mingw32/bin/../lib/gcc/nios2-elf/4.1.2/../../../../nios2-elf/lib/mno-hw-mul\libc.a(lib_a-fflush.o)
 .comment       0x00000000       0x27 c:/altera/12.1sp1/nios2eds/bin/gnu/h-i686-mingw32/bin/../lib/gcc/nios2-elf/4.1.2/../../../../nios2-elf/lib/mno-hw-mul\libc.a(lib_a-findfp.o)
 .comment       0x00000000       0x27 c:/altera/12.1sp1/nios2eds/bin/gnu/h-i686-mingw32/bin/../lib/gcc/nios2-elf/4.1.2/../../../../nios2-elf/lib/mno-hw-mul\libc.a(lib_a-freer.o)
 .comment       0x00000000       0x27 c:/altera/12.1sp1/nios2eds/bin/gnu/h-i686-mingw32/bin/../lib/gcc/nios2-elf/4.1.2/../../../../nios2-elf/lib/mno-hw-mul\libc.a(lib_a-fwalk.o)
 .comment       0x00000000       0x27 c:/altera/12.1sp1/nios2eds/bin/gnu/h-i686-mingw32/bin/../lib/gcc/nios2-elf/4.1.2/../../../../nios2-elf/lib/mno-hw-mul\libc.a(lib_a-makebuf.o)
 .comment       0x00000000       0x27 c:/altera/12.1sp1/nios2eds/bin/gnu/h-i686-mingw32/bin/../lib/gcc/nios2-elf/4.1.2/../../../../nios2-elf/lib/mno-hw-mul\libc.a(lib_a-mallocr.o)
 .comment       0x00000000       0x27 c:/altera/12.1sp1/nios2eds/bin/gnu/h-i686-mingw32/bin/../lib/gcc/nios2-elf/4.1.2/../../../../nios2-elf/lib/mno-hw-mul\libc.a(lib_a-sbrkr.o)
 .comment       0x00000000       0x27 c:/altera/12.1sp1/nios2eds/bin/gnu/h-i686-mingw32/bin/../lib/gcc/nios2-elf/4.1.2/../../../../nios2-elf/lib/mno-hw-mul\libc.a(lib_a-stdio.o)
 .comment       0x00000000       0x27 c:/altera/12.1sp1/nios2eds/bin/gnu/h-i686-mingw32/bin/../lib/gcc/nios2-elf/4.1.2/../../../../nios2-elf/lib/mno-hw-mul\libc.a(lib_a-writer.o)
 .comment       0x00000000       0x27 c:/altera/12.1sp1/nios2eds/bin/gnu/h-i686-mingw32/bin/../lib/gcc/nios2-elf/4.1.2/../../../../nios2-elf/lib/mno-hw-mul\libc.a(lib_a-closer.o)
 .comment       0x00000000       0x27 c:/altera/12.1sp1/nios2eds/bin/gnu/h-i686-mingw32/bin/../lib/gcc/nios2-elf/4.1.2/../../../../nios2-elf/lib/mno-hw-mul\libc.a(lib_a-fclose.o)
 .comment       0x00000000       0x27 c:/altera/12.1sp1/nios2eds/bin/gnu/h-i686-mingw32/bin/../lib/gcc/nios2-elf/4.1.2/../../../../nios2-elf/lib/mno-hw-mul\libc.a(lib_a-fstatr.o)
 .comment       0x00000000       0x27 c:/altera/12.1sp1/nios2eds/bin/gnu/h-i686-mingw32/bin/../lib/gcc/nios2-elf/4.1.2/../../../../nios2-elf/lib/mno-hw-mul\libc.a(lib_a-isattyr.o)
 .comment       0x00000000       0x27 c:/altera/12.1sp1/nios2eds/bin/gnu/h-i686-mingw32/bin/../lib/gcc/nios2-elf/4.1.2/../../../../nios2-elf/lib/mno-hw-mul\libc.a(lib_a-lseekr.o)
 .comment       0x00000000       0x27 c:/altera/12.1sp1/nios2eds/bin/gnu/h-i686-mingw32/bin/../lib/gcc/nios2-elf/4.1.2/../../../../nios2-elf/lib/mno-hw-mul\libc.a(lib_a-readr.o)
 .comment       0x00000000       0x27 c:/altera/12.1sp1/nios2eds/bin/gnu/h-i686-mingw32/bin/../lib/gcc/nios2-elf/4.1.2/mno-hw-mul\libgcc.a(lib2-divmod.o)
 .comment       0x00000000       0x27 c:/altera/12.1sp1/nios2eds/bin/gnu/h-i686-mingw32/bin/../lib/gcc/nios2-elf/4.1.2/mno-hw-mul\libgcc.a(lib2-mul.o)
 .comment       0x00000000       0x27 ../MIDIGenerator_bsp/\libucosii_bsp.a(alt_exit.o)
 .comment       0x00000000       0x27 ../MIDIGenerator_bsp/\libucosii_bsp.a(alt_fstat.o)
 .comment       0x00000000       0x27 ../MIDIGenerator_bsp/\libucosii_bsp.a(alt_isatty.o)
 .comment       0x00000000       0x27 ../MIDIGenerator_bsp/\libucosii_bsp.a(alt_lseek.o)
 .comment       0x00000000       0x27 ../MIDIGenerator_bsp/\libucosii_bsp.a(alt_read.o)
 .comment       0x00000000       0x27 ../MIDIGenerator_bsp/\libucosii_bsp.a(alt_sbrk.o)
 .comment       0x00000000       0x27 ../MIDIGenerator_bsp/\libucosii_bsp.a(alt_write.o)

.debug
 *(.debug)

.line
 *(.line)

.debug_srcinfo
 *(.debug_srcinfo)

.debug_sfnames
 *(.debug_sfnames)

.debug_aranges  0x00000000      0xb78
 *(.debug_aranges)
 .debug_aranges
                0x00000000       0x28 ../MIDIGenerator_bsp//obj/HAL/src/crt0.o
 .debug_aranges
                0x00000028       0x20 obj/default/midi_generator.o
 .debug_aranges
                0x00000048       0x20 c:/altera/12.1sp1/nios2eds/bin/gnu/h-i686-mingw32/bin/../lib/gcc/nios2-elf/4.1.2/mno-hw-mul\libgcc.a(_addsub_df.o)
 .debug_aranges
                0x00000068       0x20 c:/altera/12.1sp1/nios2eds/bin/gnu/h-i686-mingw32/bin/../lib/gcc/nios2-elf/4.1.2/mno-hw-mul\libgcc.a(_si_to_df.o)
 .debug_aranges
                0x00000088       0x20 c:/altera/12.1sp1/nios2eds/bin/gnu/h-i686-mingw32/bin/../lib/gcc/nios2-elf/4.1.2/mno-hw-mul\libgcc.a(_df_to_si.o)
 .debug_aranges
                0x000000a8       0x20 c:/altera/12.1sp1/nios2eds/bin/gnu/h-i686-mingw32/bin/../lib/gcc/nios2-elf/4.1.2/mno-hw-mul\libgcc.a(_clzsi2.o)
 .debug_aranges
                0x000000c8       0x20 c:/altera/12.1sp1/nios2eds/bin/gnu/h-i686-mingw32/bin/../lib/gcc/nios2-elf/4.1.2/mno-hw-mul\libgcc.a(_pack_df.o)
 .debug_aranges
                0x000000e8       0x20 c:/altera/12.1sp1/nios2eds/bin/gnu/h-i686-mingw32/bin/../lib/gcc/nios2-elf/4.1.2/mno-hw-mul\libgcc.a(_unpack_df.o)
 .debug_aranges
                0x00000108       0x20 c:/altera/12.1sp1/nios2eds/bin/gnu/h-i686-mingw32/bin/../lib/gcc/nios2-elf/4.1.2/../../../../nios2-elf/lib/mno-hw-mul\libc.a(lib_a-strcat.o)
 .debug_aranges
                0x00000128       0x20 c:/altera/12.1sp1/nios2eds/bin/gnu/h-i686-mingw32/bin/../lib/gcc/nios2-elf/4.1.2/../../../../nios2-elf/lib/mno-hw-mul\libc.a(lib_a-strcpy.o)
 .debug_aranges
                0x00000148       0x20 ../MIDIGenerator_bsp/\libucosii_bsp.a(alt_iic.o)
 .debug_aranges
                0x00000168       0x20 ../MIDIGenerator_bsp/\libucosii_bsp.a(alt_iic_isr_register.o)
 .debug_aranges
                0x00000188       0x30 ../MIDIGenerator_bsp/\libucosii_bsp.a(alt_irq_entry.o)
 .debug_aranges
                0x000001b8       0x28 ../MIDIGenerator_bsp/\libucosii_bsp.a(alt_irq_handler.o)
 .debug_aranges
                0x000001e0       0x20 ../MIDIGenerator_bsp/\libucosii_bsp.a(alt_load.o)
 .debug_aranges
                0x00000200       0x20 ../MIDIGenerator_bsp/\libucosii_bsp.a(alt_main.o)
 .debug_aranges
                0x00000220       0x20 ../MIDIGenerator_bsp/\libucosii_bsp.a(alt_printf.o)
 .debug_aranges
                0x00000240       0x20 ../MIDIGenerator_bsp/\libucosii_bsp.a(alt_putchar.o)
 .debug_aranges
                0x00000260       0x20 ../MIDIGenerator_bsp/\libucosii_bsp.a(alt_env_lock.o)
 .debug_aranges
                0x00000280       0x20 ../MIDIGenerator_bsp/\libucosii_bsp.a(alt_malloc_lock.o)
 .debug_aranges
                0x000002a0       0x20 ../MIDIGenerator_bsp/\libucosii_bsp.a(os_core.o)
 .debug_aranges
                0x000002c0       0x20 ../MIDIGenerator_bsp/\libucosii_bsp.a(os_dbg.o)
 .debug_aranges
                0x000002e0       0x20 ../MIDIGenerator_bsp/\libucosii_bsp.a(os_flag.o)
 .debug_aranges
                0x00000300       0x20 ../MIDIGenerator_bsp/\libucosii_bsp.a(os_mem.o)
 .debug_aranges
                0x00000320       0x20 ../MIDIGenerator_bsp/\libucosii_bsp.a(os_q.o)
 .debug_aranges
                0x00000340       0x20 ../MIDIGenerator_bsp/\libucosii_bsp.a(os_sem.o)
 .debug_aranges
                0x00000360       0x20 ../MIDIGenerator_bsp/\libucosii_bsp.a(os_task.o)
 .debug_aranges
                0x00000380       0x20 ../MIDIGenerator_bsp/\libucosii_bsp.a(os_time.o)
 .debug_aranges
                0x000003a0       0x20 ../MIDIGenerator_bsp/\libucosii_bsp.a(alt_sys_init.o)
 .debug_aranges
                0x000003c0       0x20 ../MIDIGenerator_bsp/\libucosii_bsp.a(altera_avalon_jtag_uart_fd.o)
 .debug_aranges
                0x000003e0       0x20 ../MIDIGenerator_bsp/\libucosii_bsp.a(altera_avalon_jtag_uart_init.o)
 .debug_aranges
                0x00000400       0x20 ../MIDIGenerator_bsp/\libucosii_bsp.a(altera_avalon_jtag_uart_ioctl.o)
 .debug_aranges
                0x00000420       0x20 ../MIDIGenerator_bsp/\libucosii_bsp.a(altera_avalon_jtag_uart_read.o)
 .debug_aranges
                0x00000440       0x20 ../MIDIGenerator_bsp/\libucosii_bsp.a(altera_avalon_jtag_uart_write.o)
 .debug_aranges
                0x00000460       0x20 ../MIDIGenerator_bsp/\libucosii_bsp.a(altera_avalon_timer_sc.o)
 .debug_aranges
                0x00000480       0x20 ../MIDIGenerator_bsp/\libucosii_bsp.a(altera_up_avalon_character_lcd.o)
 .debug_aranges
                0x000004a0       0x20 ../MIDIGenerator_bsp/\libucosii_bsp.a(alt_alarm_start.o)
 .debug_aranges
                0x000004c0       0x20 ../MIDIGenerator_bsp/\libucosii_bsp.a(alt_close.o)
 .debug_aranges
                0x000004e0       0x20 ../MIDIGenerator_bsp/\libucosii_bsp.a(alt_dcache_flush_all.o)
 .debug_aranges
                0x00000500       0x20 ../MIDIGenerator_bsp/\libucosii_bsp.a(alt_dev.o)
 .debug_aranges
                0x00000520       0x20 ../MIDIGenerator_bsp/\libucosii_bsp.a(alt_dev_llist_insert.o)
 .debug_aranges
                0x00000540       0x20 ../MIDIGenerator_bsp/\libucosii_bsp.a(alt_do_ctors.o)
 .debug_aranges
                0x00000560       0x20 ../MIDIGenerator_bsp/\libucosii_bsp.a(alt_do_dtors.o)
 .debug_aranges
                0x00000580       0x38 ../MIDIGenerator_bsp/\libucosii_bsp.a(alt_exception_entry.o)
 .debug_aranges
                0x000005b8       0x20 ../MIDIGenerator_bsp/\libucosii_bsp.a(alt_find_dev.o)
 .debug_aranges
                0x000005d8       0x20 ../MIDIGenerator_bsp/\libucosii_bsp.a(alt_icache_flush_all.o)
 .debug_aranges
                0x000005f8       0x20 ../MIDIGenerator_bsp/\libucosii_bsp.a(alt_io_redirect.o)
 .debug_aranges
                0x00000618       0x20 ../MIDIGenerator_bsp/\libucosii_bsp.a(alt_open.o)
 .debug_aranges
                0x00000638       0x20 ../MIDIGenerator_bsp/\libucosii_bsp.a(alt_release_fd.o)
 .debug_aranges
                0x00000658       0x20 ../MIDIGenerator_bsp/\libucosii_bsp.a(alt_tick.o)
 .debug_aranges
                0x00000678       0x20 ../MIDIGenerator_bsp/\libucosii_bsp.a(altera_nios2_qsys_irq.o)
 .debug_aranges
                0x00000698       0x20 ../MIDIGenerator_bsp/\libucosii_bsp.a(os_cpu_a.o)
 .debug_aranges
                0x000006b8       0x20 ../MIDIGenerator_bsp/\libucosii_bsp.a(os_cpu_c.o)
 .debug_aranges
                0x000006d8       0x20 ../MIDIGenerator_bsp/\libucosii_bsp.a(alt_find_file.o)
 .debug_aranges
                0x000006f8       0x20 ../MIDIGenerator_bsp/\libucosii_bsp.a(alt_get_fd.o)
 .debug_aranges
                0x00000718       0x20 c:/altera/12.1sp1/nios2eds/bin/gnu/h-i686-mingw32/bin/../lib/gcc/nios2-elf/4.1.2/../../../../nios2-elf/lib/mno-hw-mul\libc.a(lib_a-atexit.o)
 .debug_aranges
                0x00000738       0x20 c:/altera/12.1sp1/nios2eds/bin/gnu/h-i686-mingw32/bin/../lib/gcc/nios2-elf/4.1.2/../../../../nios2-elf/lib/mno-hw-mul\libc.a(lib_a-exit.o)
 .debug_aranges
                0x00000758       0x20 c:/altera/12.1sp1/nios2eds/bin/gnu/h-i686-mingw32/bin/../lib/gcc/nios2-elf/4.1.2/../../../../nios2-elf/lib/mno-hw-mul\libc.a(lib_a-memcmp.o)
 .debug_aranges
                0x00000778       0x20 c:/altera/12.1sp1/nios2eds/bin/gnu/h-i686-mingw32/bin/../lib/gcc/nios2-elf/4.1.2/../../../../nios2-elf/lib/mno-hw-mul\libc.a(lib_a-memcpy.o)
 .debug_aranges
                0x00000798       0x20 c:/altera/12.1sp1/nios2eds/bin/gnu/h-i686-mingw32/bin/../lib/gcc/nios2-elf/4.1.2/../../../../nios2-elf/lib/mno-hw-mul\libc.a(lib_a-memset.o)
 .debug_aranges
                0x000007b8       0x20 c:/altera/12.1sp1/nios2eds/bin/gnu/h-i686-mingw32/bin/../lib/gcc/nios2-elf/4.1.2/../../../../nios2-elf/lib/mno-hw-mul\libc.a(lib_a-putc.o)
 .debug_aranges
                0x000007d8       0x20 c:/altera/12.1sp1/nios2eds/bin/gnu/h-i686-mingw32/bin/../lib/gcc/nios2-elf/4.1.2/../../../../nios2-elf/lib/mno-hw-mul\libc.a(lib_a-strlen.o)
 .debug_aranges
                0x000007f8       0x20 c:/altera/12.1sp1/nios2eds/bin/gnu/h-i686-mingw32/bin/../lib/gcc/nios2-elf/4.1.2/../../../../nios2-elf/lib/mno-hw-mul\libc.a(lib_a-wbuf.o)
 .debug_aranges
                0x00000818       0x20 c:/altera/12.1sp1/nios2eds/bin/gnu/h-i686-mingw32/bin/../lib/gcc/nios2-elf/4.1.2/../../../../nios2-elf/lib/mno-hw-mul\libc.a(lib_a-wsetup.o)
 .debug_aranges
                0x00000838       0x20 c:/altera/12.1sp1/nios2eds/bin/gnu/h-i686-mingw32/bin/../lib/gcc/nios2-elf/4.1.2/../../../../nios2-elf/lib/mno-hw-mul\libc.a(lib_a-__atexit.o)
 .debug_aranges
                0x00000858       0x20 c:/altera/12.1sp1/nios2eds/bin/gnu/h-i686-mingw32/bin/../lib/gcc/nios2-elf/4.1.2/../../../../nios2-elf/lib/mno-hw-mul\libc.a(lib_a-__call_atexit.o)
 .debug_aranges
                0x00000878       0x20 c:/altera/12.1sp1/nios2eds/bin/gnu/h-i686-mingw32/bin/../lib/gcc/nios2-elf/4.1.2/../../../../nios2-elf/lib/mno-hw-mul\libc.a(lib_a-fflush.o)
 .debug_aranges
                0x00000898       0x20 c:/altera/12.1sp1/nios2eds/bin/gnu/h-i686-mingw32/bin/../lib/gcc/nios2-elf/4.1.2/../../../../nios2-elf/lib/mno-hw-mul\libc.a(lib_a-findfp.o)
 .debug_aranges
                0x000008b8       0x20 c:/altera/12.1sp1/nios2eds/bin/gnu/h-i686-mingw32/bin/../lib/gcc/nios2-elf/4.1.2/../../../../nios2-elf/lib/mno-hw-mul\libc.a(lib_a-freer.o)
 .debug_aranges
                0x000008d8       0x20 c:/altera/12.1sp1/nios2eds/bin/gnu/h-i686-mingw32/bin/../lib/gcc/nios2-elf/4.1.2/../../../../nios2-elf/lib/mno-hw-mul\libc.a(lib_a-fwalk.o)
 .debug_aranges
                0x000008f8       0x20 c:/altera/12.1sp1/nios2eds/bin/gnu/h-i686-mingw32/bin/../lib/gcc/nios2-elf/4.1.2/../../../../nios2-elf/lib/mno-hw-mul\libc.a(lib_a-makebuf.o)
 .debug_aranges
                0x00000918       0x20 c:/altera/12.1sp1/nios2eds/bin/gnu/h-i686-mingw32/bin/../lib/gcc/nios2-elf/4.1.2/../../../../nios2-elf/lib/mno-hw-mul\libc.a(lib_a-mallocr.o)
 .debug_aranges
                0x00000938       0x20 c:/altera/12.1sp1/nios2eds/bin/gnu/h-i686-mingw32/bin/../lib/gcc/nios2-elf/4.1.2/../../../../nios2-elf/lib/mno-hw-mul\libc.a(lib_a-sbrkr.o)
 .debug_aranges
                0x00000958       0x20 c:/altera/12.1sp1/nios2eds/bin/gnu/h-i686-mingw32/bin/../lib/gcc/nios2-elf/4.1.2/../../../../nios2-elf/lib/mno-hw-mul\libc.a(lib_a-stdio.o)
 .debug_aranges
                0x00000978       0x20 c:/altera/12.1sp1/nios2eds/bin/gnu/h-i686-mingw32/bin/../lib/gcc/nios2-elf/4.1.2/../../../../nios2-elf/lib/mno-hw-mul\libc.a(lib_a-writer.o)
 .debug_aranges
                0x00000998       0x20 c:/altera/12.1sp1/nios2eds/bin/gnu/h-i686-mingw32/bin/../lib/gcc/nios2-elf/4.1.2/../../../../nios2-elf/lib/mno-hw-mul\libc.a(lib_a-closer.o)
 .debug_aranges
                0x000009b8       0x20 c:/altera/12.1sp1/nios2eds/bin/gnu/h-i686-mingw32/bin/../lib/gcc/nios2-elf/4.1.2/../../../../nios2-elf/lib/mno-hw-mul\libc.a(lib_a-fclose.o)
 .debug_aranges
                0x000009d8       0x20 c:/altera/12.1sp1/nios2eds/bin/gnu/h-i686-mingw32/bin/../lib/gcc/nios2-elf/4.1.2/../../../../nios2-elf/lib/mno-hw-mul\libc.a(lib_a-fstatr.o)
 .debug_aranges
                0x000009f8       0x20 c:/altera/12.1sp1/nios2eds/bin/gnu/h-i686-mingw32/bin/../lib/gcc/nios2-elf/4.1.2/../../../../nios2-elf/lib/mno-hw-mul\libc.a(lib_a-isattyr.o)
 .debug_aranges
                0x00000a18       0x20 c:/altera/12.1sp1/nios2eds/bin/gnu/h-i686-mingw32/bin/../lib/gcc/nios2-elf/4.1.2/../../../../nios2-elf/lib/mno-hw-mul\libc.a(lib_a-lseekr.o)
 .debug_aranges
                0x00000a38       0x20 c:/altera/12.1sp1/nios2eds/bin/gnu/h-i686-mingw32/bin/../lib/gcc/nios2-elf/4.1.2/../../../../nios2-elf/lib/mno-hw-mul\libc.a(lib_a-readr.o)
 .debug_aranges
                0x00000a58       0x20 c:/altera/12.1sp1/nios2eds/bin/gnu/h-i686-mingw32/bin/../lib/gcc/nios2-elf/4.1.2/mno-hw-mul\libgcc.a(lib2-divmod.o)
 .debug_aranges
                0x00000a78       0x20 c:/altera/12.1sp1/nios2eds/bin/gnu/h-i686-mingw32/bin/../lib/gcc/nios2-elf/4.1.2/mno-hw-mul\libgcc.a(lib2-mul.o)
 .debug_aranges
                0x00000a98       0x20 ../MIDIGenerator_bsp/\libucosii_bsp.a(alt_exit.o)
 .debug_aranges
                0x00000ab8       0x20 ../MIDIGenerator_bsp/\libucosii_bsp.a(alt_fstat.o)
 .debug_aranges
                0x00000ad8       0x20 ../MIDIGenerator_bsp/\libucosii_bsp.a(alt_isatty.o)
 .debug_aranges
                0x00000af8       0x20 ../MIDIGenerator_bsp/\libucosii_bsp.a(alt_lseek.o)
 .debug_aranges
                0x00000b18       0x20 ../MIDIGenerator_bsp/\libucosii_bsp.a(alt_read.o)
 .debug_aranges
                0x00000b38       0x20 ../MIDIGenerator_bsp/\libucosii_bsp.a(alt_sbrk.o)
 .debug_aranges
                0x00000b58       0x20 ../MIDIGenerator_bsp/\libucosii_bsp.a(alt_write.o)

.debug_pubnames
                0x00000000     0x1dd9
 *(.debug_pubnames)
 .debug_pubnames
                0x00000000       0xa7 obj/default/midi_generator.o
 .debug_pubnames
                0x000000a7       0x2c c:/altera/12.1sp1/nios2eds/bin/gnu/h-i686-mingw32/bin/../lib/gcc/nios2-elf/4.1.2/mno-hw-mul\libgcc.a(_addsub_df.o)
 .debug_pubnames
                0x000000d3       0x22 c:/altera/12.1sp1/nios2eds/bin/gnu/h-i686-mingw32/bin/../lib/gcc/nios2-elf/4.1.2/mno-hw-mul\libgcc.a(_si_to_df.o)
 .debug_pubnames
                0x000000f5       0x20 c:/altera/12.1sp1/nios2eds/bin/gnu/h-i686-mingw32/bin/../lib/gcc/nios2-elf/4.1.2/mno-hw-mul\libgcc.a(_df_to_si.o)
 .debug_pubnames
                0x00000115       0x22 c:/altera/12.1sp1/nios2eds/bin/gnu/h-i686-mingw32/bin/../lib/gcc/nios2-elf/4.1.2/mno-hw-mul\libgcc.a(_thenan_df.o)
 .debug_pubnames
                0x00000137       0x1f c:/altera/12.1sp1/nios2eds/bin/gnu/h-i686-mingw32/bin/../lib/gcc/nios2-elf/4.1.2/mno-hw-mul\libgcc.a(_clzsi2.o)
 .debug_pubnames
                0x00000156       0x1f c:/altera/12.1sp1/nios2eds/bin/gnu/h-i686-mingw32/bin/../lib/gcc/nios2-elf/4.1.2/mno-hw-mul\libgcc.a(_pack_df.o)
 .debug_pubnames
                0x00000175       0x21 c:/altera/12.1sp1/nios2eds/bin/gnu/h-i686-mingw32/bin/../lib/gcc/nios2-elf/4.1.2/mno-hw-mul\libgcc.a(_unpack_df.o)
 .debug_pubnames
                0x00000196       0x20 c:/altera/12.1sp1/nios2eds/bin/gnu/h-i686-mingw32/bin/../lib/gcc/nios2-elf/4.1.2/mno-hw-mul\libgcc.a(_clz.o)
 .debug_pubnames
                0x000001b6       0x1d c:/altera/12.1sp1/nios2eds/bin/gnu/h-i686-mingw32/bin/../lib/gcc/nios2-elf/4.1.2/../../../../nios2-elf/lib/mno-hw-mul\libc.a(lib_a-strcat.o)
 .debug_pubnames
                0x000001d3       0x1d c:/altera/12.1sp1/nios2eds/bin/gnu/h-i686-mingw32/bin/../lib/gcc/nios2-elf/4.1.2/../../../../nios2-elf/lib/mno-hw-mul\libc.a(lib_a-strcpy.o)
 .debug_pubnames
                0x000001f0       0x6e ../MIDIGenerator_bsp/\libucosii_bsp.a(alt_iic.o)
 .debug_pubnames
                0x0000025e       0x2b ../MIDIGenerator_bsp/\libucosii_bsp.a(alt_iic_isr_register.o)
 .debug_pubnames
                0x00000289       0x32 ../MIDIGenerator_bsp/\libucosii_bsp.a(alt_irq_handler.o)
 .debug_pubnames
                0x000002bb       0x3b ../MIDIGenerator_bsp/\libucosii_bsp.a(alt_irq_vars.o)
 .debug_pubnames
                0x000002f6       0x1f ../MIDIGenerator_bsp/\libucosii_bsp.a(alt_load.o)
 .debug_pubnames
                0x00000315       0x46 ../MIDIGenerator_bsp/\libucosii_bsp.a(alt_main.o)
 .debug_pubnames
                0x0000035b       0x21 ../MIDIGenerator_bsp/\libucosii_bsp.a(alt_printf.o)
 .debug_pubnames
                0x0000037c       0x22 ../MIDIGenerator_bsp/\libucosii_bsp.a(alt_putchar.o)
 .debug_pubnames
                0x0000039e       0x41 ../MIDIGenerator_bsp/\libucosii_bsp.a(alt_env_lock.o)
 .debug_pubnames
                0x000003df       0x48 ../MIDIGenerator_bsp/\libucosii_bsp.a(alt_malloc_lock.o)
 .debug_pubnames
                0x00000427      0x3f8 ../MIDIGenerator_bsp/\libucosii_bsp.a(os_core.o)
 .debug_pubnames
                0x0000081f      0x3c5 ../MIDIGenerator_bsp/\libucosii_bsp.a(os_dbg.o)
 .debug_pubnames
                0x00000be4       0xd0 ../MIDIGenerator_bsp/\libucosii_bsp.a(os_flag.o)
 .debug_pubnames
                0x00000cb4       0x7c ../MIDIGenerator_bsp/\libucosii_bsp.a(os_mem.o)
 .debug_pubnames
                0x00000d30       0xa9 ../MIDIGenerator_bsp/\libucosii_bsp.a(os_q.o)
 .debug_pubnames
                0x00000dd9       0x8a ../MIDIGenerator_bsp/\libucosii_bsp.a(os_sem.o)
 .debug_pubnames
                0x00000e63       0xe5 ../MIDIGenerator_bsp/\libucosii_bsp.a(os_task.o)
 .debug_pubnames
                0x00000f48       0x62 ../MIDIGenerator_bsp/\libucosii_bsp.a(os_time.o)
 .debug_pubnames
                0x00000faa       0x34 ../MIDIGenerator_bsp/\libucosii_bsp.a(alt_sys_init.o)
 .debug_pubnames
                0x00000fde       0xa5 ../MIDIGenerator_bsp/\libucosii_bsp.a(altera_avalon_jtag_uart_fd.o)
 .debug_pubnames
                0x00001083       0x55 ../MIDIGenerator_bsp/\libucosii_bsp.a(altera_avalon_jtag_uart_init.o)
 .debug_pubnames
                0x000010d8       0x34 ../MIDIGenerator_bsp/\libucosii_bsp.a(altera_avalon_jtag_uart_ioctl.o)
 .debug_pubnames
                0x0000110c       0x33 ../MIDIGenerator_bsp/\libucosii_bsp.a(altera_avalon_jtag_uart_read.o)
 .debug_pubnames
                0x0000113f       0x34 ../MIDIGenerator_bsp/\libucosii_bsp.a(altera_avalon_jtag_uart_write.o)
 .debug_pubnames
                0x00001173       0x2f ../MIDIGenerator_bsp/\libucosii_bsp.a(altera_avalon_timer_sc.o)
 .debug_pubnames
                0x000011a2      0x1cd ../MIDIGenerator_bsp/\libucosii_bsp.a(altera_up_avalon_character_lcd.o)
 .debug_pubnames
                0x0000136f       0x26 ../MIDIGenerator_bsp/\libucosii_bsp.a(alt_alarm_start.o)
 .debug_pubnames
                0x00001395       0x1c ../MIDIGenerator_bsp/\libucosii_bsp.a(alt_close.o)
 .debug_pubnames
                0x000013b1       0x2b ../MIDIGenerator_bsp/\libucosii_bsp.a(alt_dcache_flush_all.o)
 .debug_pubnames
                0x000013dc       0x78 ../MIDIGenerator_bsp/\libucosii_bsp.a(alt_dev.o)
 .debug_pubnames
                0x00001454       0x2b ../MIDIGenerator_bsp/\libucosii_bsp.a(alt_dev_llist_insert.o)
 .debug_pubnames
                0x0000147f       0x20 ../MIDIGenerator_bsp/\libucosii_bsp.a(alt_do_ctors.o)
 .debug_pubnames
                0x0000149f       0x20 ../MIDIGenerator_bsp/\libucosii_bsp.a(alt_do_dtors.o)
 .debug_pubnames
                0x000014bf       0x20 ../MIDIGenerator_bsp/\libucosii_bsp.a(alt_errno.o)
 .debug_pubnames
                0x000014df       0x23 ../MIDIGenerator_bsp/\libucosii_bsp.a(alt_find_dev.o)
 .debug_pubnames
                0x00001502       0x2b ../MIDIGenerator_bsp/\libucosii_bsp.a(alt_icache_flush_all.o)
 .debug_pubnames
                0x0000152d       0x26 ../MIDIGenerator_bsp/\libucosii_bsp.a(alt_io_redirect.o)
 .debug_pubnames
                0x00001553       0x1b ../MIDIGenerator_bsp/\libucosii_bsp.a(alt_open.o)
 .debug_pubnames
                0x0000156e       0x25 ../MIDIGenerator_bsp/\libucosii_bsp.a(alt_release_fd.o)
 .debug_pubnames
                0x00001593       0x68 ../MIDIGenerator_bsp/\libucosii_bsp.a(alt_tick.o)
 .debug_pubnames
                0x000015fb       0x31 ../MIDIGenerator_bsp/\libucosii_bsp.a(altera_nios2_qsys_irq.o)
 .debug_pubnames
                0x0000162c       0xcd ../MIDIGenerator_bsp/\libucosii_bsp.a(os_cpu_c.o)
 .debug_pubnames
                0x000016f9       0x24 ../MIDIGenerator_bsp/\libucosii_bsp.a(alt_find_file.o)
 .debug_pubnames
                0x0000171d       0x21 ../MIDIGenerator_bsp/\libucosii_bsp.a(alt_get_fd.o)
 .debug_pubnames
                0x0000173e       0x2a c:/altera/12.1sp1/nios2eds/bin/gnu/h-i686-mingw32/bin/../lib/gcc/nios2-elf/4.1.2/../../../../nios2-elf/lib/mno-hw-mul\libc.a(lib_a-atexit.o)
 .debug_pubnames
                0x00001768       0x1b c:/altera/12.1sp1/nios2eds/bin/gnu/h-i686-mingw32/bin/../lib/gcc/nios2-elf/4.1.2/../../../../nios2-elf/lib/mno-hw-mul\libc.a(lib_a-exit.o)
 .debug_pubnames
                0x00001783       0x39 c:/altera/12.1sp1/nios2eds/bin/gnu/h-i686-mingw32/bin/../lib/gcc/nios2-elf/4.1.2/../../../../nios2-elf/lib/mno-hw-mul\libc.a(lib_a-impure.o)
 .debug_pubnames
                0x000017bc       0x1c c:/altera/12.1sp1/nios2eds/bin/gnu/h-i686-mingw32/bin/../lib/gcc/nios2-elf/4.1.2/../../../../nios2-elf/lib/mno-hw-mul\libc.a(lib_a-int_errno.o)
 .debug_pubnames
                0x000017d8       0x1d c:/altera/12.1sp1/nios2eds/bin/gnu/h-i686-mingw32/bin/../lib/gcc/nios2-elf/4.1.2/../../../../nios2-elf/lib/mno-hw-mul\libc.a(lib_a-memcmp.o)
 .debug_pubnames
                0x000017f5       0x1d c:/altera/12.1sp1/nios2eds/bin/gnu/h-i686-mingw32/bin/../lib/gcc/nios2-elf/4.1.2/../../../../nios2-elf/lib/mno-hw-mul\libc.a(lib_a-memcpy.o)
 .debug_pubnames
                0x00001812       0x1d c:/altera/12.1sp1/nios2eds/bin/gnu/h-i686-mingw32/bin/../lib/gcc/nios2-elf/4.1.2/../../../../nios2-elf/lib/mno-hw-mul\libc.a(lib_a-memset.o)
 .debug_pubnames
                0x0000182f       0x27 c:/altera/12.1sp1/nios2eds/bin/gnu/h-i686-mingw32/bin/../lib/gcc/nios2-elf/4.1.2/../../../../nios2-elf/lib/mno-hw-mul\libc.a(lib_a-putc.o)
 .debug_pubnames
                0x00001856       0x1d c:/altera/12.1sp1/nios2eds/bin/gnu/h-i686-mingw32/bin/../lib/gcc/nios2-elf/4.1.2/../../../../nios2-elf/lib/mno-hw-mul\libc.a(lib_a-strlen.o)
 .debug_pubnames
                0x00001873       0x2c c:/altera/12.1sp1/nios2eds/bin/gnu/h-i686-mingw32/bin/../lib/gcc/nios2-elf/4.1.2/../../../../nios2-elf/lib/mno-hw-mul\libc.a(lib_a-wbuf.o)
 .debug_pubnames
                0x0000189f       0x22 c:/altera/12.1sp1/nios2eds/bin/gnu/h-i686-mingw32/bin/../lib/gcc/nios2-elf/4.1.2/../../../../nios2-elf/lib/mno-hw-mul\libc.a(lib_a-wsetup.o)
 .debug_pubnames
                0x000018c1       0x2a c:/altera/12.1sp1/nios2eds/bin/gnu/h-i686-mingw32/bin/../lib/gcc/nios2-elf/4.1.2/../../../../nios2-elf/lib/mno-hw-mul\libc.a(lib_a-__atexit.o)
 .debug_pubnames
                0x000018eb       0x27 c:/altera/12.1sp1/nios2eds/bin/gnu/h-i686-mingw32/bin/../lib/gcc/nios2-elf/4.1.2/../../../../nios2-elf/lib/mno-hw-mul\libc.a(lib_a-__call_atexit.o)
 .debug_pubnames
                0x00001912       0x2b c:/altera/12.1sp1/nios2eds/bin/gnu/h-i686-mingw32/bin/../lib/gcc/nios2-elf/4.1.2/../../../../nios2-elf/lib/mno-hw-mul\libc.a(lib_a-fflush.o)
 .debug_pubnames
                0x0000193d       0xdb c:/altera/12.1sp1/nios2eds/bin/gnu/h-i686-mingw32/bin/../lib/gcc/nios2-elf/4.1.2/../../../../nios2-elf/lib/mno-hw-mul\libc.a(lib_a-findfp.o)
 .debug_pubnames
                0x00001a18       0x31 c:/altera/12.1sp1/nios2eds/bin/gnu/h-i686-mingw32/bin/../lib/gcc/nios2-elf/4.1.2/../../../../nios2-elf/lib/mno-hw-mul\libc.a(lib_a-freer.o)
 .debug_pubnames
                0x00001a49       0x2e c:/altera/12.1sp1/nios2eds/bin/gnu/h-i686-mingw32/bin/../lib/gcc/nios2-elf/4.1.2/../../../../nios2-elf/lib/mno-hw-mul\libc.a(lib_a-fwalk.o)
 .debug_pubnames
                0x00001a77       0x23 c:/altera/12.1sp1/nios2eds/bin/gnu/h-i686-mingw32/bin/../lib/gcc/nios2-elf/4.1.2/../../../../nios2-elf/lib/mno-hw-mul\libc.a(lib_a-makebuf.o)
 .debug_pubnames
                0x00001a9a       0xce c:/altera/12.1sp1/nios2eds/bin/gnu/h-i686-mingw32/bin/../lib/gcc/nios2-elf/4.1.2/../../../../nios2-elf/lib/mno-hw-mul\libc.a(lib_a-mallocr.o)
 .debug_pubnames
                0x00001b68       0x1e c:/altera/12.1sp1/nios2eds/bin/gnu/h-i686-mingw32/bin/../lib/gcc/nios2-elf/4.1.2/../../../../nios2-elf/lib/mno-hw-mul\libc.a(lib_a-sbrkr.o)
 .debug_pubnames
                0x00001b86       0x44 c:/altera/12.1sp1/nios2eds/bin/gnu/h-i686-mingw32/bin/../lib/gcc/nios2-elf/4.1.2/../../../../nios2-elf/lib/mno-hw-mul\libc.a(lib_a-stdio.o)
 .debug_pubnames
                0x00001bca       0x1f c:/altera/12.1sp1/nios2eds/bin/gnu/h-i686-mingw32/bin/../lib/gcc/nios2-elf/4.1.2/../../../../nios2-elf/lib/mno-hw-mul\libc.a(lib_a-writer.o)
 .debug_pubnames
                0x00001be9       0x1f c:/altera/12.1sp1/nios2eds/bin/gnu/h-i686-mingw32/bin/../lib/gcc/nios2-elf/4.1.2/../../../../nios2-elf/lib/mno-hw-mul\libc.a(lib_a-closer.o)
 .debug_pubnames
                0x00001c08       0x2b c:/altera/12.1sp1/nios2eds/bin/gnu/h-i686-mingw32/bin/../lib/gcc/nios2-elf/4.1.2/../../../../nios2-elf/lib/mno-hw-mul\libc.a(lib_a-fclose.o)
 .debug_pubnames
                0x00001c33       0x1f c:/altera/12.1sp1/nios2eds/bin/gnu/h-i686-mingw32/bin/../lib/gcc/nios2-elf/4.1.2/../../../../nios2-elf/lib/mno-hw-mul\libc.a(lib_a-fstatr.o)
 .debug_pubnames
                0x00001c52       0x20 c:/altera/12.1sp1/nios2eds/bin/gnu/h-i686-mingw32/bin/../lib/gcc/nios2-elf/4.1.2/../../../../nios2-elf/lib/mno-hw-mul\libc.a(lib_a-isattyr.o)
 .debug_pubnames
                0x00001c72       0x1f c:/altera/12.1sp1/nios2eds/bin/gnu/h-i686-mingw32/bin/../lib/gcc/nios2-elf/4.1.2/../../../../nios2-elf/lib/mno-hw-mul\libc.a(lib_a-lseekr.o)
 .debug_pubnames
                0x00001c91       0x1e c:/altera/12.1sp1/nios2eds/bin/gnu/h-i686-mingw32/bin/../lib/gcc/nios2-elf/4.1.2/../../../../nios2-elf/lib/mno-hw-mul\libc.a(lib_a-readr.o)
 .debug_pubnames
                0x00001caf       0x48 c:/altera/12.1sp1/nios2eds/bin/gnu/h-i686-mingw32/bin/../lib/gcc/nios2-elf/4.1.2/mno-hw-mul\libgcc.a(lib2-divmod.o)
 .debug_pubnames
                0x00001cf7       0x1f c:/altera/12.1sp1/nios2eds/bin/gnu/h-i686-mingw32/bin/../lib/gcc/nios2-elf/4.1.2/mno-hw-mul\libgcc.a(lib2-mul.o)
 .debug_pubnames
                0x00001d16       0x1c ../MIDIGenerator_bsp/\libucosii_bsp.a(alt_exit.o)
 .debug_pubnames
                0x00001d32       0x1c ../MIDIGenerator_bsp/\libucosii_bsp.a(alt_fstat.o)
 .debug_pubnames
                0x00001d4e       0x1d ../MIDIGenerator_bsp/\libucosii_bsp.a(alt_isatty.o)
 .debug_pubnames
                0x00001d6b       0x1c ../MIDIGenerator_bsp/\libucosii_bsp.a(alt_lseek.o)
 .debug_pubnames
                0x00001d87       0x1b ../MIDIGenerator_bsp/\libucosii_bsp.a(alt_read.o)
 .debug_pubnames
                0x00001da2       0x1b ../MIDIGenerator_bsp/\libucosii_bsp.a(alt_sbrk.o)
 .debug_pubnames
                0x00001dbd       0x1c ../MIDIGenerator_bsp/\libucosii_bsp.a(alt_write.o)

.debug_info     0x00000000    0x28544
 *(.debug_info .gnu.linkonce.wi.*)
 .debug_info    0x00000000       0x85 ../MIDIGenerator_bsp//obj/HAL/src/crt0.o
 .debug_info    0x00000085      0x862 obj/default/midi_generator.o
 .debug_info    0x000008e7      0x493 c:/altera/12.1sp1/nios2eds/bin/gnu/h-i686-mingw32/bin/../lib/gcc/nios2-elf/4.1.2/mno-hw-mul\libgcc.a(_addsub_df.o)
 .debug_info    0x00000d7a      0x218 c:/altera/12.1sp1/nios2eds/bin/gnu/h-i686-mingw32/bin/../lib/gcc/nios2-elf/4.1.2/mno-hw-mul\libgcc.a(_si_to_df.o)
 .debug_info    0x00000f92      0x2cd c:/altera/12.1sp1/nios2eds/bin/gnu/h-i686-mingw32/bin/../lib/gcc/nios2-elf/4.1.2/mno-hw-mul\libgcc.a(_df_to_si.o)
 .debug_info    0x0000125f      0x164 c:/altera/12.1sp1/nios2eds/bin/gnu/h-i686-mingw32/bin/../lib/gcc/nios2-elf/4.1.2/mno-hw-mul\libgcc.a(_thenan_df.o)
 .debug_info    0x000013c3      0x130 c:/altera/12.1sp1/nios2eds/bin/gnu/h-i686-mingw32/bin/../lib/gcc/nios2-elf/4.1.2/mno-hw-mul\libgcc.a(_clzsi2.o)
 .debug_info    0x000014f3      0x2fc c:/altera/12.1sp1/nios2eds/bin/gnu/h-i686-mingw32/bin/../lib/gcc/nios2-elf/4.1.2/mno-hw-mul\libgcc.a(_pack_df.o)
 .debug_info    0x000017ef      0x268 c:/altera/12.1sp1/nios2eds/bin/gnu/h-i686-mingw32/bin/../lib/gcc/nios2-elf/4.1.2/mno-hw-mul\libgcc.a(_unpack_df.o)
 .debug_info    0x00001a57       0xc9 c:/altera/12.1sp1/nios2eds/bin/gnu/h-i686-mingw32/bin/../lib/gcc/nios2-elf/4.1.2/mno-hw-mul\libgcc.a(_clz.o)
 .debug_info    0x00001b20       0xed c:/altera/12.1sp1/nios2eds/bin/gnu/h-i686-mingw32/bin/../lib/gcc/nios2-elf/4.1.2/../../../../nios2-elf/lib/mno-hw-mul\libc.a(lib_a-strcat.o)
 .debug_info    0x00001c0d      0x110 c:/altera/12.1sp1/nios2eds/bin/gnu/h-i686-mingw32/bin/../lib/gcc/nios2-elf/4.1.2/../../../../nios2-elf/lib/mno-hw-mul\libc.a(lib_a-strcpy.o)
 .debug_info    0x00001d1d      0x49d ../MIDIGenerator_bsp/\libucosii_bsp.a(alt_iic.o)
 .debug_info    0x000021ba      0x31e ../MIDIGenerator_bsp/\libucosii_bsp.a(alt_iic_isr_register.o)
 .debug_info    0x000024d8       0x8e ../MIDIGenerator_bsp/\libucosii_bsp.a(alt_irq_entry.o)
 .debug_info    0x00002566      0x2c4 ../MIDIGenerator_bsp/\libucosii_bsp.a(alt_irq_handler.o)
 .debug_info    0x0000282a      0x171 ../MIDIGenerator_bsp/\libucosii_bsp.a(alt_irq_vars.o)
 .debug_info    0x0000299b      0x297 ../MIDIGenerator_bsp/\libucosii_bsp.a(alt_load.o)
 .debug_info    0x00002c32      0x3e7 ../MIDIGenerator_bsp/\libucosii_bsp.a(alt_main.o)
 .debug_info    0x00003019      0x1b2 ../MIDIGenerator_bsp/\libucosii_bsp.a(alt_printf.o)
 .debug_info    0x000031cb      0xc06 ../MIDIGenerator_bsp/\libucosii_bsp.a(alt_putchar.o)
 .debug_info    0x00003dd1     0x11dd ../MIDIGenerator_bsp/\libucosii_bsp.a(alt_env_lock.o)
 .debug_info    0x00004fae     0x1339 ../MIDIGenerator_bsp/\libucosii_bsp.a(alt_malloc_lock.o)
 .debug_info    0x000062e7     0x1bf3 ../MIDIGenerator_bsp/\libucosii_bsp.a(os_core.o)
 .debug_info    0x00007eda     0x1138 ../MIDIGenerator_bsp/\libucosii_bsp.a(os_dbg.o)
 .debug_info    0x00009012     0x124e ../MIDIGenerator_bsp/\libucosii_bsp.a(os_flag.o)
 .debug_info    0x0000a260      0x818 ../MIDIGenerator_bsp/\libucosii_bsp.a(os_mem.o)
 .debug_info    0x0000aa78     0x1088 ../MIDIGenerator_bsp/\libucosii_bsp.a(os_q.o)
 .debug_info    0x0000bb00      0xcf0 ../MIDIGenerator_bsp/\libucosii_bsp.a(os_sem.o)
 .debug_info    0x0000c7f0     0x1366 ../MIDIGenerator_bsp/\libucosii_bsp.a(os_task.o)
 .debug_info    0x0000db56      0x9ea ../MIDIGenerator_bsp/\libucosii_bsp.a(os_time.o)
 .debug_info    0x0000e540      0x977 ../MIDIGenerator_bsp/\libucosii_bsp.a(alt_sys_init.o)
 .debug_info    0x0000eeb7      0x9dc ../MIDIGenerator_bsp/\libucosii_bsp.a(altera_avalon_jtag_uart_fd.o)
 .debug_info    0x0000f893      0x95a ../MIDIGenerator_bsp/\libucosii_bsp.a(altera_avalon_jtag_uart_init.o)
 .debug_info    0x000101ed      0x646 ../MIDIGenerator_bsp/\libucosii_bsp.a(altera_avalon_jtag_uart_ioctl.o)
 .debug_info    0x00010833      0x802 ../MIDIGenerator_bsp/\libucosii_bsp.a(altera_avalon_jtag_uart_read.o)
 .debug_info    0x00011035      0x7f9 ../MIDIGenerator_bsp/\libucosii_bsp.a(altera_avalon_jtag_uart_write.o)
 .debug_info    0x0001182e      0x395 ../MIDIGenerator_bsp/\libucosii_bsp.a(altera_avalon_timer_sc.o)
 .debug_info    0x00011bc3      0x906 ../MIDIGenerator_bsp/\libucosii_bsp.a(altera_up_avalon_character_lcd.o)
 .debug_info    0x000124c9      0x44c ../MIDIGenerator_bsp/\libucosii_bsp.a(alt_alarm_start.o)
 .debug_info    0x00012915      0x4c5 ../MIDIGenerator_bsp/\libucosii_bsp.a(alt_close.o)
 .debug_info    0x00012dda      0x166 ../MIDIGenerator_bsp/\libucosii_bsp.a(alt_dcache_flush_all.o)
 .debug_info    0x00012f40      0x7e7 ../MIDIGenerator_bsp/\libucosii_bsp.a(alt_dev.o)
 .debug_info    0x00013727      0x2c1 ../MIDIGenerator_bsp/\libucosii_bsp.a(alt_dev_llist_insert.o)
 .debug_info    0x000139e8      0x119 ../MIDIGenerator_bsp/\libucosii_bsp.a(alt_do_ctors.o)
 .debug_info    0x00013b01      0x118 ../MIDIGenerator_bsp/\libucosii_bsp.a(alt_do_dtors.o)
 .debug_info    0x00013c19      0x16e ../MIDIGenerator_bsp/\libucosii_bsp.a(alt_errno.o)
 .debug_info    0x00013d87       0x94 ../MIDIGenerator_bsp/\libucosii_bsp.a(alt_exception_entry.o)
 .debug_info    0x00013e1b      0x476 ../MIDIGenerator_bsp/\libucosii_bsp.a(alt_find_dev.o)
 .debug_info    0x00014291      0x166 ../MIDIGenerator_bsp/\libucosii_bsp.a(alt_icache_flush_all.o)
 .debug_info    0x000143f7      0x6f3 ../MIDIGenerator_bsp/\libucosii_bsp.a(alt_io_redirect.o)
 .debug_info    0x00014aea      0x574 ../MIDIGenerator_bsp/\libucosii_bsp.a(alt_open.o)
 .debug_info    0x0001505e      0x459 ../MIDIGenerator_bsp/\libucosii_bsp.a(alt_release_fd.o)
 .debug_info    0x000154b7      0x41b ../MIDIGenerator_bsp/\libucosii_bsp.a(alt_tick.o)
 .debug_info    0x000158d2      0x16d ../MIDIGenerator_bsp/\libucosii_bsp.a(altera_nios2_qsys_irq.o)
 .debug_info    0x00015a3f       0x8d ../MIDIGenerator_bsp/\libucosii_bsp.a(os_cpu_a.o)
 .debug_info    0x00015acc     0x12dd ../MIDIGenerator_bsp/\libucosii_bsp.a(os_cpu_c.o)
 .debug_info    0x00016da9      0x47d ../MIDIGenerator_bsp/\libucosii_bsp.a(alt_find_file.o)
 .debug_info    0x00017226      0x60f ../MIDIGenerator_bsp/\libucosii_bsp.a(alt_get_fd.o)
 .debug_info    0x00017835      0x181 c:/altera/12.1sp1/nios2eds/bin/gnu/h-i686-mingw32/bin/../lib/gcc/nios2-elf/4.1.2/../../../../nios2-elf/lib/mno-hw-mul\libc.a(lib_a-atexit.o)
 .debug_info    0x000179b6      0x93f c:/altera/12.1sp1/nios2eds/bin/gnu/h-i686-mingw32/bin/../lib/gcc/nios2-elf/4.1.2/../../../../nios2-elf/lib/mno-hw-mul\libc.a(lib_a-exit.o)
 .debug_info    0x000182f5      0x93d c:/altera/12.1sp1/nios2eds/bin/gnu/h-i686-mingw32/bin/../lib/gcc/nios2-elf/4.1.2/../../../../nios2-elf/lib/mno-hw-mul\libc.a(lib_a-impure.o)
 .debug_info    0x00018c32       0x8c c:/altera/12.1sp1/nios2eds/bin/gnu/h-i686-mingw32/bin/../lib/gcc/nios2-elf/4.1.2/../../../../nios2-elf/lib/mno-hw-mul\libc.a(lib_a-int_errno.o)
 .debug_info    0x00018cbe      0x115 c:/altera/12.1sp1/nios2eds/bin/gnu/h-i686-mingw32/bin/../lib/gcc/nios2-elf/4.1.2/../../../../nios2-elf/lib/mno-hw-mul\libc.a(lib_a-memcmp.o)
 .debug_info    0x00018dd3      0x106 c:/altera/12.1sp1/nios2eds/bin/gnu/h-i686-mingw32/bin/../lib/gcc/nios2-elf/4.1.2/../../../../nios2-elf/lib/mno-hw-mul\libc.a(lib_a-memcpy.o)
 .debug_info    0x00018ed9      0x113 c:/altera/12.1sp1/nios2eds/bin/gnu/h-i686-mingw32/bin/../lib/gcc/nios2-elf/4.1.2/../../../../nios2-elf/lib/mno-hw-mul\libc.a(lib_a-memset.o)
 .debug_info    0x00018fec      0x9c1 c:/altera/12.1sp1/nios2eds/bin/gnu/h-i686-mingw32/bin/../lib/gcc/nios2-elf/4.1.2/../../../../nios2-elf/lib/mno-hw-mul\libc.a(lib_a-putc.o)
 .debug_info    0x000199ad       0xdb c:/altera/12.1sp1/nios2eds/bin/gnu/h-i686-mingw32/bin/../lib/gcc/nios2-elf/4.1.2/../../../../nios2-elf/lib/mno-hw-mul\libc.a(lib_a-strlen.o)
 .debug_info    0x00019a88      0x9ae c:/altera/12.1sp1/nios2eds/bin/gnu/h-i686-mingw32/bin/../lib/gcc/nios2-elf/4.1.2/../../../../nios2-elf/lib/mno-hw-mul\libc.a(lib_a-wbuf.o)
 .debug_info    0x0001a436      0x95d c:/altera/12.1sp1/nios2eds/bin/gnu/h-i686-mingw32/bin/../lib/gcc/nios2-elf/4.1.2/../../../../nios2-elf/lib/mno-hw-mul\libc.a(lib_a-wsetup.o)
 .debug_info    0x0001ad93      0x99c c:/altera/12.1sp1/nios2eds/bin/gnu/h-i686-mingw32/bin/../lib/gcc/nios2-elf/4.1.2/../../../../nios2-elf/lib/mno-hw-mul\libc.a(lib_a-__atexit.o)
 .debug_info    0x0001b72f      0x9e2 c:/altera/12.1sp1/nios2eds/bin/gnu/h-i686-mingw32/bin/../lib/gcc/nios2-elf/4.1.2/../../../../nios2-elf/lib/mno-hw-mul\libc.a(lib_a-__call_atexit.o)
 .debug_info    0x0001c111      0x9fe c:/altera/12.1sp1/nios2eds/bin/gnu/h-i686-mingw32/bin/../lib/gcc/nios2-elf/4.1.2/../../../../nios2-elf/lib/mno-hw-mul\libc.a(lib_a-fflush.o)
 .debug_info    0x0001cb0f      0xb72 c:/altera/12.1sp1/nios2eds/bin/gnu/h-i686-mingw32/bin/../lib/gcc/nios2-elf/4.1.2/../../../../nios2-elf/lib/mno-hw-mul\libc.a(lib_a-findfp.o)
 .debug_info    0x0001d681      0xbc9 c:/altera/12.1sp1/nios2eds/bin/gnu/h-i686-mingw32/bin/../lib/gcc/nios2-elf/4.1.2/../../../../nios2-elf/lib/mno-hw-mul\libc.a(lib_a-freer.o)
 .debug_info    0x0001e24a      0xaed c:/altera/12.1sp1/nios2eds/bin/gnu/h-i686-mingw32/bin/../lib/gcc/nios2-elf/4.1.2/../../../../nios2-elf/lib/mno-hw-mul\libc.a(lib_a-fwalk.o)
 .debug_info    0x0001ed37      0xb1a c:/altera/12.1sp1/nios2eds/bin/gnu/h-i686-mingw32/bin/../lib/gcc/nios2-elf/4.1.2/../../../../nios2-elf/lib/mno-hw-mul\libc.a(lib_a-makebuf.o)
 .debug_info    0x0001f851      0xcd0 c:/altera/12.1sp1/nios2eds/bin/gnu/h-i686-mingw32/bin/../lib/gcc/nios2-elf/4.1.2/../../../../nios2-elf/lib/mno-hw-mul\libc.a(lib_a-mallocr.o)
 .debug_info    0x00020521      0x962 c:/altera/12.1sp1/nios2eds/bin/gnu/h-i686-mingw32/bin/../lib/gcc/nios2-elf/4.1.2/../../../../nios2-elf/lib/mno-hw-mul\libc.a(lib_a-sbrkr.o)
 .debug_info    0x00020e83      0xaac c:/altera/12.1sp1/nios2eds/bin/gnu/h-i686-mingw32/bin/../lib/gcc/nios2-elf/4.1.2/../../../../nios2-elf/lib/mno-hw-mul\libc.a(lib_a-stdio.o)
 .debug_info    0x0002192f      0x993 c:/altera/12.1sp1/nios2eds/bin/gnu/h-i686-mingw32/bin/../lib/gcc/nios2-elf/4.1.2/../../../../nios2-elf/lib/mno-hw-mul\libc.a(lib_a-writer.o)
 .debug_info    0x000222c2      0x958 c:/altera/12.1sp1/nios2eds/bin/gnu/h-i686-mingw32/bin/../lib/gcc/nios2-elf/4.1.2/../../../../nios2-elf/lib/mno-hw-mul\libc.a(lib_a-closer.o)
 .debug_info    0x00022c1a      0x994 c:/altera/12.1sp1/nios2eds/bin/gnu/h-i686-mingw32/bin/../lib/gcc/nios2-elf/4.1.2/../../../../nios2-elf/lib/mno-hw-mul\libc.a(lib_a-fclose.o)
 .debug_info    0x000235ae      0xafc c:/altera/12.1sp1/nios2eds/bin/gnu/h-i686-mingw32/bin/../lib/gcc/nios2-elf/4.1.2/../../../../nios2-elf/lib/mno-hw-mul\libc.a(lib_a-fstatr.o)
 .debug_info    0x000240aa      0x958 c:/altera/12.1sp1/nios2eds/bin/gnu/h-i686-mingw32/bin/../lib/gcc/nios2-elf/4.1.2/../../../../nios2-elf/lib/mno-hw-mul\libc.a(lib_a-isattyr.o)
 .debug_info    0x00024a02      0x981 c:/altera/12.1sp1/nios2eds/bin/gnu/h-i686-mingw32/bin/../lib/gcc/nios2-elf/4.1.2/../../../../nios2-elf/lib/mno-hw-mul\libc.a(lib_a-lseekr.o)
 .debug_info    0x00025383      0x98c c:/altera/12.1sp1/nios2eds/bin/gnu/h-i686-mingw32/bin/../lib/gcc/nios2-elf/4.1.2/../../../../nios2-elf/lib/mno-hw-mul\libc.a(lib_a-readr.o)
 .debug_info    0x00025d0f      0x21c c:/altera/12.1sp1/nios2eds/bin/gnu/h-i686-mingw32/bin/../lib/gcc/nios2-elf/4.1.2/mno-hw-mul\libgcc.a(lib2-divmod.o)
 .debug_info    0x00025f2b       0xf3 c:/altera/12.1sp1/nios2eds/bin/gnu/h-i686-mingw32/bin/../lib/gcc/nios2-elf/4.1.2/mno-hw-mul\libgcc.a(lib2-mul.o)
 .debug_info    0x0002601e      0x212 ../MIDIGenerator_bsp/\libucosii_bsp.a(alt_exit.o)
 .debug_info    0x00026230      0x6be ../MIDIGenerator_bsp/\libucosii_bsp.a(alt_fstat.o)
 .debug_info    0x000268ee      0x6c4 ../MIDIGenerator_bsp/\libucosii_bsp.a(alt_isatty.o)
 .debug_info    0x00026fb2      0x4f8 ../MIDIGenerator_bsp/\libucosii_bsp.a(alt_lseek.o)
 .debug_info    0x000274aa      0x6e8 ../MIDIGenerator_bsp/\libucosii_bsp.a(alt_read.o)
 .debug_info    0x00027b92      0x2c1 ../MIDIGenerator_bsp/\libucosii_bsp.a(alt_sbrk.o)
 .debug_info    0x00027e53      0x6f1 ../MIDIGenerator_bsp/\libucosii_bsp.a(alt_write.o)

.debug_abbrev   0x00000000     0x73fc
 *(.debug_abbrev)
 .debug_abbrev  0x00000000       0x12 ../MIDIGenerator_bsp//obj/HAL/src/crt0.o
 .debug_abbrev  0x00000012      0x1aa obj/default/midi_generator.o
 .debug_abbrev  0x000001bc      0x1d2 c:/altera/12.1sp1/nios2eds/bin/gnu/h-i686-mingw32/bin/../lib/gcc/nios2-elf/4.1.2/mno-hw-mul\libgcc.a(_addsub_df.o)
 .debug_abbrev  0x0000038e      0x13f c:/altera/12.1sp1/nios2eds/bin/gnu/h-i686-mingw32/bin/../lib/gcc/nios2-elf/4.1.2/mno-hw-mul\libgcc.a(_si_to_df.o)
 .debug_abbrev  0x000004cd      0x176 c:/altera/12.1sp1/nios2eds/bin/gnu/h-i686-mingw32/bin/../lib/gcc/nios2-elf/4.1.2/mno-hw-mul\libgcc.a(_df_to_si.o)
 .debug_abbrev  0x00000643       0xba c:/altera/12.1sp1/nios2eds/bin/gnu/h-i686-mingw32/bin/../lib/gcc/nios2-elf/4.1.2/mno-hw-mul\libgcc.a(_thenan_df.o)
 .debug_abbrev  0x000006fd       0xb9 c:/altera/12.1sp1/nios2eds/bin/gnu/h-i686-mingw32/bin/../lib/gcc/nios2-elf/4.1.2/mno-hw-mul\libgcc.a(_clzsi2.o)
 .debug_abbrev  0x000007b6      0x1b1 c:/altera/12.1sp1/nios2eds/bin/gnu/h-i686-mingw32/bin/../lib/gcc/nios2-elf/4.1.2/mno-hw-mul\libgcc.a(_pack_df.o)
 .debug_abbrev  0x00000967      0x149 c:/altera/12.1sp1/nios2eds/bin/gnu/h-i686-mingw32/bin/../lib/gcc/nios2-elf/4.1.2/mno-hw-mul\libgcc.a(_unpack_df.o)
 .debug_abbrev  0x00000ab0       0x61 c:/altera/12.1sp1/nios2eds/bin/gnu/h-i686-mingw32/bin/../lib/gcc/nios2-elf/4.1.2/mno-hw-mul\libgcc.a(_clz.o)
 .debug_abbrev  0x00000b11       0x87 c:/altera/12.1sp1/nios2eds/bin/gnu/h-i686-mingw32/bin/../lib/gcc/nios2-elf/4.1.2/../../../../nios2-elf/lib/mno-hw-mul\libc.a(lib_a-strcat.o)
 .debug_abbrev  0x00000b98       0x8f c:/altera/12.1sp1/nios2eds/bin/gnu/h-i686-mingw32/bin/../lib/gcc/nios2-elf/4.1.2/../../../../nios2-elf/lib/mno-hw-mul\libc.a(lib_a-strcpy.o)
 .debug_abbrev  0x00000c27      0x134 ../MIDIGenerator_bsp/\libucosii_bsp.a(alt_iic.o)
 .debug_abbrev  0x00000d5b      0x14e ../MIDIGenerator_bsp/\libucosii_bsp.a(alt_iic_isr_register.o)
 .debug_abbrev  0x00000ea9       0x12 ../MIDIGenerator_bsp/\libucosii_bsp.a(alt_irq_entry.o)
 .debug_abbrev  0x00000ebb      0x124 ../MIDIGenerator_bsp/\libucosii_bsp.a(alt_irq_handler.o)
 .debug_abbrev  0x00000fdf       0x44 ../MIDIGenerator_bsp/\libucosii_bsp.a(alt_irq_vars.o)
 .debug_abbrev  0x00001023       0x88 ../MIDIGenerator_bsp/\libucosii_bsp.a(alt_load.o)
 .debug_abbrev  0x000010ab      0x120 ../MIDIGenerator_bsp/\libucosii_bsp.a(alt_main.o)
 .debug_abbrev  0x000011cb       0x91 ../MIDIGenerator_bsp/\libucosii_bsp.a(alt_printf.o)
 .debug_abbrev  0x0000125c      0x17f ../MIDIGenerator_bsp/\libucosii_bsp.a(alt_putchar.o)
 .debug_abbrev  0x000013db      0x1b3 ../MIDIGenerator_bsp/\libucosii_bsp.a(alt_env_lock.o)
 .debug_abbrev  0x0000158e      0x234 ../MIDIGenerator_bsp/\libucosii_bsp.a(alt_malloc_lock.o)
 .debug_abbrev  0x000017c2      0x2aa ../MIDIGenerator_bsp/\libucosii_bsp.a(os_core.o)
 .debug_abbrev  0x00001a6c      0x114 ../MIDIGenerator_bsp/\libucosii_bsp.a(os_dbg.o)
 .debug_abbrev  0x00001b80      0x21b ../MIDIGenerator_bsp/\libucosii_bsp.a(os_flag.o)
 .debug_abbrev  0x00001d9b      0x235 ../MIDIGenerator_bsp/\libucosii_bsp.a(os_mem.o)
 .debug_abbrev  0x00001fd0      0x20d ../MIDIGenerator_bsp/\libucosii_bsp.a(os_q.o)
 .debug_abbrev  0x000021dd      0x20d ../MIDIGenerator_bsp/\libucosii_bsp.a(os_sem.o)
 .debug_abbrev  0x000023ea      0x20e ../MIDIGenerator_bsp/\libucosii_bsp.a(os_task.o)
 .debug_abbrev  0x000025f8      0x1de ../MIDIGenerator_bsp/\libucosii_bsp.a(os_time.o)
 .debug_abbrev  0x000027d6      0x1a3 ../MIDIGenerator_bsp/\libucosii_bsp.a(alt_sys_init.o)
 .debug_abbrev  0x00002979      0x13c ../MIDIGenerator_bsp/\libucosii_bsp.a(altera_avalon_jtag_uart_fd.o)
 .debug_abbrev  0x00002ab5      0x21e ../MIDIGenerator_bsp/\libucosii_bsp.a(altera_avalon_jtag_uart_init.o)
 .debug_abbrev  0x00002cd3      0x135 ../MIDIGenerator_bsp/\libucosii_bsp.a(altera_avalon_jtag_uart_ioctl.o)
 .debug_abbrev  0x00002e08      0x1ee ../MIDIGenerator_bsp/\libucosii_bsp.a(altera_avalon_jtag_uart_read.o)
 .debug_abbrev  0x00002ff6      0x1ea ../MIDIGenerator_bsp/\libucosii_bsp.a(altera_avalon_jtag_uart_write.o)
 .debug_abbrev  0x000031e0      0x137 ../MIDIGenerator_bsp/\libucosii_bsp.a(altera_avalon_timer_sc.o)
 .debug_abbrev  0x00003317      0x127 ../MIDIGenerator_bsp/\libucosii_bsp.a(altera_up_avalon_character_lcd.o)
 .debug_abbrev  0x0000343e      0x172 ../MIDIGenerator_bsp/\libucosii_bsp.a(alt_alarm_start.o)
 .debug_abbrev  0x000035b0      0x102 ../MIDIGenerator_bsp/\libucosii_bsp.a(alt_close.o)
 .debug_abbrev  0x000036b2       0x3f ../MIDIGenerator_bsp/\libucosii_bsp.a(alt_dcache_flush_all.o)
 .debug_abbrev  0x000036f1      0x10a ../MIDIGenerator_bsp/\libucosii_bsp.a(alt_dev.o)
 .debug_abbrev  0x000037fb       0xf6 ../MIDIGenerator_bsp/\libucosii_bsp.a(alt_dev_llist_insert.o)
 .debug_abbrev  0x000038f1       0x76 ../MIDIGenerator_bsp/\libucosii_bsp.a(alt_do_ctors.o)
 .debug_abbrev  0x00003967       0x76 ../MIDIGenerator_bsp/\libucosii_bsp.a(alt_do_dtors.o)
 .debug_abbrev  0x000039dd       0x5e ../MIDIGenerator_bsp/\libucosii_bsp.a(alt_errno.o)
 .debug_abbrev  0x00003a3b       0x12 ../MIDIGenerator_bsp/\libucosii_bsp.a(alt_exception_entry.o)
 .debug_abbrev  0x00003a4d       0xd6 ../MIDIGenerator_bsp/\libucosii_bsp.a(alt_find_dev.o)
 .debug_abbrev  0x00003b23       0x3f ../MIDIGenerator_bsp/\libucosii_bsp.a(alt_icache_flush_all.o)
 .debug_abbrev  0x00003b62       0xf7 ../MIDIGenerator_bsp/\libucosii_bsp.a(alt_io_redirect.o)
 .debug_abbrev  0x00003c59      0x119 ../MIDIGenerator_bsp/\libucosii_bsp.a(alt_open.o)
 .debug_abbrev  0x00003d72       0xd3 ../MIDIGenerator_bsp/\libucosii_bsp.a(alt_release_fd.o)
 .debug_abbrev  0x00003e45      0x150 ../MIDIGenerator_bsp/\libucosii_bsp.a(alt_tick.o)
 .debug_abbrev  0x00003f95       0x3f ../MIDIGenerator_bsp/\libucosii_bsp.a(altera_nios2_qsys_irq.o)
 .debug_abbrev  0x00003fd4       0x14 ../MIDIGenerator_bsp/\libucosii_bsp.a(os_cpu_a.o)
 .debug_abbrev  0x00003fe8      0x1d0 ../MIDIGenerator_bsp/\libucosii_bsp.a(os_cpu_c.o)
 .debug_abbrev  0x000041b8       0xd6 ../MIDIGenerator_bsp/\libucosii_bsp.a(alt_find_file.o)
 .debug_abbrev  0x0000428e      0x173 ../MIDIGenerator_bsp/\libucosii_bsp.a(alt_get_fd.o)
 .debug_abbrev  0x00004401       0xb7 c:/altera/12.1sp1/nios2eds/bin/gnu/h-i686-mingw32/bin/../lib/gcc/nios2-elf/4.1.2/../../../../nios2-elf/lib/mno-hw-mul\libc.a(lib_a-atexit.o)
 .debug_abbrev  0x000044b8      0x16e c:/altera/12.1sp1/nios2eds/bin/gnu/h-i686-mingw32/bin/../lib/gcc/nios2-elf/4.1.2/../../../../nios2-elf/lib/mno-hw-mul\libc.a(lib_a-exit.o)
 .debug_abbrev  0x00004626      0x157 c:/altera/12.1sp1/nios2eds/bin/gnu/h-i686-mingw32/bin/../lib/gcc/nios2-elf/4.1.2/../../../../nios2-elf/lib/mno-hw-mul\libc.a(lib_a-impure.o)
 .debug_abbrev  0x0000477d       0x3b c:/altera/12.1sp1/nios2eds/bin/gnu/h-i686-mingw32/bin/../lib/gcc/nios2-elf/4.1.2/../../../../nios2-elf/lib/mno-hw-mul\libc.a(lib_a-int_errno.o)
 .debug_abbrev  0x000047b8       0x7c c:/altera/12.1sp1/nios2eds/bin/gnu/h-i686-mingw32/bin/../lib/gcc/nios2-elf/4.1.2/../../../../nios2-elf/lib/mno-hw-mul\libc.a(lib_a-memcmp.o)
 .debug_abbrev  0x00004834       0xb5 c:/altera/12.1sp1/nios2eds/bin/gnu/h-i686-mingw32/bin/../lib/gcc/nios2-elf/4.1.2/../../../../nios2-elf/lib/mno-hw-mul\libc.a(lib_a-memcpy.o)
 .debug_abbrev  0x000048e9       0xb8 c:/altera/12.1sp1/nios2eds/bin/gnu/h-i686-mingw32/bin/../lib/gcc/nios2-elf/4.1.2/../../../../nios2-elf/lib/mno-hw-mul\libc.a(lib_a-memset.o)
 .debug_abbrev  0x000049a1      0x17f c:/altera/12.1sp1/nios2eds/bin/gnu/h-i686-mingw32/bin/../lib/gcc/nios2-elf/4.1.2/../../../../nios2-elf/lib/mno-hw-mul\libc.a(lib_a-putc.o)
 .debug_abbrev  0x00004b20       0x8b c:/altera/12.1sp1/nios2eds/bin/gnu/h-i686-mingw32/bin/../lib/gcc/nios2-elf/4.1.2/../../../../nios2-elf/lib/mno-hw-mul\libc.a(lib_a-strlen.o)
 .debug_abbrev  0x00004bab      0x198 c:/altera/12.1sp1/nios2eds/bin/gnu/h-i686-mingw32/bin/../lib/gcc/nios2-elf/4.1.2/../../../../nios2-elf/lib/mno-hw-mul\libc.a(lib_a-wbuf.o)
 .debug_abbrev  0x00004d43      0x170 c:/altera/12.1sp1/nios2eds/bin/gnu/h-i686-mingw32/bin/../lib/gcc/nios2-elf/4.1.2/../../../../nios2-elf/lib/mno-hw-mul\libc.a(lib_a-wsetup.o)
 .debug_abbrev  0x00004eb3      0x1ae c:/altera/12.1sp1/nios2eds/bin/gnu/h-i686-mingw32/bin/../lib/gcc/nios2-elf/4.1.2/../../../../nios2-elf/lib/mno-hw-mul\libc.a(lib_a-__atexit.o)
 .debug_abbrev  0x00005061      0x1de c:/altera/12.1sp1/nios2eds/bin/gnu/h-i686-mingw32/bin/../lib/gcc/nios2-elf/4.1.2/../../../../nios2-elf/lib/mno-hw-mul\libc.a(lib_a-__call_atexit.o)
 .debug_abbrev  0x0000523f      0x1c6 c:/altera/12.1sp1/nios2eds/bin/gnu/h-i686-mingw32/bin/../lib/gcc/nios2-elf/4.1.2/../../../../nios2-elf/lib/mno-hw-mul\libc.a(lib_a-fflush.o)
 .debug_abbrev  0x00005405      0x24c c:/altera/12.1sp1/nios2eds/bin/gnu/h-i686-mingw32/bin/../lib/gcc/nios2-elf/4.1.2/../../../../nios2-elf/lib/mno-hw-mul\libc.a(lib_a-findfp.o)
 .debug_abbrev  0x00005651      0x1d9 c:/altera/12.1sp1/nios2eds/bin/gnu/h-i686-mingw32/bin/../lib/gcc/nios2-elf/4.1.2/../../../../nios2-elf/lib/mno-hw-mul\libc.a(lib_a-freer.o)
 .debug_abbrev  0x0000582a      0x1e3 c:/altera/12.1sp1/nios2eds/bin/gnu/h-i686-mingw32/bin/../lib/gcc/nios2-elf/4.1.2/../../../../nios2-elf/lib/mno-hw-mul\libc.a(lib_a-fwalk.o)
 .debug_abbrev  0x00005a0d      0x197 c:/altera/12.1sp1/nios2eds/bin/gnu/h-i686-mingw32/bin/../lib/gcc/nios2-elf/4.1.2/../../../../nios2-elf/lib/mno-hw-mul\libc.a(lib_a-makebuf.o)
 .debug_abbrev  0x00005ba4      0x216 c:/altera/12.1sp1/nios2eds/bin/gnu/h-i686-mingw32/bin/../lib/gcc/nios2-elf/4.1.2/../../../../nios2-elf/lib/mno-hw-mul\libc.a(lib_a-mallocr.o)
 .debug_abbrev  0x00005dba      0x18c c:/altera/12.1sp1/nios2eds/bin/gnu/h-i686-mingw32/bin/../lib/gcc/nios2-elf/4.1.2/../../../../nios2-elf/lib/mno-hw-mul\libc.a(lib_a-sbrkr.o)
 .debug_abbrev  0x00005f46      0x1c9 c:/altera/12.1sp1/nios2eds/bin/gnu/h-i686-mingw32/bin/../lib/gcc/nios2-elf/4.1.2/../../../../nios2-elf/lib/mno-hw-mul\libc.a(lib_a-stdio.o)
 .debug_abbrev  0x0000610f      0x184 c:/altera/12.1sp1/nios2eds/bin/gnu/h-i686-mingw32/bin/../lib/gcc/nios2-elf/4.1.2/../../../../nios2-elf/lib/mno-hw-mul\libc.a(lib_a-writer.o)
 .debug_abbrev  0x00006293      0x17f c:/altera/12.1sp1/nios2eds/bin/gnu/h-i686-mingw32/bin/../lib/gcc/nios2-elf/4.1.2/../../../../nios2-elf/lib/mno-hw-mul\libc.a(lib_a-closer.o)
 .debug_abbrev  0x00006412      0x1a7 c:/altera/12.1sp1/nios2eds/bin/gnu/h-i686-mingw32/bin/../lib/gcc/nios2-elf/4.1.2/../../../../nios2-elf/lib/mno-hw-mul\libc.a(lib_a-fclose.o)
 .debug_abbrev  0x000065b9      0x18e c:/altera/12.1sp1/nios2eds/bin/gnu/h-i686-mingw32/bin/../lib/gcc/nios2-elf/4.1.2/../../../../nios2-elf/lib/mno-hw-mul\libc.a(lib_a-fstatr.o)
 .debug_abbrev  0x00006747      0x17f c:/altera/12.1sp1/nios2eds/bin/gnu/h-i686-mingw32/bin/../lib/gcc/nios2-elf/4.1.2/../../../../nios2-elf/lib/mno-hw-mul\libc.a(lib_a-isattyr.o)
 .debug_abbrev  0x000068c6      0x18e c:/altera/12.1sp1/nios2eds/bin/gnu/h-i686-mingw32/bin/../lib/gcc/nios2-elf/4.1.2/../../../../nios2-elf/lib/mno-hw-mul\libc.a(lib_a-lseekr.o)
 .debug_abbrev  0x00006a54      0x17f c:/altera/12.1sp1/nios2eds/bin/gnu/h-i686-mingw32/bin/../lib/gcc/nios2-elf/4.1.2/../../../../nios2-elf/lib/mno-hw-mul\libc.a(lib_a-readr.o)
 .debug_abbrev  0x00006bd3       0xe0 c:/altera/12.1sp1/nios2eds/bin/gnu/h-i686-mingw32/bin/../lib/gcc/nios2-elf/4.1.2/mno-hw-mul\libgcc.a(lib2-divmod.o)
 .debug_abbrev  0x00006cb3       0x7b c:/altera/12.1sp1/nios2eds/bin/gnu/h-i686-mingw32/bin/../lib/gcc/nios2-elf/4.1.2/mno-hw-mul\libgcc.a(lib2-mul.o)
 .debug_abbrev  0x00006d2e       0xaa ../MIDIGenerator_bsp/\libucosii_bsp.a(alt_exit.o)
 .debug_abbrev  0x00006dd8      0x102 ../MIDIGenerator_bsp/\libucosii_bsp.a(alt_fstat.o)
 .debug_abbrev  0x00006eda      0x102 ../MIDIGenerator_bsp/\libucosii_bsp.a(alt_isatty.o)
 .debug_abbrev  0x00006fdc      0x102 ../MIDIGenerator_bsp/\libucosii_bsp.a(alt_lseek.o)
 .debug_abbrev  0x000070de      0x102 ../MIDIGenerator_bsp/\libucosii_bsp.a(alt_read.o)
 .debug_abbrev  0x000071e0      0x115 ../MIDIGenerator_bsp/\libucosii_bsp.a(alt_sbrk.o)
 .debug_abbrev  0x000072f5      0x107 ../MIDIGenerator_bsp/\libucosii_bsp.a(alt_write.o)

.debug_line     0x00000000    0x14e99
 *(.debug_line)
 .debug_line    0x00000000       0x66 ../MIDIGenerator_bsp//obj/HAL/src/crt0.o
 .debug_line    0x00000066      0x4c7 obj/default/midi_generator.o
 .debug_line    0x0000052d      0x430 c:/altera/12.1sp1/nios2eds/bin/gnu/h-i686-mingw32/bin/../lib/gcc/nios2-elf/4.1.2/mno-hw-mul\libgcc.a(_addsub_df.o)
 .debug_line    0x0000095d      0x175 c:/altera/12.1sp1/nios2eds/bin/gnu/h-i686-mingw32/bin/../lib/gcc/nios2-elf/4.1.2/mno-hw-mul\libgcc.a(_si_to_df.o)
 .debug_line    0x00000ad2      0x149 c:/altera/12.1sp1/nios2eds/bin/gnu/h-i686-mingw32/bin/../lib/gcc/nios2-elf/4.1.2/mno-hw-mul\libgcc.a(_df_to_si.o)
 .debug_line    0x00000c1b       0x94 c:/altera/12.1sp1/nios2eds/bin/gnu/h-i686-mingw32/bin/../lib/gcc/nios2-elf/4.1.2/mno-hw-mul\libgcc.a(_thenan_df.o)
 .debug_line    0x00000caf      0x105 c:/altera/12.1sp1/nios2eds/bin/gnu/h-i686-mingw32/bin/../lib/gcc/nios2-elf/4.1.2/mno-hw-mul\libgcc.a(_clzsi2.o)
 .debug_line    0x00000db4      0x222 c:/altera/12.1sp1/nios2eds/bin/gnu/h-i686-mingw32/bin/../lib/gcc/nios2-elf/4.1.2/mno-hw-mul\libgcc.a(_pack_df.o)
 .debug_line    0x00000fd6      0x1e4 c:/altera/12.1sp1/nios2eds/bin/gnu/h-i686-mingw32/bin/../lib/gcc/nios2-elf/4.1.2/mno-hw-mul\libgcc.a(_unpack_df.o)
 .debug_line    0x000011ba       0xaa c:/altera/12.1sp1/nios2eds/bin/gnu/h-i686-mingw32/bin/../lib/gcc/nios2-elf/4.1.2/mno-hw-mul\libgcc.a(_clz.o)
 .debug_line    0x00001264      0x292 c:/altera/12.1sp1/nios2eds/bin/gnu/h-i686-mingw32/bin/../lib/gcc/nios2-elf/4.1.2/../../../../nios2-elf/lib/mno-hw-mul\libc.a(lib_a-strcat.o)
 .debug_line    0x000014f6      0x28a c:/altera/12.1sp1/nios2eds/bin/gnu/h-i686-mingw32/bin/../lib/gcc/nios2-elf/4.1.2/../../../../nios2-elf/lib/mno-hw-mul\libc.a(lib_a-strcpy.o)
 .debug_line    0x00001780      0x2c8 ../MIDIGenerator_bsp/\libucosii_bsp.a(alt_iic.o)
 .debug_line    0x00001a48      0x249 ../MIDIGenerator_bsp/\libucosii_bsp.a(alt_iic_isr_register.o)
 .debug_line    0x00001c91       0x6b ../MIDIGenerator_bsp/\libucosii_bsp.a(alt_irq_entry.o)
 .debug_line    0x00001cfc      0x2c4 ../MIDIGenerator_bsp/\libucosii_bsp.a(alt_irq_handler.o)
 .debug_line    0x00001fc0       0x72 ../MIDIGenerator_bsp/\libucosii_bsp.a(alt_irq_vars.o)
 .debug_line    0x00002032      0x217 ../MIDIGenerator_bsp/\libucosii_bsp.a(alt_load.o)
 .debug_line    0x00002249      0x349 ../MIDIGenerator_bsp/\libucosii_bsp.a(alt_main.o)
 .debug_line    0x00002592      0x1da ../MIDIGenerator_bsp/\libucosii_bsp.a(alt_printf.o)
 .debug_line    0x0000276c      0x1ca ../MIDIGenerator_bsp/\libucosii_bsp.a(alt_putchar.o)
 .debug_line    0x00002936      0x2bf ../MIDIGenerator_bsp/\libucosii_bsp.a(alt_env_lock.o)
 .debug_line    0x00002bf5      0x37b ../MIDIGenerator_bsp/\libucosii_bsp.a(alt_malloc_lock.o)
 .debug_line    0x00002f70     0x1663 ../MIDIGenerator_bsp/\libucosii_bsp.a(os_core.o)
 .debug_line    0x000045d3      0x388 ../MIDIGenerator_bsp/\libucosii_bsp.a(os_dbg.o)
 .debug_line    0x0000495b     0x11e7 ../MIDIGenerator_bsp/\libucosii_bsp.a(os_flag.o)
 .debug_line    0x00005b42      0x78a ../MIDIGenerator_bsp/\libucosii_bsp.a(os_mem.o)
 .debug_line    0x000062cc      0xe6b ../MIDIGenerator_bsp/\libucosii_bsp.a(os_q.o)
 .debug_line    0x00007137      0xa23 ../MIDIGenerator_bsp/\libucosii_bsp.a(os_sem.o)
 .debug_line    0x00007b5a     0x112c ../MIDIGenerator_bsp/\libucosii_bsp.a(os_task.o)
 .debug_line    0x00008c86      0x52f ../MIDIGenerator_bsp/\libucosii_bsp.a(os_time.o)
 .debug_line    0x000091b5      0x325 ../MIDIGenerator_bsp/\libucosii_bsp.a(alt_sys_init.o)
 .debug_line    0x000094da      0x319 ../MIDIGenerator_bsp/\libucosii_bsp.a(altera_avalon_jtag_uart_fd.o)
 .debug_line    0x000097f3      0x598 ../MIDIGenerator_bsp/\libucosii_bsp.a(altera_avalon_jtag_uart_init.o)
 .debug_line    0x00009d8b      0x356 ../MIDIGenerator_bsp/\libucosii_bsp.a(altera_avalon_jtag_uart_ioctl.o)
 .debug_line    0x0000a0e1      0x494 ../MIDIGenerator_bsp/\libucosii_bsp.a(altera_avalon_jtag_uart_read.o)
 .debug_line    0x0000a575      0x4a2 ../MIDIGenerator_bsp/\libucosii_bsp.a(altera_avalon_jtag_uart_write.o)
 .debug_line    0x0000aa17      0x2b3 ../MIDIGenerator_bsp/\libucosii_bsp.a(altera_avalon_timer_sc.o)
 .debug_line    0x0000acca      0x4c5 ../MIDIGenerator_bsp/\libucosii_bsp.a(altera_up_avalon_character_lcd.o)
 .debug_line    0x0000b18f      0x2dc ../MIDIGenerator_bsp/\libucosii_bsp.a(alt_alarm_start.o)
 .debug_line    0x0000b46b      0x2f9 ../MIDIGenerator_bsp/\libucosii_bsp.a(alt_close.o)
 .debug_line    0x0000b764      0x1b5 ../MIDIGenerator_bsp/\libucosii_bsp.a(alt_dcache_flush_all.o)
 .debug_line    0x0000b919      0x2ba ../MIDIGenerator_bsp/\libucosii_bsp.a(alt_dev.o)
 .debug_line    0x0000bbd3      0x25a ../MIDIGenerator_bsp/\libucosii_bsp.a(alt_dev_llist_insert.o)
 .debug_line    0x0000be2d       0x83 ../MIDIGenerator_bsp/\libucosii_bsp.a(alt_do_ctors.o)
 .debug_line    0x0000beb0       0x83 ../MIDIGenerator_bsp/\libucosii_bsp.a(alt_do_dtors.o)
 .debug_line    0x0000bf33      0x1aa ../MIDIGenerator_bsp/\libucosii_bsp.a(alt_errno.o)
 .debug_line    0x0000c0dd       0xab ../MIDIGenerator_bsp/\libucosii_bsp.a(alt_exception_entry.o)
 .debug_line    0x0000c188      0x2da ../MIDIGenerator_bsp/\libucosii_bsp.a(alt_find_dev.o)
 .debug_line    0x0000c462      0x1b5 ../MIDIGenerator_bsp/\libucosii_bsp.a(alt_icache_flush_all.o)
 .debug_line    0x0000c617      0x323 ../MIDIGenerator_bsp/\libucosii_bsp.a(alt_io_redirect.o)
 .debug_line    0x0000c93a      0x35f ../MIDIGenerator_bsp/\libucosii_bsp.a(alt_open.o)
 .debug_line    0x0000cc99      0x279 ../MIDIGenerator_bsp/\libucosii_bsp.a(alt_release_fd.o)
 .debug_line    0x0000cf12      0x316 ../MIDIGenerator_bsp/\libucosii_bsp.a(alt_tick.o)
 .debug_line    0x0000d228      0x1ce ../MIDIGenerator_bsp/\libucosii_bsp.a(altera_nios2_qsys_irq.o)
 .debug_line    0x0000d3f6       0x86 ../MIDIGenerator_bsp/\libucosii_bsp.a(os_cpu_a.o)
 .debug_line    0x0000d47c      0x328 ../MIDIGenerator_bsp/\libucosii_bsp.a(os_cpu_c.o)
 .debug_line    0x0000d7a4      0x2eb ../MIDIGenerator_bsp/\libucosii_bsp.a(alt_find_file.o)
 .debug_line    0x0000da8f      0x31b ../MIDIGenerator_bsp/\libucosii_bsp.a(alt_get_fd.o)
 .debug_line    0x0000ddaa      0x203 c:/altera/12.1sp1/nios2eds/bin/gnu/h-i686-mingw32/bin/../lib/gcc/nios2-elf/4.1.2/../../../../nios2-elf/lib/mno-hw-mul\libc.a(lib_a-atexit.o)
 .debug_line    0x0000dfad      0x23b c:/altera/12.1sp1/nios2eds/bin/gnu/h-i686-mingw32/bin/../lib/gcc/nios2-elf/4.1.2/../../../../nios2-elf/lib/mno-hw-mul\libc.a(lib_a-exit.o)
 .debug_line    0x0000e1e8      0x230 c:/altera/12.1sp1/nios2eds/bin/gnu/h-i686-mingw32/bin/../lib/gcc/nios2-elf/4.1.2/../../../../nios2-elf/lib/mno-hw-mul\libc.a(lib_a-impure.o)
 .debug_line    0x0000e418      0x1e2 c:/altera/12.1sp1/nios2eds/bin/gnu/h-i686-mingw32/bin/../lib/gcc/nios2-elf/4.1.2/../../../../nios2-elf/lib/mno-hw-mul\libc.a(lib_a-int_errno.o)
 .debug_line    0x0000e5fa      0x2a2 c:/altera/12.1sp1/nios2eds/bin/gnu/h-i686-mingw32/bin/../lib/gcc/nios2-elf/4.1.2/../../../../nios2-elf/lib/mno-hw-mul\libc.a(lib_a-memcmp.o)
 .debug_line    0x0000e89c      0x1af c:/altera/12.1sp1/nios2eds/bin/gnu/h-i686-mingw32/bin/../lib/gcc/nios2-elf/4.1.2/../../../../nios2-elf/lib/mno-hw-mul\libc.a(lib_a-memcpy.o)
 .debug_line    0x0000ea4b      0x304 c:/altera/12.1sp1/nios2eds/bin/gnu/h-i686-mingw32/bin/../lib/gcc/nios2-elf/4.1.2/../../../../nios2-elf/lib/mno-hw-mul\libc.a(lib_a-memset.o)
 .debug_line    0x0000ed4f      0x2c7 c:/altera/12.1sp1/nios2eds/bin/gnu/h-i686-mingw32/bin/../lib/gcc/nios2-elf/4.1.2/../../../../nios2-elf/lib/mno-hw-mul\libc.a(lib_a-putc.o)
 .debug_line    0x0000f016      0x270 c:/altera/12.1sp1/nios2eds/bin/gnu/h-i686-mingw32/bin/../lib/gcc/nios2-elf/4.1.2/../../../../nios2-elf/lib/mno-hw-mul\libc.a(lib_a-strlen.o)
 .debug_line    0x0000f286      0x353 c:/altera/12.1sp1/nios2eds/bin/gnu/h-i686-mingw32/bin/../lib/gcc/nios2-elf/4.1.2/../../../../nios2-elf/lib/mno-hw-mul\libc.a(lib_a-wbuf.o)
 .debug_line    0x0000f5d9      0x2f3 c:/altera/12.1sp1/nios2eds/bin/gnu/h-i686-mingw32/bin/../lib/gcc/nios2-elf/4.1.2/../../../../nios2-elf/lib/mno-hw-mul\libc.a(lib_a-wsetup.o)
 .debug_line    0x0000f8cc      0x316 c:/altera/12.1sp1/nios2eds/bin/gnu/h-i686-mingw32/bin/../lib/gcc/nios2-elf/4.1.2/../../../../nios2-elf/lib/mno-hw-mul\libc.a(lib_a-__atexit.o)
 .debug_line    0x0000fbe2      0x36a c:/altera/12.1sp1/nios2eds/bin/gnu/h-i686-mingw32/bin/../lib/gcc/nios2-elf/4.1.2/../../../../nios2-elf/lib/mno-hw-mul\libc.a(lib_a-__call_atexit.o)
 .debug_line    0x0000ff4c      0x410 c:/altera/12.1sp1/nios2eds/bin/gnu/h-i686-mingw32/bin/../lib/gcc/nios2-elf/4.1.2/../../../../nios2-elf/lib/mno-hw-mul\libc.a(lib_a-fflush.o)
 .debug_line    0x0001035c      0x60c c:/altera/12.1sp1/nios2eds/bin/gnu/h-i686-mingw32/bin/../lib/gcc/nios2-elf/4.1.2/../../../../nios2-elf/lib/mno-hw-mul\libc.a(lib_a-findfp.o)
 .debug_line    0x00010968      0x5ee c:/altera/12.1sp1/nios2eds/bin/gnu/h-i686-mingw32/bin/../lib/gcc/nios2-elf/4.1.2/../../../../nios2-elf/lib/mno-hw-mul\libc.a(lib_a-freer.o)
 .debug_line    0x00010f56      0x34d c:/altera/12.1sp1/nios2eds/bin/gnu/h-i686-mingw32/bin/../lib/gcc/nios2-elf/4.1.2/../../../../nios2-elf/lib/mno-hw-mul\libc.a(lib_a-fwalk.o)
 .debug_line    0x000112a3      0x3c6 c:/altera/12.1sp1/nios2eds/bin/gnu/h-i686-mingw32/bin/../lib/gcc/nios2-elf/4.1.2/../../../../nios2-elf/lib/mno-hw-mul\libc.a(lib_a-makebuf.o)
 .debug_line    0x00011669      0x80d c:/altera/12.1sp1/nios2eds/bin/gnu/h-i686-mingw32/bin/../lib/gcc/nios2-elf/4.1.2/../../../../nios2-elf/lib/mno-hw-mul\libc.a(lib_a-mallocr.o)
 .debug_line    0x00011e76      0x29c c:/altera/12.1sp1/nios2eds/bin/gnu/h-i686-mingw32/bin/../lib/gcc/nios2-elf/4.1.2/../../../../nios2-elf/lib/mno-hw-mul\libc.a(lib_a-sbrkr.o)
 .debug_line    0x00012112      0x38f c:/altera/12.1sp1/nios2eds/bin/gnu/h-i686-mingw32/bin/../lib/gcc/nios2-elf/4.1.2/../../../../nios2-elf/lib/mno-hw-mul\libc.a(lib_a-stdio.o)
 .debug_line    0x000124a1      0x29d c:/altera/12.1sp1/nios2eds/bin/gnu/h-i686-mingw32/bin/../lib/gcc/nios2-elf/4.1.2/../../../../nios2-elf/lib/mno-hw-mul\libc.a(lib_a-writer.o)
 .debug_line    0x0001273e      0x29d c:/altera/12.1sp1/nios2eds/bin/gnu/h-i686-mingw32/bin/../lib/gcc/nios2-elf/4.1.2/../../../../nios2-elf/lib/mno-hw-mul\libc.a(lib_a-closer.o)
 .debug_line    0x000129db      0x2eb c:/altera/12.1sp1/nios2eds/bin/gnu/h-i686-mingw32/bin/../lib/gcc/nios2-elf/4.1.2/../../../../nios2-elf/lib/mno-hw-mul\libc.a(lib_a-fclose.o)
 .debug_line    0x00012cc6      0x267 c:/altera/12.1sp1/nios2eds/bin/gnu/h-i686-mingw32/bin/../lib/gcc/nios2-elf/4.1.2/../../../../nios2-elf/lib/mno-hw-mul\libc.a(lib_a-fstatr.o)
 .debug_line    0x00012f2d      0x29e c:/altera/12.1sp1/nios2eds/bin/gnu/h-i686-mingw32/bin/../lib/gcc/nios2-elf/4.1.2/../../../../nios2-elf/lib/mno-hw-mul\libc.a(lib_a-isattyr.o)
 .debug_line    0x000131cb      0x29d c:/altera/12.1sp1/nios2eds/bin/gnu/h-i686-mingw32/bin/../lib/gcc/nios2-elf/4.1.2/../../../../nios2-elf/lib/mno-hw-mul\libc.a(lib_a-lseekr.o)
 .debug_line    0x00013468      0x29c c:/altera/12.1sp1/nios2eds/bin/gnu/h-i686-mingw32/bin/../lib/gcc/nios2-elf/4.1.2/../../../../nios2-elf/lib/mno-hw-mul\libc.a(lib_a-readr.o)
 .debug_line    0x00013704      0x24f c:/altera/12.1sp1/nios2eds/bin/gnu/h-i686-mingw32/bin/../lib/gcc/nios2-elf/4.1.2/mno-hw-mul\libgcc.a(lib2-divmod.o)
 .debug_line    0x00013953      0x11a c:/altera/12.1sp1/nios2eds/bin/gnu/h-i686-mingw32/bin/../lib/gcc/nios2-elf/4.1.2/mno-hw-mul\libgcc.a(lib2-mul.o)
 .debug_line    0x00013a6d      0x276 ../MIDIGenerator_bsp/\libucosii_bsp.a(alt_exit.o)
 .debug_line    0x00013ce3      0x301 ../MIDIGenerator_bsp/\libucosii_bsp.a(alt_fstat.o)
 .debug_line    0x00013fe4      0x302 ../MIDIGenerator_bsp/\libucosii_bsp.a(alt_isatty.o)
 .debug_line    0x000142e6      0x301 ../MIDIGenerator_bsp/\libucosii_bsp.a(alt_lseek.o)
 .debug_line    0x000145e7      0x328 ../MIDIGenerator_bsp/\libucosii_bsp.a(alt_read.o)
 .debug_line    0x0001490f      0x261 ../MIDIGenerator_bsp/\libucosii_bsp.a(alt_sbrk.o)
 .debug_line    0x00014b70      0x329 ../MIDIGenerator_bsp/\libucosii_bsp.a(alt_write.o)

.debug_frame    0x00000000     0x200c
 *(.debug_frame)
 .debug_frame   0x00000000       0xb8 obj/default/midi_generator.o
 .debug_frame   0x000000b8       0x70 c:/altera/12.1sp1/nios2eds/bin/gnu/h-i686-mingw32/bin/../lib/gcc/nios2-elf/4.1.2/mno-hw-mul\libgcc.a(_addsub_df.o)
 .debug_frame   0x00000128       0x30 c:/altera/12.1sp1/nios2eds/bin/gnu/h-i686-mingw32/bin/../lib/gcc/nios2-elf/4.1.2/mno-hw-mul\libgcc.a(_si_to_df.o)
 .debug_frame   0x00000158       0x28 c:/altera/12.1sp1/nios2eds/bin/gnu/h-i686-mingw32/bin/../lib/gcc/nios2-elf/4.1.2/mno-hw-mul\libgcc.a(_df_to_si.o)
 .debug_frame   0x00000180       0x20 c:/altera/12.1sp1/nios2eds/bin/gnu/h-i686-mingw32/bin/../lib/gcc/nios2-elf/4.1.2/mno-hw-mul\libgcc.a(_clzsi2.o)
 .debug_frame   0x000001a0       0x2c c:/altera/12.1sp1/nios2eds/bin/gnu/h-i686-mingw32/bin/../lib/gcc/nios2-elf/4.1.2/mno-hw-mul\libgcc.a(_pack_df.o)
 .debug_frame   0x000001cc       0x20 c:/altera/12.1sp1/nios2eds/bin/gnu/h-i686-mingw32/bin/../lib/gcc/nios2-elf/4.1.2/mno-hw-mul\libgcc.a(_unpack_df.o)
 .debug_frame   0x000001ec       0x28 c:/altera/12.1sp1/nios2eds/bin/gnu/h-i686-mingw32/bin/../lib/gcc/nios2-elf/4.1.2/../../../../nios2-elf/lib/mno-hw-mul\libc.a(lib_a-strcat.o)
 .debug_frame   0x00000214       0x20 c:/altera/12.1sp1/nios2eds/bin/gnu/h-i686-mingw32/bin/../lib/gcc/nios2-elf/4.1.2/../../../../nios2-elf/lib/mno-hw-mul\libc.a(lib_a-strcpy.o)
 .debug_frame   0x00000234       0x80 ../MIDIGenerator_bsp/\libucosii_bsp.a(alt_iic.o)
 .debug_frame   0x000002b4       0x2c ../MIDIGenerator_bsp/\libucosii_bsp.a(alt_iic_isr_register.o)
 .debug_frame   0x000002e0       0x2c ../MIDIGenerator_bsp/\libucosii_bsp.a(alt_irq_handler.o)
 .debug_frame   0x0000030c       0x48 ../MIDIGenerator_bsp/\libucosii_bsp.a(alt_load.o)
 .debug_frame   0x00000354       0x2c ../MIDIGenerator_bsp/\libucosii_bsp.a(alt_main.o)
 .debug_frame   0x00000380       0x2c ../MIDIGenerator_bsp/\libucosii_bsp.a(alt_printf.o)
 .debug_frame   0x000003ac       0x2c ../MIDIGenerator_bsp/\libucosii_bsp.a(alt_putchar.o)
 .debug_frame   0x000003d8       0x4c ../MIDIGenerator_bsp/\libucosii_bsp.a(alt_env_lock.o)
 .debug_frame   0x00000424       0x4c ../MIDIGenerator_bsp/\libucosii_bsp.a(alt_malloc_lock.o)
 .debug_frame   0x00000470      0x3e4 ../MIDIGenerator_bsp/\libucosii_bsp.a(os_core.o)
 .debug_frame   0x00000854       0x2c ../MIDIGenerator_bsp/\libucosii_bsp.a(os_dbg.o)
 .debug_frame   0x00000880      0x180 ../MIDIGenerator_bsp/\libucosii_bsp.a(os_flag.o)
 .debug_frame   0x00000a00       0xd4 ../MIDIGenerator_bsp/\libucosii_bsp.a(os_mem.o)
 .debug_frame   0x00000ad4      0x144 ../MIDIGenerator_bsp/\libucosii_bsp.a(os_q.o)
 .debug_frame   0x00000c18       0xf0 ../MIDIGenerator_bsp/\libucosii_bsp.a(os_sem.o)
 .debug_frame   0x00000d08      0x160 ../MIDIGenerator_bsp/\libucosii_bsp.a(os_task.o)
 .debug_frame   0x00000e68       0xa0 ../MIDIGenerator_bsp/\libucosii_bsp.a(os_time.o)
 .debug_frame   0x00000f08       0x64 ../MIDIGenerator_bsp/\libucosii_bsp.a(alt_sys_init.o)
 .debug_frame   0x00000f6c       0x80 ../MIDIGenerator_bsp/\libucosii_bsp.a(altera_avalon_jtag_uart_fd.o)
 .debug_frame   0x00000fec       0x80 ../MIDIGenerator_bsp/\libucosii_bsp.a(altera_avalon_jtag_uart_init.o)
 .debug_frame   0x0000106c       0x2c ../MIDIGenerator_bsp/\libucosii_bsp.a(altera_avalon_jtag_uart_ioctl.o)
 .debug_frame   0x00001098       0x2c ../MIDIGenerator_bsp/\libucosii_bsp.a(altera_avalon_jtag_uart_read.o)
 .debug_frame   0x000010c4       0x2c ../MIDIGenerator_bsp/\libucosii_bsp.a(altera_avalon_jtag_uart_write.o)
 .debug_frame   0x000010f0       0x48 ../MIDIGenerator_bsp/\libucosii_bsp.a(altera_avalon_timer_sc.o)
 .debug_frame   0x00001138      0x17c ../MIDIGenerator_bsp/\libucosii_bsp.a(altera_up_avalon_character_lcd.o)
 .debug_frame   0x000012b4       0x2c ../MIDIGenerator_bsp/\libucosii_bsp.a(alt_alarm_start.o)
 .debug_frame   0x000012e0       0x48 ../MIDIGenerator_bsp/\libucosii_bsp.a(alt_close.o)
 .debug_frame   0x00001328       0x2c ../MIDIGenerator_bsp/\libucosii_bsp.a(alt_dcache_flush_all.o)
 .debug_frame   0x00001354       0x2c ../MIDIGenerator_bsp/\libucosii_bsp.a(alt_dev.o)
 .debug_frame   0x00001380       0x48 ../MIDIGenerator_bsp/\libucosii_bsp.a(alt_dev_llist_insert.o)
 .debug_frame   0x000013c8       0x2c ../MIDIGenerator_bsp/\libucosii_bsp.a(alt_do_ctors.o)
 .debug_frame   0x000013f4       0x2c ../MIDIGenerator_bsp/\libucosii_bsp.a(alt_do_dtors.o)
 .debug_frame   0x00001420       0x2c ../MIDIGenerator_bsp/\libucosii_bsp.a(alt_find_dev.o)
 .debug_frame   0x0000144c       0x2c ../MIDIGenerator_bsp/\libucosii_bsp.a(alt_icache_flush_all.o)
 .debug_frame   0x00001478       0x4c ../MIDIGenerator_bsp/\libucosii_bsp.a(alt_io_redirect.o)
 .debug_frame   0x000014c4       0x68 ../MIDIGenerator_bsp/\libucosii_bsp.a(alt_open.o)
 .debug_frame   0x0000152c       0x30 ../MIDIGenerator_bsp/\libucosii_bsp.a(alt_release_fd.o)
 .debug_frame   0x0000155c       0x48 ../MIDIGenerator_bsp/\libucosii_bsp.a(alt_tick.o)
 .debug_frame   0x000015a4       0x2c ../MIDIGenerator_bsp/\libucosii_bsp.a(altera_nios2_qsys_irq.o)
 .debug_frame   0x000015d0      0x128 ../MIDIGenerator_bsp/\libucosii_bsp.a(os_cpu_c.o)
 .debug_frame   0x000016f8       0x2c ../MIDIGenerator_bsp/\libucosii_bsp.a(alt_find_file.o)
 .debug_frame   0x00001724       0x30 ../MIDIGenerator_bsp/\libucosii_bsp.a(alt_get_fd.o)
 .debug_frame   0x00001754       0x20 c:/altera/12.1sp1/nios2eds/bin/gnu/h-i686-mingw32/bin/../lib/gcc/nios2-elf/4.1.2/../../../../nios2-elf/lib/mno-hw-mul\libc.a(lib_a-atexit.o)
 .debug_frame   0x00001774       0x28 c:/altera/12.1sp1/nios2eds/bin/gnu/h-i686-mingw32/bin/../lib/gcc/nios2-elf/4.1.2/../../../../nios2-elf/lib/mno-hw-mul\libc.a(lib_a-exit.o)
 .debug_frame   0x0000179c       0x20 c:/altera/12.1sp1/nios2eds/bin/gnu/h-i686-mingw32/bin/../lib/gcc/nios2-elf/4.1.2/../../../../nios2-elf/lib/mno-hw-mul\libc.a(lib_a-memcmp.o)
 .debug_frame   0x000017bc       0x20 c:/altera/12.1sp1/nios2eds/bin/gnu/h-i686-mingw32/bin/../lib/gcc/nios2-elf/4.1.2/../../../../nios2-elf/lib/mno-hw-mul\libc.a(lib_a-memcpy.o)
 .debug_frame   0x000017dc       0x20 c:/altera/12.1sp1/nios2eds/bin/gnu/h-i686-mingw32/bin/../lib/gcc/nios2-elf/4.1.2/../../../../nios2-elf/lib/mno-hw-mul\libc.a(lib_a-memset.o)
 .debug_frame   0x000017fc       0x4c c:/altera/12.1sp1/nios2eds/bin/gnu/h-i686-mingw32/bin/../lib/gcc/nios2-elf/4.1.2/../../../../nios2-elf/lib/mno-hw-mul\libc.a(lib_a-putc.o)
 .debug_frame   0x00001848       0x20 c:/altera/12.1sp1/nios2eds/bin/gnu/h-i686-mingw32/bin/../lib/gcc/nios2-elf/4.1.2/../../../../nios2-elf/lib/mno-hw-mul\libc.a(lib_a-strlen.o)
 .debug_frame   0x00001868       0x3c c:/altera/12.1sp1/nios2eds/bin/gnu/h-i686-mingw32/bin/../lib/gcc/nios2-elf/4.1.2/../../../../nios2-elf/lib/mno-hw-mul\libc.a(lib_a-wbuf.o)
 .debug_frame   0x000018a4       0x2c c:/altera/12.1sp1/nios2eds/bin/gnu/h-i686-mingw32/bin/../lib/gcc/nios2-elf/4.1.2/../../../../nios2-elf/lib/mno-hw-mul\libc.a(lib_a-wsetup.o)
 .debug_frame   0x000018d0       0x34 c:/altera/12.1sp1/nios2eds/bin/gnu/h-i686-mingw32/bin/../lib/gcc/nios2-elf/4.1.2/../../../../nios2-elf/lib/mno-hw-mul\libc.a(lib_a-__atexit.o)
 .debug_frame   0x00001904       0x4c c:/altera/12.1sp1/nios2eds/bin/gnu/h-i686-mingw32/bin/../lib/gcc/nios2-elf/4.1.2/../../../../nios2-elf/lib/mno-hw-mul\libc.a(lib_a-__call_atexit.o)
 .debug_frame   0x00001950       0x40 c:/altera/12.1sp1/nios2eds/bin/gnu/h-i686-mingw32/bin/../lib/gcc/nios2-elf/4.1.2/../../../../nios2-elf/lib/mno-hw-mul\libc.a(lib_a-fflush.o)
 .debug_frame   0x00001990      0x118 c:/altera/12.1sp1/nios2eds/bin/gnu/h-i686-mingw32/bin/../lib/gcc/nios2-elf/4.1.2/../../../../nios2-elf/lib/mno-hw-mul\libc.a(lib_a-findfp.o)
 .debug_frame   0x00001aa8       0x4c c:/altera/12.1sp1/nios2eds/bin/gnu/h-i686-mingw32/bin/../lib/gcc/nios2-elf/4.1.2/../../../../nios2-elf/lib/mno-hw-mul\libc.a(lib_a-freer.o)
 .debug_frame   0x00001af4       0x60 c:/altera/12.1sp1/nios2eds/bin/gnu/h-i686-mingw32/bin/../lib/gcc/nios2-elf/4.1.2/../../../../nios2-elf/lib/mno-hw-mul\libc.a(lib_a-fwalk.o)
 .debug_frame   0x00001b54       0x2c c:/altera/12.1sp1/nios2eds/bin/gnu/h-i686-mingw32/bin/../lib/gcc/nios2-elf/4.1.2/../../../../nios2-elf/lib/mno-hw-mul\libc.a(lib_a-makebuf.o)
 .debug_frame   0x00001b80       0x38 c:/altera/12.1sp1/nios2eds/bin/gnu/h-i686-mingw32/bin/../lib/gcc/nios2-elf/4.1.2/../../../../nios2-elf/lib/mno-hw-mul\libc.a(lib_a-mallocr.o)
 .debug_frame   0x00001bb8       0x2c c:/altera/12.1sp1/nios2eds/bin/gnu/h-i686-mingw32/bin/../lib/gcc/nios2-elf/4.1.2/../../../../nios2-elf/lib/mno-hw-mul\libc.a(lib_a-sbrkr.o)
 .debug_frame   0x00001be4       0x78 c:/altera/12.1sp1/nios2eds/bin/gnu/h-i686-mingw32/bin/../lib/gcc/nios2-elf/4.1.2/../../../../nios2-elf/lib/mno-hw-mul\libc.a(lib_a-stdio.o)
 .debug_frame   0x00001c5c       0x2c c:/altera/12.1sp1/nios2eds/bin/gnu/h-i686-mingw32/bin/../lib/gcc/nios2-elf/4.1.2/../../../../nios2-elf/lib/mno-hw-mul\libc.a(lib_a-writer.o)
 .debug_frame   0x00001c88       0x2c c:/altera/12.1sp1/nios2eds/bin/gnu/h-i686-mingw32/bin/../lib/gcc/nios2-elf/4.1.2/../../../../nios2-elf/lib/mno-hw-mul\libc.a(lib_a-closer.o)
 .debug_frame   0x00001cb4       0x3c c:/altera/12.1sp1/nios2eds/bin/gnu/h-i686-mingw32/bin/../lib/gcc/nios2-elf/4.1.2/../../../../nios2-elf/lib/mno-hw-mul\libc.a(lib_a-fclose.o)
 .debug_frame   0x00001cf0       0x2c c:/altera/12.1sp1/nios2eds/bin/gnu/h-i686-mingw32/bin/../lib/gcc/nios2-elf/4.1.2/../../../../nios2-elf/lib/mno-hw-mul\libc.a(lib_a-fstatr.o)
 .debug_frame   0x00001d1c       0x2c c:/altera/12.1sp1/nios2eds/bin/gnu/h-i686-mingw32/bin/../lib/gcc/nios2-elf/4.1.2/../../../../nios2-elf/lib/mno-hw-mul\libc.a(lib_a-isattyr.o)
 .debug_frame   0x00001d48       0x2c c:/altera/12.1sp1/nios2eds/bin/gnu/h-i686-mingw32/bin/../lib/gcc/nios2-elf/4.1.2/../../../../nios2-elf/lib/mno-hw-mul\libc.a(lib_a-lseekr.o)
 .debug_frame   0x00001d74       0x2c c:/altera/12.1sp1/nios2eds/bin/gnu/h-i686-mingw32/bin/../lib/gcc/nios2-elf/4.1.2/../../../../nios2-elf/lib/mno-hw-mul\libc.a(lib_a-readr.o)
 .debug_frame   0x00001da0       0x70 c:/altera/12.1sp1/nios2eds/bin/gnu/h-i686-mingw32/bin/../lib/gcc/nios2-elf/4.1.2/mno-hw-mul\libgcc.a(lib2-divmod.o)
 .debug_frame   0x00001e10       0x20 c:/altera/12.1sp1/nios2eds/bin/gnu/h-i686-mingw32/bin/../lib/gcc/nios2-elf/4.1.2/mno-hw-mul\libgcc.a(lib2-mul.o)
 .debug_frame   0x00001e30       0x48 ../MIDIGenerator_bsp/\libucosii_bsp.a(alt_exit.o)
 .debug_frame   0x00001e78       0x48 ../MIDIGenerator_bsp/\libucosii_bsp.a(alt_fstat.o)
 .debug_frame   0x00001ec0       0x48 ../MIDIGenerator_bsp/\libucosii_bsp.a(alt_isatty.o)
 .debug_frame   0x00001f08       0x48 ../MIDIGenerator_bsp/\libucosii_bsp.a(alt_lseek.o)
 .debug_frame   0x00001f50       0x48 ../MIDIGenerator_bsp/\libucosii_bsp.a(alt_read.o)
 .debug_frame   0x00001f98       0x2c ../MIDIGenerator_bsp/\libucosii_bsp.a(alt_sbrk.o)
 .debug_frame   0x00001fc4       0x48 ../MIDIGenerator_bsp/\libucosii_bsp.a(alt_write.o)

.debug_str      0x00000000     0x1b86
 *(.debug_str)
 .debug_str     0x00000000       0x4d obj/default/midi_generator.o
 .debug_str     0x0000004d      0x20a c:/altera/12.1sp1/nios2eds/bin/gnu/h-i686-mingw32/bin/../lib/gcc/nios2-elf/4.1.2/mno-hw-mul\libgcc.a(_addsub_df.o)
                                0x26f (size before relaxing)
 .debug_str     0x00000257       0x1e c:/altera/12.1sp1/nios2eds/bin/gnu/h-i686-mingw32/bin/../lib/gcc/nios2-elf/4.1.2/mno-hw-mul\libgcc.a(_si_to_df.o)
                                0x1de (size before relaxing)
 .debug_str     0x00000275        0xa c:/altera/12.1sp1/nios2eds/bin/gnu/h-i686-mingw32/bin/../lib/gcc/nios2-elf/4.1.2/mno-hw-mul\libgcc.a(_df_to_si.o)
                                0x207 (size before relaxing)
 .debug_str     0x00000000      0x1a3 c:/altera/12.1sp1/nios2eds/bin/gnu/h-i686-mingw32/bin/../lib/gcc/nios2-elf/4.1.2/mno-hw-mul\libgcc.a(_thenan_df.o)
 .debug_str     0x0000027f       0x6b c:/altera/12.1sp1/nios2eds/bin/gnu/h-i686-mingw32/bin/../lib/gcc/nios2-elf/4.1.2/mno-hw-mul\libgcc.a(_clzsi2.o)
                                0x17e (size before relaxing)
 .debug_str     0x000002ea       0x10 c:/altera/12.1sp1/nios2eds/bin/gnu/h-i686-mingw32/bin/../lib/gcc/nios2-elf/4.1.2/mno-hw-mul\libgcc.a(_pack_df.o)
                                0x206 (size before relaxing)
 .debug_str     0x000002fa        0xb c:/altera/12.1sp1/nios2eds/bin/gnu/h-i686-mingw32/bin/../lib/gcc/nios2-elf/4.1.2/mno-hw-mul\libgcc.a(_unpack_df.o)
                                0x1e8 (size before relaxing)
 .debug_str     0x00000000      0x161 c:/altera/12.1sp1/nios2eds/bin/gnu/h-i686-mingw32/bin/../lib/gcc/nios2-elf/4.1.2/mno-hw-mul\libgcc.a(_clz.o)
 .debug_str     0x00000305       0xe7 c:/altera/12.1sp1/nios2eds/bin/gnu/h-i686-mingw32/bin/../lib/gcc/nios2-elf/4.1.2/../../../../nios2-elf/lib/mno-hw-mul\libc.a(lib_a-strcat.o)
                                0x17c (size before relaxing)
 .debug_str     0x000003ec       0x67 c:/altera/12.1sp1/nios2eds/bin/gnu/h-i686-mingw32/bin/../lib/gcc/nios2-elf/4.1.2/../../../../nios2-elf/lib/mno-hw-mul\libc.a(lib_a-strcpy.o)
                                0x193 (size before relaxing)
 .debug_str     0x00000453       0x18 ../MIDIGenerator_bsp/\libucosii_bsp.a(alt_iic.o)
 .debug_str     0x0000046b       0x1a ../MIDIGenerator_bsp/\libucosii_bsp.a(alt_iic_isr_register.o)
 .debug_str     0x00000485       0x12 ../MIDIGenerator_bsp/\libucosii_bsp.a(alt_irq_handler.o)
 .debug_str     0x00000497       0x12 ../MIDIGenerator_bsp/\libucosii_bsp.a(alt_load.o)
 .debug_str     0x000004a9       0x12 ../MIDIGenerator_bsp/\libucosii_bsp.a(alt_main.o)
 .debug_str     0x000004bb       0x20 ../MIDIGenerator_bsp/\libucosii_bsp.a(alt_putchar.o)
 .debug_str     0x000004db       0x36 ../MIDIGenerator_bsp/\libucosii_bsp.a(alt_env_lock.o)
 .debug_str     0x00000511       0x36 ../MIDIGenerator_bsp/\libucosii_bsp.a(alt_malloc_lock.o)
 .debug_str     0x00000547       0x46 ../MIDIGenerator_bsp/\libucosii_bsp.a(os_core.o)
 .debug_str     0x0000058d       0x2b ../MIDIGenerator_bsp/\libucosii_bsp.a(os_dbg.o)
 .debug_str     0x000005b8       0x4e ../MIDIGenerator_bsp/\libucosii_bsp.a(os_flag.o)
 .debug_str     0x00000606       0x2c ../MIDIGenerator_bsp/\libucosii_bsp.a(os_mem.o)
 .debug_str     0x00000632       0x36 ../MIDIGenerator_bsp/\libucosii_bsp.a(os_q.o)
 .debug_str     0x00000668       0x36 ../MIDIGenerator_bsp/\libucosii_bsp.a(os_sem.o)
 .debug_str     0x0000069e       0x23 ../MIDIGenerator_bsp/\libucosii_bsp.a(os_task.o)
 .debug_str     0x000006c1       0x1f ../MIDIGenerator_bsp/\libucosii_bsp.a(os_time.o)
 .debug_str     0x000006e0       0x2b ../MIDIGenerator_bsp/\libucosii_bsp.a(alt_sys_init.o)
 .debug_str     0x0000070b       0x12 ../MIDIGenerator_bsp/\libucosii_bsp.a(altera_avalon_jtag_uart_fd.o)
 .debug_str     0x0000071d       0x1a ../MIDIGenerator_bsp/\libucosii_bsp.a(altera_avalon_jtag_uart_init.o)
 .debug_str     0x00000737       0x12 ../MIDIGenerator_bsp/\libucosii_bsp.a(altera_avalon_jtag_uart_ioctl.o)
 .debug_str     0x00000749       0x22 ../MIDIGenerator_bsp/\libucosii_bsp.a(altera_avalon_jtag_uart_read.o)
 .debug_str     0x0000076b       0x22 ../MIDIGenerator_bsp/\libucosii_bsp.a(altera_avalon_jtag_uart_write.o)
 .debug_str     0x0000078d       0x12 ../MIDIGenerator_bsp/\libucosii_bsp.a(altera_avalon_timer_sc.o)
 .debug_str     0x0000079f       0x55 ../MIDIGenerator_bsp/\libucosii_bsp.a(altera_up_avalon_character_lcd.o)
 .debug_str     0x000007f4       0x23 ../MIDIGenerator_bsp/\libucosii_bsp.a(alt_alarm_start.o)
 .debug_str     0x00000817       0x12 ../MIDIGenerator_bsp/\libucosii_bsp.a(alt_close.o)
 .debug_str     0x00000829       0x12 ../MIDIGenerator_bsp/\libucosii_bsp.a(alt_dcache_flush_all.o)
 .debug_str     0x0000083b       0x12 ../MIDIGenerator_bsp/\libucosii_bsp.a(alt_dev.o)
 .debug_str     0x0000084d       0x12 ../MIDIGenerator_bsp/\libucosii_bsp.a(alt_dev_llist_insert.o)
 .debug_str     0x0000085f       0x12 ../MIDIGenerator_bsp/\libucosii_bsp.a(alt_errno.o)
 .debug_str     0x00000871       0x12 ../MIDIGenerator_bsp/\libucosii_bsp.a(alt_find_dev.o)
 .debug_str     0x00000883       0x12 ../MIDIGenerator_bsp/\libucosii_bsp.a(alt_icache_flush_all.o)
 .debug_str     0x00000895       0x12 ../MIDIGenerator_bsp/\libucosii_bsp.a(alt_io_redirect.o)
 .debug_str     0x000008a7       0x12 ../MIDIGenerator_bsp/\libucosii_bsp.a(alt_open.o)
 .debug_str     0x000008b9       0x12 ../MIDIGenerator_bsp/\libucosii_bsp.a(alt_release_fd.o)
 .debug_str     0x000008cb       0x1a ../MIDIGenerator_bsp/\libucosii_bsp.a(alt_tick.o)
 .debug_str     0x000008e5       0x12 ../MIDIGenerator_bsp/\libucosii_bsp.a(altera_nios2_qsys_irq.o)
 .debug_str     0x000008f7       0x20 ../MIDIGenerator_bsp/\libucosii_bsp.a(os_cpu_c.o)
 .debug_str     0x00000917       0x12 ../MIDIGenerator_bsp/\libucosii_bsp.a(alt_find_file.o)
 .debug_str     0x00000929       0x12 ../MIDIGenerator_bsp/\libucosii_bsp.a(alt_get_fd.o)
 .debug_str     0x0000093b      0x12b c:/altera/12.1sp1/nios2eds/bin/gnu/h-i686-mingw32/bin/../lib/gcc/nios2-elf/4.1.2/../../../../nios2-elf/lib/mno-hw-mul\libc.a(lib_a-atexit.o)
                                0x1cd (size before relaxing)
 .debug_str     0x00000a66      0x365 c:/altera/12.1sp1/nios2eds/bin/gnu/h-i686-mingw32/bin/../lib/gcc/nios2-elf/4.1.2/../../../../nios2-elf/lib/mno-hw-mul\libc.a(lib_a-exit.o)
                                0x51a (size before relaxing)
 .debug_str     0x00000dcb       0xdf c:/altera/12.1sp1/nios2eds/bin/gnu/h-i686-mingw32/bin/../lib/gcc/nios2-elf/4.1.2/../../../../nios2-elf/lib/mno-hw-mul\libc.a(lib_a-impure.o)
                                0x528 (size before relaxing)
 .debug_str     0x00000eaa       0x40 c:/altera/12.1sp1/nios2eds/bin/gnu/h-i686-mingw32/bin/../lib/gcc/nios2-elf/4.1.2/../../../../nios2-elf/lib/mno-hw-mul\libc.a(lib_a-int_errno.o)
                                0x171 (size before relaxing)
 .debug_str     0x00000eea       0x45 c:/altera/12.1sp1/nios2eds/bin/gnu/h-i686-mingw32/bin/../lib/gcc/nios2-elf/4.1.2/../../../../nios2-elf/lib/mno-hw-mul\libc.a(lib_a-memcmp.o)
                                0x178 (size before relaxing)
 .debug_str     0x00000f2f       0x4a c:/altera/12.1sp1/nios2eds/bin/gnu/h-i686-mingw32/bin/../lib/gcc/nios2-elf/4.1.2/../../../../nios2-elf/lib/mno-hw-mul\libc.a(lib_a-memcpy.o)
                                0x136 (size before relaxing)
 .debug_str     0x00000f79       0x59 c:/altera/12.1sp1/nios2eds/bin/gnu/h-i686-mingw32/bin/../lib/gcc/nios2-elf/4.1.2/../../../../nios2-elf/lib/mno-hw-mul\libc.a(lib_a-memset.o)
                                0x18c (size before relaxing)
 .debug_str     0x00000fd2       0xde c:/altera/12.1sp1/nios2eds/bin/gnu/h-i686-mingw32/bin/../lib/gcc/nios2-elf/4.1.2/../../../../nios2-elf/lib/mno-hw-mul\libc.a(lib_a-putc.o)
                                0x520 (size before relaxing)
 .debug_str     0x000010b0       0x45 c:/altera/12.1sp1/nios2eds/bin/gnu/h-i686-mingw32/bin/../lib/gcc/nios2-elf/4.1.2/../../../../nios2-elf/lib/mno-hw-mul\libc.a(lib_a-strlen.o)
                                0x18b (size before relaxing)
 .debug_str     0x000010f5       0x4d c:/altera/12.1sp1/nios2eds/bin/gnu/h-i686-mingw32/bin/../lib/gcc/nios2-elf/4.1.2/../../../../nios2-elf/lib/mno-hw-mul\libc.a(lib_a-wbuf.o)
                                0x51e (size before relaxing)
 .debug_str     0x00001142       0x49 c:/altera/12.1sp1/nios2eds/bin/gnu/h-i686-mingw32/bin/../lib/gcc/nios2-elf/4.1.2/../../../../nios2-elf/lib/mno-hw-mul\libc.a(lib_a-wsetup.o)
                                0x51a (size before relaxing)
 .debug_str     0x0000118b       0x54 c:/altera/12.1sp1/nios2eds/bin/gnu/h-i686-mingw32/bin/../lib/gcc/nios2-elf/4.1.2/../../../../nios2-elf/lib/mno-hw-mul\libc.a(lib_a-__atexit.o)
                                0x532 (size before relaxing)
 .debug_str     0x000011df       0x7e c:/altera/12.1sp1/nios2eds/bin/gnu/h-i686-mingw32/bin/../lib/gcc/nios2-elf/4.1.2/../../../../nios2-elf/lib/mno-hw-mul\libc.a(lib_a-__call_atexit.o)
                                0x55c (size before relaxing)
 .debug_str     0x0000125d       0x55 c:/altera/12.1sp1/nios2eds/bin/gnu/h-i686-mingw32/bin/../lib/gcc/nios2-elf/4.1.2/../../../../nios2-elf/lib/mno-hw-mul\libc.a(lib_a-fflush.o)
                                0x540 (size before relaxing)
 .debug_str     0x000012b2      0x105 c:/altera/12.1sp1/nios2eds/bin/gnu/h-i686-mingw32/bin/../lib/gcc/nios2-elf/4.1.2/../../../../nios2-elf/lib/mno-hw-mul\libc.a(lib_a-findfp.o)
                                0x602 (size before relaxing)
 .debug_str     0x000013b7      0x15e c:/altera/12.1sp1/nios2eds/bin/gnu/h-i686-mingw32/bin/../lib/gcc/nios2-elf/4.1.2/../../../../nios2-elf/lib/mno-hw-mul\libc.a(lib_a-freer.o)
                                0x651 (size before relaxing)
 .debug_str     0x00001515       0x61 c:/altera/12.1sp1/nios2eds/bin/gnu/h-i686-mingw32/bin/../lib/gcc/nios2-elf/4.1.2/../../../../nios2-elf/lib/mno-hw-mul\libc.a(lib_a-fwalk.o)
                                0x543 (size before relaxing)
 .debug_str     0x00001576      0x126 c:/altera/12.1sp1/nios2eds/bin/gnu/h-i686-mingw32/bin/../lib/gcc/nios2-elf/4.1.2/../../../../nios2-elf/lib/mno-hw-mul\libc.a(lib_a-makebuf.o)
                                0x614 (size before relaxing)
 .debug_str     0x0000169c       0xef c:/altera/12.1sp1/nios2eds/bin/gnu/h-i686-mingw32/bin/../lib/gcc/nios2-elf/4.1.2/../../../../nios2-elf/lib/mno-hw-mul\libc.a(lib_a-mallocr.o)
                                0x6ff (size before relaxing)
 .debug_str     0x0000178b       0x53 c:/altera/12.1sp1/nios2eds/bin/gnu/h-i686-mingw32/bin/../lib/gcc/nios2-elf/4.1.2/../../../../nios2-elf/lib/mno-hw-mul\libc.a(lib_a-sbrkr.o)
                                0x519 (size before relaxing)
 .debug_str     0x000017de       0x65 c:/altera/12.1sp1/nios2eds/bin/gnu/h-i686-mingw32/bin/../lib/gcc/nios2-elf/4.1.2/../../../../nios2-elf/lib/mno-hw-mul\libc.a(lib_a-stdio.o)
                                0x53f (size before relaxing)
 .debug_str     0x00001843       0x4f c:/altera/12.1sp1/nios2eds/bin/gnu/h-i686-mingw32/bin/../lib/gcc/nios2-elf/4.1.2/../../../../nios2-elf/lib/mno-hw-mul\libc.a(lib_a-writer.o)
                                0x51c (size before relaxing)
 .debug_str     0x00001892       0x46 c:/altera/12.1sp1/nios2eds/bin/gnu/h-i686-mingw32/bin/../lib/gcc/nios2-elf/4.1.2/../../../../nios2-elf/lib/mno-hw-mul\libc.a(lib_a-closer.o)
                                0x50c (size before relaxing)
 .debug_str     0x000018d8       0x53 c:/altera/12.1sp1/nios2eds/bin/gnu/h-i686-mingw32/bin/../lib/gcc/nios2-elf/4.1.2/../../../../nios2-elf/lib/mno-hw-mul\libc.a(lib_a-fclose.o)
                                0x524 (size before relaxing)
 .debug_str     0x0000192b       0x4c c:/altera/12.1sp1/nios2eds/bin/gnu/h-i686-mingw32/bin/../lib/gcc/nios2-elf/4.1.2/../../../../nios2-elf/lib/mno-hw-mul\libc.a(lib_a-fstatr.o)
                                0x5ff (size before relaxing)
 .debug_str     0x00001977       0x48 c:/altera/12.1sp1/nios2eds/bin/gnu/h-i686-mingw32/bin/../lib/gcc/nios2-elf/4.1.2/../../../../nios2-elf/lib/mno-hw-mul\libc.a(lib_a-isattyr.o)
                                0x50e (size before relaxing)
 .debug_str     0x000019bf       0x46 c:/altera/12.1sp1/nios2eds/bin/gnu/h-i686-mingw32/bin/../lib/gcc/nios2-elf/4.1.2/../../../../nios2-elf/lib/mno-hw-mul\libc.a(lib_a-lseekr.o)
                                0x51a (size before relaxing)
 .debug_str     0x00001a05       0x44 c:/altera/12.1sp1/nios2eds/bin/gnu/h-i686-mingw32/bin/../lib/gcc/nios2-elf/4.1.2/../../../../nios2-elf/lib/mno-hw-mul\libc.a(lib_a-readr.o)
                                0x51a (size before relaxing)
 .debug_str     0x00001a49       0x76 c:/altera/12.1sp1/nios2eds/bin/gnu/h-i686-mingw32/bin/../lib/gcc/nios2-elf/4.1.2/mno-hw-mul\libgcc.a(lib2-divmod.o)
                                0x1b4 (size before relaxing)
 .debug_str     0x00001abf       0x37 c:/altera/12.1sp1/nios2eds/bin/gnu/h-i686-mingw32/bin/../lib/gcc/nios2-elf/4.1.2/mno-hw-mul\libgcc.a(lib2-mul.o)
                                0x175 (size before relaxing)
 .debug_str     0x00001af6       0x1c ../MIDIGenerator_bsp/\libucosii_bsp.a(alt_exit.o)
 .debug_str     0x00001b12       0x12 ../MIDIGenerator_bsp/\libucosii_bsp.a(alt_fstat.o)
 .debug_str     0x00001b24       0x12 ../MIDIGenerator_bsp/\libucosii_bsp.a(alt_isatty.o)
 .debug_str     0x00001b36       0x12 ../MIDIGenerator_bsp/\libucosii_bsp.a(alt_lseek.o)
 .debug_str     0x00001b48       0x12 ../MIDIGenerator_bsp/\libucosii_bsp.a(alt_read.o)
 .debug_str     0x00001b5a       0x1a ../MIDIGenerator_bsp/\libucosii_bsp.a(alt_sbrk.o)
 .debug_str     0x00001b74       0x12 ../MIDIGenerator_bsp/\libucosii_bsp.a(alt_write.o)

.debug_loc      0x00000000     0x5161
 *(.debug_loc)
 .debug_loc     0x00000000      0x102 obj/default/midi_generator.o
 .debug_loc     0x00000102      0x47a c:/altera/12.1sp1/nios2eds/bin/gnu/h-i686-mingw32/bin/../lib/gcc/nios2-elf/4.1.2/mno-hw-mul\libgcc.a(_addsub_df.o)
 .debug_loc     0x0000057c       0x9a c:/altera/12.1sp1/nios2eds/bin/gnu/h-i686-mingw32/bin/../lib/gcc/nios2-elf/4.1.2/mno-hw-mul\libgcc.a(_si_to_df.o)
 .debug_loc     0x00000616       0x8b c:/altera/12.1sp1/nios2eds/bin/gnu/h-i686-mingw32/bin/../lib/gcc/nios2-elf/4.1.2/mno-hw-mul\libgcc.a(_df_to_si.o)
 .debug_loc     0x000006a1       0x1e c:/altera/12.1sp1/nios2eds/bin/gnu/h-i686-mingw32/bin/../lib/gcc/nios2-elf/4.1.2/mno-hw-mul\libgcc.a(_clzsi2.o)
 .debug_loc     0x000006bf      0x184 c:/altera/12.1sp1/nios2eds/bin/gnu/h-i686-mingw32/bin/../lib/gcc/nios2-elf/4.1.2/mno-hw-mul\libgcc.a(_pack_df.o)
 .debug_loc     0x00000843       0xe5 c:/altera/12.1sp1/nios2eds/bin/gnu/h-i686-mingw32/bin/../lib/gcc/nios2-elf/4.1.2/mno-hw-mul\libgcc.a(_unpack_df.o)
 .debug_loc     0x00000928       0x8f c:/altera/12.1sp1/nios2eds/bin/gnu/h-i686-mingw32/bin/../lib/gcc/nios2-elf/4.1.2/../../../../nios2-elf/lib/mno-hw-mul\libc.a(lib_a-strcat.o)
 .debug_loc     0x000009b7       0x8b c:/altera/12.1sp1/nios2eds/bin/gnu/h-i686-mingw32/bin/../lib/gcc/nios2-elf/4.1.2/../../../../nios2-elf/lib/mno-hw-mul\libc.a(lib_a-strcpy.o)
 .debug_loc     0x00000a42       0xac ../MIDIGenerator_bsp/\libucosii_bsp.a(alt_iic.o)
 .debug_loc     0x00000aee       0x2b ../MIDIGenerator_bsp/\libucosii_bsp.a(alt_iic_isr_register.o)
 .debug_loc     0x00000b19       0x2b ../MIDIGenerator_bsp/\libucosii_bsp.a(alt_irq_handler.o)
 .debug_loc     0x00000b44       0x56 ../MIDIGenerator_bsp/\libucosii_bsp.a(alt_load.o)
 .debug_loc     0x00000b9a       0x2b ../MIDIGenerator_bsp/\libucosii_bsp.a(alt_main.o)
 .debug_loc     0x00000bc5       0x2b ../MIDIGenerator_bsp/\libucosii_bsp.a(alt_printf.o)
 .debug_loc     0x00000bf0       0x2b ../MIDIGenerator_bsp/\libucosii_bsp.a(alt_putchar.o)
 .debug_loc     0x00000c1b       0x57 ../MIDIGenerator_bsp/\libucosii_bsp.a(alt_env_lock.o)
 .debug_loc     0x00000c72       0x57 ../MIDIGenerator_bsp/\libucosii_bsp.a(alt_malloc_lock.o)
 .debug_loc     0x00000cc9      0x5e2 ../MIDIGenerator_bsp/\libucosii_bsp.a(os_core.o)
 .debug_loc     0x000012ab       0x2b ../MIDIGenerator_bsp/\libucosii_bsp.a(os_dbg.o)
 .debug_loc     0x000012d6      0x232 ../MIDIGenerator_bsp/\libucosii_bsp.a(os_flag.o)
 .debug_loc     0x00001508      0x12d ../MIDIGenerator_bsp/\libucosii_bsp.a(os_mem.o)
 .debug_loc     0x00001635      0x1da ../MIDIGenerator_bsp/\libucosii_bsp.a(os_q.o)
 .debug_loc     0x0000180f      0x158 ../MIDIGenerator_bsp/\libucosii_bsp.a(os_sem.o)
 .debug_loc     0x00001967      0x207 ../MIDIGenerator_bsp/\libucosii_bsp.a(os_task.o)
 .debug_loc     0x00001b6e       0xd7 ../MIDIGenerator_bsp/\libucosii_bsp.a(os_time.o)
 .debug_loc     0x00001c45       0x81 ../MIDIGenerator_bsp/\libucosii_bsp.a(alt_sys_init.o)
 .debug_loc     0x00001cc6       0xac ../MIDIGenerator_bsp/\libucosii_bsp.a(altera_avalon_jtag_uart_fd.o)
 .debug_loc     0x00001d72       0xac ../MIDIGenerator_bsp/\libucosii_bsp.a(altera_avalon_jtag_uart_init.o)
 .debug_loc     0x00001e1e       0x2b ../MIDIGenerator_bsp/\libucosii_bsp.a(altera_avalon_jtag_uart_ioctl.o)
 .debug_loc     0x00001e49       0x2c ../MIDIGenerator_bsp/\libucosii_bsp.a(altera_avalon_jtag_uart_read.o)
 .debug_loc     0x00001e75       0x2c ../MIDIGenerator_bsp/\libucosii_bsp.a(altera_avalon_jtag_uart_write.o)
 .debug_loc     0x00001ea1       0x56 ../MIDIGenerator_bsp/\libucosii_bsp.a(altera_avalon_timer_sc.o)
 .debug_loc     0x00001ef7      0x22f ../MIDIGenerator_bsp/\libucosii_bsp.a(altera_up_avalon_character_lcd.o)
 .debug_loc     0x00002126       0x2b ../MIDIGenerator_bsp/\libucosii_bsp.a(alt_alarm_start.o)
 .debug_loc     0x00002151       0x56 ../MIDIGenerator_bsp/\libucosii_bsp.a(alt_close.o)
 .debug_loc     0x000021a7       0x2b ../MIDIGenerator_bsp/\libucosii_bsp.a(alt_dcache_flush_all.o)
 .debug_loc     0x000021d2       0x2b ../MIDIGenerator_bsp/\libucosii_bsp.a(alt_dev.o)
 .debug_loc     0x000021fd       0x56 ../MIDIGenerator_bsp/\libucosii_bsp.a(alt_dev_llist_insert.o)
 .debug_loc     0x00002253       0x2b ../MIDIGenerator_bsp/\libucosii_bsp.a(alt_do_ctors.o)
 .debug_loc     0x0000227e       0x2b ../MIDIGenerator_bsp/\libucosii_bsp.a(alt_do_dtors.o)
 .debug_loc     0x000022a9       0x2b ../MIDIGenerator_bsp/\libucosii_bsp.a(alt_find_dev.o)
 .debug_loc     0x000022d4       0x2b ../MIDIGenerator_bsp/\libucosii_bsp.a(alt_icache_flush_all.o)
 .debug_loc     0x000022ff       0x56 ../MIDIGenerator_bsp/\libucosii_bsp.a(alt_io_redirect.o)
 .debug_loc     0x00002355       0x81 ../MIDIGenerator_bsp/\libucosii_bsp.a(alt_open.o)
 .debug_loc     0x000023d6       0x2b ../MIDIGenerator_bsp/\libucosii_bsp.a(alt_release_fd.o)
 .debug_loc     0x00002401       0x56 ../MIDIGenerator_bsp/\libucosii_bsp.a(alt_tick.o)
 .debug_loc     0x00002457       0x2b ../MIDIGenerator_bsp/\libucosii_bsp.a(altera_nios2_qsys_irq.o)
 .debug_loc     0x00002482      0x1ae ../MIDIGenerator_bsp/\libucosii_bsp.a(os_cpu_c.o)
 .debug_loc     0x00002630       0x2b ../MIDIGenerator_bsp/\libucosii_bsp.a(alt_find_file.o)
 .debug_loc     0x0000265b       0x2b ../MIDIGenerator_bsp/\libucosii_bsp.a(alt_get_fd.o)
 .debug_loc     0x00002686       0x1e c:/altera/12.1sp1/nios2eds/bin/gnu/h-i686-mingw32/bin/../lib/gcc/nios2-elf/4.1.2/../../../../nios2-elf/lib/mno-hw-mul\libc.a(lib_a-atexit.o)
 .debug_loc     0x000026a4       0x3d c:/altera/12.1sp1/nios2eds/bin/gnu/h-i686-mingw32/bin/../lib/gcc/nios2-elf/4.1.2/../../../../nios2-elf/lib/mno-hw-mul\libc.a(lib_a-exit.o)
 .debug_loc     0x000026e1      0x114 c:/altera/12.1sp1/nios2eds/bin/gnu/h-i686-mingw32/bin/../lib/gcc/nios2-elf/4.1.2/../../../../nios2-elf/lib/mno-hw-mul\libc.a(lib_a-memcmp.o)
 .debug_loc     0x000027f5       0xca c:/altera/12.1sp1/nios2eds/bin/gnu/h-i686-mingw32/bin/../lib/gcc/nios2-elf/4.1.2/../../../../nios2-elf/lib/mno-hw-mul\libc.a(lib_a-memcpy.o)
 .debug_loc     0x000028bf       0xa1 c:/altera/12.1sp1/nios2eds/bin/gnu/h-i686-mingw32/bin/../lib/gcc/nios2-elf/4.1.2/../../../../nios2-elf/lib/mno-hw-mul\libc.a(lib_a-memset.o)
 .debug_loc     0x00002960      0x20d c:/altera/12.1sp1/nios2eds/bin/gnu/h-i686-mingw32/bin/../lib/gcc/nios2-elf/4.1.2/../../../../nios2-elf/lib/mno-hw-mul\libc.a(lib_a-putc.o)
 .debug_loc     0x00002b6d       0x3c c:/altera/12.1sp1/nios2eds/bin/gnu/h-i686-mingw32/bin/../lib/gcc/nios2-elf/4.1.2/../../../../nios2-elf/lib/mno-hw-mul\libc.a(lib_a-strlen.o)
 .debug_loc     0x00002ba9      0x157 c:/altera/12.1sp1/nios2eds/bin/gnu/h-i686-mingw32/bin/../lib/gcc/nios2-elf/4.1.2/../../../../nios2-elf/lib/mno-hw-mul\libc.a(lib_a-wbuf.o)
 .debug_loc     0x00002d00       0x7c c:/altera/12.1sp1/nios2eds/bin/gnu/h-i686-mingw32/bin/../lib/gcc/nios2-elf/4.1.2/../../../../nios2-elf/lib/mno-hw-mul\libc.a(lib_a-wsetup.o)
 .debug_loc     0x00002d7c      0x120 c:/altera/12.1sp1/nios2eds/bin/gnu/h-i686-mingw32/bin/../lib/gcc/nios2-elf/4.1.2/../../../../nios2-elf/lib/mno-hw-mul\libc.a(lib_a-__atexit.o)
 .debug_loc     0x00002e9c      0x1cb c:/altera/12.1sp1/nios2eds/bin/gnu/h-i686-mingw32/bin/../lib/gcc/nios2-elf/4.1.2/../../../../nios2-elf/lib/mno-hw-mul\libc.a(lib_a-__call_atexit.o)
 .debug_loc     0x00003067      0x1f6 c:/altera/12.1sp1/nios2eds/bin/gnu/h-i686-mingw32/bin/../lib/gcc/nios2-elf/4.1.2/../../../../nios2-elf/lib/mno-hw-mul\libc.a(lib_a-fflush.o)
 .debug_loc     0x0000325d      0x1e1 c:/altera/12.1sp1/nios2eds/bin/gnu/h-i686-mingw32/bin/../lib/gcc/nios2-elf/4.1.2/../../../../nios2-elf/lib/mno-hw-mul\libc.a(lib_a-findfp.o)
 .debug_loc     0x0000343e      0x4a7 c:/altera/12.1sp1/nios2eds/bin/gnu/h-i686-mingw32/bin/../lib/gcc/nios2-elf/4.1.2/../../../../nios2-elf/lib/mno-hw-mul\libc.a(lib_a-freer.o)
 .debug_loc     0x000038e5      0x1d2 c:/altera/12.1sp1/nios2eds/bin/gnu/h-i686-mingw32/bin/../lib/gcc/nios2-elf/4.1.2/../../../../nios2-elf/lib/mno-hw-mul\libc.a(lib_a-fwalk.o)
 .debug_loc     0x00003ab7      0x11c c:/altera/12.1sp1/nios2eds/bin/gnu/h-i686-mingw32/bin/../lib/gcc/nios2-elf/4.1.2/../../../../nios2-elf/lib/mno-hw-mul\libc.a(lib_a-makebuf.o)
 .debug_loc     0x00003bd3      0xaeb c:/altera/12.1sp1/nios2eds/bin/gnu/h-i686-mingw32/bin/../lib/gcc/nios2-elf/4.1.2/../../../../nios2-elf/lib/mno-hw-mul\libc.a(lib_a-mallocr.o)
 .debug_loc     0x000046be       0x5b c:/altera/12.1sp1/nios2eds/bin/gnu/h-i686-mingw32/bin/../lib/gcc/nios2-elf/4.1.2/../../../../nios2-elf/lib/mno-hw-mul\libc.a(lib_a-sbrkr.o)
 .debug_loc     0x00004719      0x21f c:/altera/12.1sp1/nios2eds/bin/gnu/h-i686-mingw32/bin/../lib/gcc/nios2-elf/4.1.2/../../../../nios2-elf/lib/mno-hw-mul\libc.a(lib_a-stdio.o)
 .debug_loc     0x00004938       0x97 c:/altera/12.1sp1/nios2eds/bin/gnu/h-i686-mingw32/bin/../lib/gcc/nios2-elf/4.1.2/../../../../nios2-elf/lib/mno-hw-mul\libc.a(lib_a-writer.o)
 .debug_loc     0x000049cf       0x5b c:/altera/12.1sp1/nios2eds/bin/gnu/h-i686-mingw32/bin/../lib/gcc/nios2-elf/4.1.2/../../../../nios2-elf/lib/mno-hw-mul\libc.a(lib_a-closer.o)
 .debug_loc     0x00004a2a       0xe4 c:/altera/12.1sp1/nios2eds/bin/gnu/h-i686-mingw32/bin/../lib/gcc/nios2-elf/4.1.2/../../../../nios2-elf/lib/mno-hw-mul\libc.a(lib_a-fclose.o)
 .debug_loc     0x00004b0e       0x79 c:/altera/12.1sp1/nios2eds/bin/gnu/h-i686-mingw32/bin/../lib/gcc/nios2-elf/4.1.2/../../../../nios2-elf/lib/mno-hw-mul\libc.a(lib_a-fstatr.o)
 .debug_loc     0x00004b87       0x5b c:/altera/12.1sp1/nios2eds/bin/gnu/h-i686-mingw32/bin/../lib/gcc/nios2-elf/4.1.2/../../../../nios2-elf/lib/mno-hw-mul\libc.a(lib_a-isattyr.o)
 .debug_loc     0x00004be2       0x97 c:/altera/12.1sp1/nios2eds/bin/gnu/h-i686-mingw32/bin/../lib/gcc/nios2-elf/4.1.2/../../../../nios2-elf/lib/mno-hw-mul\libc.a(lib_a-lseekr.o)
 .debug_loc     0x00004c79       0x97 c:/altera/12.1sp1/nios2eds/bin/gnu/h-i686-mingw32/bin/../lib/gcc/nios2-elf/4.1.2/../../../../nios2-elf/lib/mno-hw-mul\libc.a(lib_a-readr.o)
 .debug_loc     0x00004d10      0x1d2 c:/altera/12.1sp1/nios2eds/bin/gnu/h-i686-mingw32/bin/../lib/gcc/nios2-elf/4.1.2/mno-hw-mul\libgcc.a(lib2-divmod.o)
 .debug_loc     0x00004ee2       0x4f c:/altera/12.1sp1/nios2eds/bin/gnu/h-i686-mingw32/bin/../lib/gcc/nios2-elf/4.1.2/mno-hw-mul\libgcc.a(lib2-mul.o)
 .debug_loc     0x00004f31       0x56 ../MIDIGenerator_bsp/\libucosii_bsp.a(alt_exit.o)
 .debug_loc     0x00004f87       0x56 ../MIDIGenerator_bsp/\libucosii_bsp.a(alt_fstat.o)
 .debug_loc     0x00004fdd       0x57 ../MIDIGenerator_bsp/\libucosii_bsp.a(alt_isatty.o)
 .debug_loc     0x00005034       0x56 ../MIDIGenerator_bsp/\libucosii_bsp.a(alt_lseek.o)
 .debug_loc     0x0000508a       0x56 ../MIDIGenerator_bsp/\libucosii_bsp.a(alt_read.o)
 .debug_loc     0x000050e0       0x2b ../MIDIGenerator_bsp/\libucosii_bsp.a(alt_sbrk.o)
 .debug_loc     0x0000510b       0x56 ../MIDIGenerator_bsp/\libucosii_bsp.a(alt_write.o)

.debug_macinfo
 *(.debug_macinfo)

.debug_weaknames
 *(.debug_weaknames)

.debug_funcnames
 *(.debug_funcnames)

.debug_typenames
 *(.debug_typenames)

.debug_varnames
 *(.debug_varnames)

.debug_alt_sim_info
                0x00000000       0x10
 *(.debug_alt_sim_info)
 .debug_alt_sim_info
                0x00000000       0x10 ../MIDIGenerator_bsp//obj/HAL/src/crt0.o
                0x01000000                __alt_data_end = 0x1000000
                0x01000000                PROVIDE (__alt_stack_pointer, __alt_data_end)
                0x00818294                PROVIDE (__alt_stack_limit, __alt_stack_base)
                0x00818294                PROVIDE (__alt_heap_start, end)
                0x01000000                PROVIDE (__alt_heap_limit, 0x1000000)
OUTPUT(MIDIGenerator.elf elf32-littlenios2)

.debug_ranges   0x00000000      0x258
 .debug_ranges  0x00000000       0x20 ../MIDIGenerator_bsp//obj/HAL/src/crt0.o
 .debug_ranges  0x00000020       0x30 c:/altera/12.1sp1/nios2eds/bin/gnu/h-i686-mingw32/bin/../lib/gcc/nios2-elf/4.1.2/mno-hw-mul\libgcc.a(_addsub_df.o)
 .debug_ranges  0x00000050       0x28 c:/altera/12.1sp1/nios2eds/bin/gnu/h-i686-mingw32/bin/../lib/gcc/nios2-elf/4.1.2/mno-hw-mul\libgcc.a(_clzsi2.o)
 .debug_ranges  0x00000078       0x28 c:/altera/12.1sp1/nios2eds/bin/gnu/h-i686-mingw32/bin/../lib/gcc/nios2-elf/4.1.2/mno-hw-mul\libgcc.a(_pack_df.o)
 .debug_ranges  0x000000a0       0x28 ../MIDIGenerator_bsp/\libucosii_bsp.a(alt_irq_entry.o)
 .debug_ranges  0x000000c8       0x18 ../MIDIGenerator_bsp/\libucosii_bsp.a(altera_avalon_jtag_uart_init.o)
 .debug_ranges  0x000000e0       0x30 ../MIDIGenerator_bsp/\libucosii_bsp.a(alt_exception_entry.o)
 .debug_ranges  0x00000110       0x18 c:/altera/12.1sp1/nios2eds/bin/gnu/h-i686-mingw32/bin/../lib/gcc/nios2-elf/4.1.2/../../../../nios2-elf/lib/mno-hw-mul\libc.a(lib_a-__call_atexit.o)
 .debug_ranges  0x00000128       0x20 c:/altera/12.1sp1/nios2eds/bin/gnu/h-i686-mingw32/bin/../lib/gcc/nios2-elf/4.1.2/../../../../nios2-elf/lib/mno-hw-mul\libc.a(lib_a-fflush.o)
 .debug_ranges  0x00000148       0xa0 c:/altera/12.1sp1/nios2eds/bin/gnu/h-i686-mingw32/bin/../lib/gcc/nios2-elf/4.1.2/../../../../nios2-elf/lib/mno-hw-mul\libc.a(lib_a-fwalk.o)
 .debug_ranges  0x000001e8       0x70 c:/altera/12.1sp1/nios2eds/bin/gnu/h-i686-mingw32/bin/../lib/gcc/nios2-elf/4.1.2/../../../../nios2-elf/lib/mno-hw-mul\libc.a(lib_a-mallocr.o)
